
Discarded input sections

 .bss           0x0000000000000000        0x0 build/drawing.o
 .ARM.attributes
                0x0000000000000000       0x14 build/drawing.o
 .bss           0x0000000000000000        0x0 build/framebuffer.o
 .ARM.attributes
                0x0000000000000000       0x14 build/framebuffer.o
 .bss           0x0000000000000000        0x0 build/gpio.o
 .ARM.attributes
                0x0000000000000000       0x14 build/gpio.o
 .bss           0x0000000000000000        0x0 build/mailbox.o
 .ARM.attributes
                0x0000000000000000       0x14 build/mailbox.o
 .bss           0x0000000000000000        0x0 build/main.o
 .ARM.attributes
                0x0000000000000000       0x14 build/main.o
 .bss           0x0000000000000000        0x0 build/math.o
 .ARM.attributes
                0x0000000000000000       0x14 build/math.o
 .bss           0x0000000000000000        0x0 build/random.o
 .ARM.attributes
                0x0000000000000000       0x14 build/random.o
 .bss           0x0000000000000000        0x0 build/systemTimer.o
 .ARM.attributes
                0x0000000000000000       0x14 build/systemTimer.o
 .bss           0x0000000000000000        0x0 build/tags.o
 .ARM.attributes
                0x0000000000000000       0x14 build/tags.o
 .bss           0x0000000000000000        0x0 build/text.o
 .ARM.attributes
                0x0000000000000000       0x14 build/text.o

Memory Configuration

Name             Origin             Length             Attributes
*default*        0x0000000000000000 0xffffffffffffffff

Linker script and memory map

LOAD build/drawing.o
LOAD build/framebuffer.o
LOAD build/gpio.o
LOAD build/mailbox.o
LOAD build/main.o
LOAD build/math.o
LOAD build/random.o
LOAD build/systemTimer.o
LOAD build/tags.o
LOAD build/text.o
LOAD ./libcsud.a

.init           0x0000000000008000        0x4
 *(.init)
 .init          0x0000000000008000        0x4 build/main.o
                0x0000000000008000                _start

.text           0x0000000000008004      0x734
 *(.text)
 .text          0x0000000000008004      0x1d4 build/drawing.o
                0x0000000000008004                SetForeColour
                0x0000000000008018                SetGraphicsAddress
                0x0000000000008024                DrawPixel
                0x000000000000806c                DrawLine
                0x00000000000080e8                DrawCharacter
                0x0000000000008158                DrawString
 .text          0x00000000000081d8       0x60 build/framebuffer.o
                0x00000000000081d8                InitialiseFrameBuffer
 .text          0x0000000000008238       0x98 build/gpio.o
                0x0000000000008238                GetGpioAddress
                0x0000000000008240                SetGpioFunction
                0x0000000000008290                SetGpio
 .text          0x00000000000082d0       0x78 build/mailbox.o
                0x00000000000082d0                GetMailboxBase
                0x00000000000082d8                MailboxWrite
                0x000000000000830c                MailboxRead
 .text          0x0000000000008348       0xfc build/main.o
 .text          0x0000000000008444       0x48 build/math.o
                0x0000000000008444                DivideU32
 .text          0x000000000000848c       0x18 build/random.o
                0x000000000000848c                Random
 .text          0x00000000000084a4       0x40 build/systemTimer.o
                0x00000000000084a4                GetTimerAddress
                0x00000000000084ac                GetTimeStamp
                0x00000000000084bc                TimerFunction
 .text          0x00000000000084e4       0x70 build/tags.o
                0x00000000000084e4                FindTag
 .text          0x0000000000008554      0x1e4 build/text.o
                0x0000000000008554                ReverseString
                0x0000000000008580                UnsignedString
                0x00000000000085d0                SignedString
                0x00000000000085fc                FormatString

.data           0x0000000000008740      0x866
 *(.data)
 .data          0x0000000000008740      0x810 build/drawing.o
 .data          0x0000000000008f50       0x28 build/framebuffer.o
                0x0000000000008f50                FrameBufferInfo
 .data          0x0000000000008f78        0x0 build/gpio.o
 .data          0x0000000000008f78        0x0 build/mailbox.o
 .data          0x0000000000008f78        0xa build/main.o
 .data          0x0000000000008f82        0x0 build/math.o
 .data          0x0000000000008f82        0x0 build/random.o
 .data          0x0000000000008f82        0x0 build/systemTimer.o
 .data          0x0000000000008f82       0x24 build/tags.o
 .data          0x0000000000008fa6        0x0 build/text.o

/DISCARD/
 *(*)
OUTPUT(build/output.elf elf32-littlearm)
