
build/output.elf:     file format elf32-littlearm


Disassembly of section .init:

00008000 <_start>:
    8000:	ea000120 	b	8488 <main>

Disassembly of section .text:

00008004 <SetForeColour>:
    8004:	e3500801 	cmp	r0, #65536	; 0x10000
    8008:	21a0f00e 	movcs	pc, lr
    800c:	e59f11b8 	ldr	r1, [pc, #440]	; 81cc <stringLoopEnd$+0x4>
    8010:	e1c100b0 	strh	r0, [r1]
    8014:	e1a0f00e 	mov	pc, lr

00008018 <SetGraphicsAddress>:
    8018:	e59f11b0 	ldr	r1, [pc, #432]	; 81d0 <stringLoopEnd$+0x8>
    801c:	e5810000 	str	r0, [r1]
    8020:	e1a0f00e 	mov	pc, lr

00008024 <DrawPixel>:
    8024:	e59f21a4 	ldr	r2, [pc, #420]	; 81d0 <stringLoopEnd$+0x8>
    8028:	e5922000 	ldr	r2, [r2]
    802c:	e5923004 	ldr	r3, [r2, #4]
    8030:	e2433001 	sub	r3, r3, #1
    8034:	e1510003 	cmp	r1, r3
    8038:	81a0f00e 	movhi	pc, lr
    803c:	e5923000 	ldr	r3, [r2]
    8040:	e2433001 	sub	r3, r3, #1
    8044:	e1500003 	cmp	r0, r3
    8048:	81a0f00e 	movhi	pc, lr
    804c:	e5922020 	ldr	r2, [r2, #32]
    8050:	e2833001 	add	r3, r3, #1
    8054:	e0200391 	mla	r0, r1, r3, r0
    8058:	e0822080 	add	r2, r2, r0, lsl #1
    805c:	e59f3168 	ldr	r3, [pc, #360]	; 81cc <stringLoopEnd$+0x4>
    8060:	e1d330b0 	ldrh	r3, [r3]
    8064:	e1c230b0 	strh	r3, [r2]
    8068:	e1a0f00e 	mov	pc, lr

0000806c <DrawLine>:
    806c:	e92d5ff0 	push	{r4, r5, r6, r7, r8, r9, sl, fp, ip, lr}
    8070:	e1a09000 	mov	r9, r0
    8074:	e1a0a002 	mov	sl, r2
    8078:	e1a0b001 	mov	fp, r1
    807c:	e1a0c003 	mov	ip, r3
    8080:	e159000a 	cmp	r9, sl
    8084:	c049400a 	subgt	r4, r9, sl
    8088:	c3e06000 	mvngt	r6, #0
    808c:	d04a4009 	suble	r4, sl, r9
    8090:	d3a06001 	movle	r6, #1
    8094:	e15b000c 	cmp	fp, ip
    8098:	c04c500b 	subgt	r5, ip, fp
    809c:	c3e07000 	mvngt	r7, #0
    80a0:	d04b500c 	suble	r5, fp, ip
    80a4:	d3a07001 	movle	r7, #1
    80a8:	e0848005 	add	r8, r4, r5
    80ac:	e08aa006 	add	sl, sl, r6
    80b0:	e08cc007 	add	ip, ip, r7

000080b4 <pixelLoop$>:
    80b4:	e139000a 	teq	r9, sl
    80b8:	113b000c 	teqne	fp, ip
    80bc:	08bd9ff0 	popeq	{r4, r5, r6, r7, r8, r9, sl, fp, ip, pc}
    80c0:	e1a00009 	mov	r0, r9
    80c4:	e1a0100b 	mov	r1, fp
    80c8:	ebffffd5 	bl	8024 <DrawPixel>
    80cc:	e1550088 	cmp	r5, r8, lsl #1
    80d0:	d0888005 	addle	r8, r8, r5
    80d4:	d0899006 	addle	r9, r9, r6
    80d8:	e1540088 	cmp	r4, r8, lsl #1
    80dc:	a0888004 	addge	r8, r8, r4
    80e0:	a08bb007 	addge	fp, fp, r7
    80e4:	eafffff2 	b	80b4 <pixelLoop$>

000080e8 <DrawCharacter>:
    80e8:	e350007f 	cmp	r0, #127	; 0x7f
    80ec:	83a00000 	movhi	r0, #0
    80f0:	83a01000 	movhi	r1, #0
    80f4:	81a0f00e 	movhi	pc, lr
    80f8:	e92d41f0 	push	{r4, r5, r6, r7, r8, lr}
    80fc:	e1a04001 	mov	r4, r1
    8100:	e1a05002 	mov	r5, r2
    8104:	e59f60c8 	ldr	r6, [pc, #200]	; 81d4 <stringLoopEnd$+0xc>
    8108:	e0866200 	add	r6, r6, r0, lsl #4

0000810c <lineLoop$>:
    810c:	e5d67000 	ldrb	r7, [r6]
    8110:	e3a08008 	mov	r8, #8

00008114 <charPixelLoop$>:
    8114:	e2588001 	subs	r8, r8, #1
    8118:	ba000007 	blt	813c <charPixelLoopEnd$>
    811c:	e1a07087 	lsl	r7, r7, #1
    8120:	e3170c01 	tst	r7, #256	; 0x100
    8124:	0afffffa 	beq	8114 <charPixelLoop$>
    8128:	e0840008 	add	r0, r4, r8
    812c:	e1a01005 	mov	r1, r5
    8130:	ebffffbb 	bl	8024 <DrawPixel>
    8134:	e3380000 	teq	r8, #0
    8138:	1afffff5 	bne	8114 <charPixelLoop$>

0000813c <charPixelLoopEnd$>:
    813c:	e2855001 	add	r5, r5, #1
    8140:	e2866001 	add	r6, r6, #1
    8144:	e316000f 	tst	r6, #15
    8148:	1affffef 	bne	810c <lineLoop$>
    814c:	e3a00008 	mov	r0, #8
    8150:	e3a01010 	mov	r1, #16
    8154:	e8bd81f0 	pop	{r4, r5, r6, r7, r8, pc}

00008158 <DrawString>:
    8158:	e92d43f0 	push	{r4, r5, r6, r7, r8, r9, lr}
    815c:	e1a07000 	mov	r7, r0
    8160:	e1a04002 	mov	r4, r2
    8164:	e1a06004 	mov	r6, r4
    8168:	e1a05003 	mov	r5, r3
    816c:	e1a08001 	mov	r8, r1

00008170 <stringLoop$>:
    8170:	e2588001 	subs	r8, r8, #1
    8174:	ba000013 	blt	81c8 <stringLoopEnd$>
    8178:	e5d79000 	ldrb	r9, [r7]
    817c:	e2877001 	add	r7, r7, #1
    8180:	e1a00009 	mov	r0, r9
    8184:	e1a01004 	mov	r1, r4
    8188:	e1a02005 	mov	r2, r5
    818c:	ebffffd5 	bl	80e8 <DrawCharacter>
    8190:	e339000a 	teq	r9, #10
    8194:	01a04006 	moveq	r4, r6
    8198:	00855001 	addeq	r5, r5, r1
    819c:	0afffff3 	beq	8170 <stringLoop$>
    81a0:	e3390009 	teq	r9, #9
    81a4:	10844000 	addne	r4, r4, r0
    81a8:	1afffff0 	bne	8170 <stringLoop$>
    81ac:	e0800100 	add	r0, r0, r0, lsl #2
    81b0:	e1a01006 	mov	r1, r6

000081b4 <stringLoopTab$>:
    81b4:	e0811000 	add	r1, r1, r0
    81b8:	e1540001 	cmp	r4, r1
    81bc:	aafffffc 	bge	81b4 <stringLoopTab$>
    81c0:	e1a04001 	mov	r4, r1
    81c4:	eaffffe9 	b	8170 <stringLoop$>

000081c8 <stringLoopEnd$>:
    81c8:	e8bd83f0 	pop	{r4, r5, r6, r7, r8, r9, pc}
    81cc:	00018e00 	.word	0x00018e00
    81d0:	00018e04 	.word	0x00018e04
    81d4:	00018e10 	.word	0x00018e10

000081d8 <InitialiseFrameBuffer>:
    81d8:	e3500a01 	cmp	r0, #4096	; 0x1000
    81dc:	93510a01 	cmpls	r1, #4096	; 0x1000
    81e0:	93520020 	cmpls	r2, #32
    81e4:	83a00000 	movhi	r0, #0
    81e8:	81a0f00e 	movhi	pc, lr
    81ec:	e52de004 	push	{lr}		; (str lr, [sp, #-4]!)
    81f0:	e59f403c 	ldr	r4, [pc, #60]	; 8234 <InitialiseFrameBuffer+0x5c>
    81f4:	e5840000 	str	r0, [r4]
    81f8:	e5841004 	str	r1, [r4, #4]
    81fc:	e5840008 	str	r0, [r4, #8]
    8200:	e584100c 	str	r1, [r4, #12]
    8204:	e5842014 	str	r2, [r4, #20]
    8208:	e1a00004 	mov	r0, r4
    820c:	e2800101 	add	r0, r0, #1073741824	; 0x40000000
    8210:	e3a01001 	mov	r1, #1
    8214:	eb00007f 	bl	8418 <MailboxWrite>
    8218:	e3a00001 	mov	r0, #1
    821c:	eb00008a 	bl	844c <MailboxRead>
    8220:	e3300000 	teq	r0, #0
    8224:	13a00000 	movne	r0, #0
    8228:	149df004 	popne	{pc}		; (ldrne pc, [sp], #4)
    822c:	e1a00004 	mov	r0, r4
    8230:	e49df004 	pop	{pc}		; (ldr pc, [sp], #4)
    8234:	00019610 	.word	0x00019610

00008238 <GetGpioAddress>:
    8238:	e59f008c 	ldr	r0, [pc, #140]	; 82cc <SetGpio+0x3c>
    823c:	e1a0f00e 	mov	pc, lr

00008240 <SetGpioFunction>:
    8240:	e3500035 	cmp	r0, #53	; 0x35
    8244:	93510007 	cmpls	r1, #7
    8248:	81a0f00e 	movhi	pc, lr
    824c:	e52de004 	push	{lr}		; (str lr, [sp, #-4]!)
    8250:	e1a02000 	mov	r2, r0
    8254:	ebfffff7 	bl	8238 <GetGpioAddress>

00008258 <functionLoop$>:
    8258:	e3520009 	cmp	r2, #9
    825c:	8242200a 	subhi	r2, r2, #10
    8260:	82800004 	addhi	r0, r0, #4
    8264:	8afffffb 	bhi	8258 <functionLoop$>
    8268:	e0822082 	add	r2, r2, r2, lsl #1
    826c:	e1a01211 	lsl	r1, r1, r2
    8270:	e3a03007 	mov	r3, #7
    8274:	e1a03213 	lsl	r3, r3, r2
    8278:	e1e03003 	mvn	r3, r3
    827c:	e5902000 	ldr	r2, [r0]
    8280:	e0022003 	and	r2, r2, r3
    8284:	e1811002 	orr	r1, r1, r2
    8288:	e5801000 	str	r1, [r0]
    828c:	e49df004 	pop	{pc}		; (ldr pc, [sp], #4)

00008290 <SetGpio>:
    8290:	e3500035 	cmp	r0, #53	; 0x35
    8294:	81a0f00e 	movhi	pc, lr
    8298:	e52de004 	push	{lr}		; (str lr, [sp, #-4]!)
    829c:	e1a02000 	mov	r2, r0
    82a0:	ebffffe4 	bl	8238 <GetGpioAddress>
    82a4:	e1a032a2 	lsr	r3, r2, #5
    82a8:	e1a03103 	lsl	r3, r3, #2
    82ac:	e0800003 	add	r0, r0, r3
    82b0:	e202201f 	and	r2, r2, #31
    82b4:	e3a03001 	mov	r3, #1
    82b8:	e1a03213 	lsl	r3, r3, r2
    82bc:	e3310000 	teq	r1, #0
    82c0:	05803028 	streq	r3, [r0, #40]	; 0x28
    82c4:	1580301c 	strne	r3, [r0, #28]
    82c8:	e49df004 	pop	{pc}		; (ldr pc, [sp], #4)
    82cc:	20200000 	.word	0x20200000

000082d0 <KeyboardUpdate>:
    82d0:	e92d4030 	push	{r4, r5, lr}
    82d4:	e59f0124 	ldr	r0, [pc, #292]	; 8400 <return2$+0x4>
    82d8:	e5904000 	ldr	r4, [r0]
    82dc:	e3300000 	teq	r0, #0
    82e0:	1a00000c 	bne	8318 <keyboardPresent$>

000082e4 <newKeyboard$>:
    82e4:	eb001521 	bl	d770 <UsbCheckForChange>
    82e8:	eb000774 	bl	a0c0 <KeyboardCount>
    82ec:	e3300000 	teq	r0, #0
    82f0:	059f1108 	ldreq	r1, [pc, #264]	; 8400 <return2$+0x4>
    82f4:	05810000 	streq	r0, [r1]
    82f8:	0a000014 	beq	8350 <return$>
    82fc:	e3a00000 	mov	r0, #0
    8300:	eb0002ed 	bl	8ebc <KeyboardGetAddress>
    8304:	e59f40f4 	ldr	r4, [pc, #244]	; 8400 <return2$+0x4>
    8308:	e5840000 	str	r0, [r4]
    830c:	e3300000 	teq	r0, #0
    8310:	0a00000e 	beq	8350 <return$>
    8314:	e5944000 	ldr	r4, [r4]

00008318 <keyboardPresent$>:
    8318:	e3a05000 	mov	r5, #0

0000831c <getKeyLoop$>:
    831c:	e1a00004 	mov	r0, r4
    8320:	e1a01005 	mov	r1, r5
    8324:	eb000af7 	bl	af08 <KeyboardGetKeyDown>
    8328:	e59f10d4 	ldr	r1, [pc, #212]	; 8404 <return2$+0x8>
    832c:	e0811085 	add	r1, r1, r5, lsl #1
    8330:	e1c100b0 	strh	r0, [r1]
    8334:	e2855001 	add	r5, r5, #1
    8338:	e3550006 	cmp	r5, #6
    833c:	bafffff6 	blt	831c <getKeyLoop$>
    8340:	e1a00004 	mov	r0, r4
    8344:	eb000871 	bl	a510 <KeyboardPoll>
    8348:	e3300000 	teq	r0, #0
    834c:	1affffe4 	bne	82e4 <newKeyboard$>

00008350 <return$>:
    8350:	e8bd8030 	pop	{r4, r5, pc}

00008354 <KeyWasDown>:
    8354:	e59f10a8 	ldr	r1, [pc, #168]	; 8404 <return2$+0x8>
    8358:	e3a02000 	mov	r2, #0

0000835c <compareKey$>:
    835c:	e1d130b0 	ldrh	r3, [r1]
    8360:	e1300003 	teq	r0, r3
    8364:	03a00001 	moveq	r0, #1
    8368:	0a000004 	beq	8380 <return1$>
    836c:	e0811082 	add	r1, r1, r2, lsl #1
    8370:	e2822001 	add	r2, r2, #1
    8374:	e3520006 	cmp	r2, #6
    8378:	bafffff7 	blt	835c <compareKey$>
    837c:	e3a00000 	mov	r0, #0

00008380 <return1$>:
    8380:	e1a0f00e 	mov	pc, lr

00008384 <KeyboardGetChar>:
    8384:	e92d4070 	push	{r4, r5, r6, lr}
    8388:	e59f1070 	ldr	r1, [pc, #112]	; 8400 <return2$+0x4>
    838c:	e5914000 	ldr	r4, [r1]
    8390:	e3340000 	teq	r4, #0
    8394:	03a00000 	moveq	r0, #0
    8398:	0a000017 	beq	83fc <return2$>
    839c:	e3a05000 	mov	r5, #0

000083a0 <getKey$>:
    83a0:	e1a00004 	mov	r0, r4
    83a4:	e1a01005 	mov	r1, r5
    83a8:	eb000ad6 	bl	af08 <KeyboardGetKeyDown>
    83ac:	e3300000 	teq	r0, #0
    83b0:	0a000010 	beq	83f8 <break$>
    83b4:	e1a06000 	mov	r6, r0
    83b8:	ebffffe5 	bl	8354 <KeyWasDown>
    83bc:	e3300001 	teq	r0, #1
    83c0:	0a000009 	beq	83ec <continue$>
    83c4:	e3560068 	cmp	r6, #104	; 0x68
    83c8:	aa000007 	bge	83ec <continue$>
    83cc:	e1a00004 	mov	r0, r4
    83d0:	eb000a37 	bl	acb4 <KeyboardGetModifiers>
    83d4:	e3100022 	tst	r0, #34	; 0x22
    83d8:	159f0028 	ldrne	r0, [pc, #40]	; 8408 <return2$+0xc>
    83dc:	059f0028 	ldreq	r0, [pc, #40]	; 840c <return2$+0x10>
    83e0:	e7d00006 	ldrb	r0, [r0, r6]
    83e4:	e3300000 	teq	r0, #0
    83e8:	1a000003 	bne	83fc <return2$>

000083ec <continue$>:
    83ec:	e2855001 	add	r5, r5, #1
    83f0:	e3550006 	cmp	r5, #6
    83f4:	baffffe9 	blt	83a0 <getKey$>

000083f8 <break$>:
    83f8:	e3a00000 	mov	r0, #0

000083fc <return2$>:
    83fc:	e8bd8070 	pop	{r4, r5, r6, pc}
    8400:	00019708 	.word	0x00019708
    8404:	0001970c 	.word	0x0001970c
    8408:	000196a0 	.word	0x000196a0
    840c:	00019638 	.word	0x00019638

00008410 <GetMailboxBase>:
    8410:	e59f006c 	ldr	r0, [pc, #108]	; 8484 <rightmail$+0x24>
    8414:	e1a0f00e 	mov	pc, lr

00008418 <MailboxWrite>:
    8418:	e310000f 	tst	r0, #15
    841c:	11a0f00e 	movne	pc, lr
    8420:	e351000f 	cmp	r1, #15
    8424:	81a0f00e 	movhi	pc, lr
    8428:	e1a02000 	mov	r2, r0
    842c:	e52de004 	push	{lr}		; (str lr, [sp, #-4]!)
    8430:	ebfffff6 	bl	8410 <GetMailboxBase>

00008434 <wait1$>:
    8434:	e5903018 	ldr	r3, [r0, #24]
    8438:	e3130102 	tst	r3, #-2147483648	; 0x80000000
    843c:	1afffffc 	bne	8434 <wait1$>
    8440:	e0822001 	add	r2, r2, r1
    8444:	e5802020 	str	r2, [r0, #32]
    8448:	e49df004 	pop	{pc}		; (ldr pc, [sp], #4)

0000844c <MailboxRead>:
    844c:	e350000f 	cmp	r0, #15
    8450:	81a0f00e 	movhi	pc, lr
    8454:	e1a01000 	mov	r1, r0
    8458:	e52de004 	push	{lr}		; (str lr, [sp, #-4]!)
    845c:	ebffffeb 	bl	8410 <GetMailboxBase>

00008460 <rightmail$>:
    8460:	e5902018 	ldr	r2, [r0, #24]
    8464:	e3120101 	tst	r2, #1073741824	; 0x40000000
    8468:	1afffffc 	bne	8460 <rightmail$>
    846c:	e5902000 	ldr	r2, [r0]
    8470:	e202300f 	and	r3, r2, #15
    8474:	e1330001 	teq	r3, r1
    8478:	1afffff8 	bne	8460 <rightmail$>
    847c:	e3c2000f 	bic	r0, r2, #15
    8480:	e49df004 	pop	{pc}		; (ldr pc, [sp], #4)
    8484:	2000b880 	.word	0x2000b880

00008488 <main>:
    8488:	e3a0d902 	mov	sp, #32768	; 0x8000
    848c:	e3a00b01 	mov	r0, #1024	; 0x400
    8490:	e3a01c03 	mov	r1, #768	; 0x300
    8494:	e3a02010 	mov	r2, #16
    8498:	ebffff4e 	bl	81d8 <InitialiseFrameBuffer>
    849c:	e3300000 	teq	r0, #0
    84a0:	1a000006 	bne	84c0 <noError$>
    84a4:	e3a00010 	mov	r0, #16
    84a8:	e3a01001 	mov	r1, #1
    84ac:	ebffff63 	bl	8240 <SetGpioFunction>
    84b0:	e3a00010 	mov	r0, #16
    84b4:	e3a01000 	mov	r1, #0
    84b8:	ebffff74 	bl	8290 <SetGpio>

000084bc <error$>:
    84bc:	eafffffe 	b	84bc <error$>

000084c0 <noError$>:
    84c0:	ebfffed4 	bl	8018 <SetGraphicsAddress>
    84c4:	eb000e30 	bl	bd8c <UsbInitialise>
    84c8:	e3a0a000 	mov	sl, #0

000084cc <reset$>:
    84cc:	e3a0d902 	mov	sp, #32768	; 0x8000
    84d0:	eb0000d0 	bl	8818 <TerminalClear>
    84d4:	e59f0134 	ldr	r0, [pc, #308]	; 8610 <okAct$+0x8>
    84d8:	e3a0102f 	mov	r1, #47	; 0x2f
    84dc:	eb0000d3 	bl	8830 <Print>

000084e0 <loop$>:
    84e0:	e59f012c 	ldr	r0, [pc, #300]	; 8614 <okAct$+0xc>
    84e4:	e3a01003 	mov	r1, #3
    84e8:	eb0000d0 	bl	8830 <Print>
    84ec:	e59f0124 	ldr	r0, [pc, #292]	; 8618 <okAct$+0x10>
    84f0:	e3a01080 	mov	r1, #128	; 0x80
    84f4:	eb000103 	bl	8908 <ReadLine>
    84f8:	e3300000 	teq	r0, #0
    84fc:	0a000026 	beq	859c <loopContinue$>
    8500:	e1a04000 	mov	r4, r0
    8504:	e59f510c 	ldr	r5, [pc, #268]	; 8618 <okAct$+0x10>
    8508:	e59f610c 	ldr	r6, [pc, #268]	; 861c <okAct$+0x14>
    850c:	e5967000 	ldr	r7, [r6]
    8510:	e5969004 	ldr	r9, [r6, #4]

00008514 <commandLoop$>:
    8514:	e5968008 	ldr	r8, [r6, #8]
    8518:	e0481007 	sub	r1, r8, r7
    851c:	e1510004 	cmp	r1, r4
    8520:	ca000010 	bgt	8568 <commandLoopContinue$>
    8524:	e3a00000 	mov	r0, #0

00008528 <commandName$>:
    8528:	e7d52000 	ldrb	r2, [r5, r0]
    852c:	e7d73000 	ldrb	r3, [r7, r0]
    8530:	e1320003 	teq	r2, r3
    8534:	1a00000b 	bne	8568 <commandLoopContinue$>
    8538:	e2800001 	add	r0, r0, #1
    853c:	e1300001 	teq	r0, r1
    8540:	1afffff8 	bne	8528 <commandName$>
    8544:	e7d52000 	ldrb	r2, [r5, r0]
    8548:	e3320000 	teq	r2, #0
    854c:	13320020 	teqne	r2, #32
    8550:	1a000004 	bne	8568 <commandLoopContinue$>
    8554:	e1a00005 	mov	r0, r5
    8558:	e1a01004 	mov	r1, r4
    855c:	e1a0e00f 	mov	lr, pc
    8560:	e1a0f009 	mov	pc, r9
    8564:	ea00000c 	b	859c <loopContinue$>

00008568 <commandLoopContinue$>:
    8568:	e2866008 	add	r6, r6, #8
    856c:	e1a07008 	mov	r7, r8
    8570:	e5969004 	ldr	r9, [r6, #4]
    8574:	e3390000 	teq	r9, #0
    8578:	1affffe5 	bne	8514 <commandLoop$>
    857c:	e59f009c 	ldr	r0, [pc, #156]	; 8620 <okAct$+0x18>
    8580:	e3a01021 	mov	r1, #33	; 0x21
    8584:	e59f2098 	ldr	r2, [pc, #152]	; 8624 <okAct$+0x1c>
    8588:	e59f3088 	ldr	r3, [pc, #136]	; 8618 <okAct$+0x10>
    858c:	eb0001b5 	bl	8c68 <FormatString>
    8590:	e1a01000 	mov	r1, r0
    8594:	e59f0088 	ldr	r0, [pc, #136]	; 8624 <okAct$+0x1c>
    8598:	eb0000a4 	bl	8830 <Print>

0000859c <loopContinue$>:
    859c:	eb000073 	bl	8770 <TerminalDisplay>
    85a0:	eaffffce 	b	84e0 <loop$>

000085a4 <echo>:
    85a4:	e3510005 	cmp	r1, #5
    85a8:	d1a0f00e 	movle	pc, lr
    85ac:	e2800005 	add	r0, r0, #5
    85b0:	e2411005 	sub	r1, r1, #5
    85b4:	ea00009d 	b	8830 <Print>

000085b8 <ok>:
    85b8:	e3310005 	teq	r1, #5
    85bc:	0a000002 	beq	85cc <okOn$>
    85c0:	e3310006 	teq	r1, #6
    85c4:	0a000007 	beq	85e8 <okOff$>
    85c8:	e1a0f00e 	mov	pc, lr

000085cc <okOn$>:
    85cc:	e5d02003 	ldrb	r2, [r0, #3]
    85d0:	e332006f 	teq	r2, #111	; 0x6f
    85d4:	05d02004 	ldrbeq	r2, [r0, #4]
    85d8:	0332006e 	teqeq	r2, #110	; 0x6e
    85dc:	11a0f00e 	movne	pc, lr
    85e0:	e3a01000 	mov	r1, #0
    85e4:	ea000007 	b	8608 <okAct$>

000085e8 <okOff$>:
    85e8:	e5d02003 	ldrb	r2, [r0, #3]
    85ec:	e332006f 	teq	r2, #111	; 0x6f
    85f0:	05d02004 	ldrbeq	r2, [r0, #4]
    85f4:	03320066 	teqeq	r2, #102	; 0x66
    85f8:	05d02005 	ldrbeq	r2, [r0, #5]
    85fc:	03320066 	teqeq	r2, #102	; 0x66
    8600:	11a0f00e 	movne	pc, lr
    8604:	e3a01001 	mov	r1, #1

00008608 <okAct$>:
    8608:	e3a00010 	mov	r0, #16
    860c:	eaffff1f 	b	8290 <SetGpio>
    8610:	00019718 	.word	0x00019718
    8614:	00019748 	.word	0x00019748
    8618:	0001974c 	.word	0x0001974c
    861c:	00019904 	.word	0x00019904
    8620:	000197d0 	.word	0x000197d0
    8624:	000197f4 	.word	0x000197f4

00008628 <DivideU32>:
    8628:	e16f2f11 	clz	r2, r1
    862c:	e16f3f10 	clz	r3, r0
    8630:	e0522003 	subs	r2, r2, r3
    8634:	e1a03211 	lsl	r3, r1, r2
    8638:	e1a01000 	mov	r1, r0
    863c:	e3a00000 	mov	r0, #0
    8640:	ba000009 	blt	866c <divideU32Return$>

00008644 <divideU32Loop$>:
    8644:	e1510003 	cmp	r1, r3
    8648:	ba000003 	blt	865c <divideU32LoopContinue$>
    864c:	e2800001 	add	r0, r0, #1
    8650:	e0511003 	subs	r1, r1, r3
    8654:	01a00210 	lsleq	r0, r0, r2
    8658:	0a000003 	beq	866c <divideU32Return$>

0000865c <divideU32LoopContinue$>:
    865c:	e2522001 	subs	r2, r2, #1
    8660:	a1a030a3 	lsrge	r3, r3, #1
    8664:	a1a00080 	lslge	r0, r0, #1
    8668:	aafffff5 	bge	8644 <divideU32Loop$>

0000866c <divideU32Return$>:
    866c:	e1a0f00e 	mov	pc, lr

00008670 <Random>:
    8670:	e3a01cef 	mov	r1, #61184	; 0xef00
    8674:	e0010190 	mul	r1, r0, r1
    8678:	e0010190 	mul	r1, r0, r1
    867c:	e0811000 	add	r1, r1, r0
    8680:	e2810049 	add	r0, r1, #73	; 0x49
    8684:	e1a0f00e 	mov	pc, lr

00008688 <GetTimerAddress>:
    8688:	e59f0034 	ldr	r0, [pc, #52]	; 86c4 <loop$+0x14>
    868c:	e1a0f00e 	mov	pc, lr

00008690 <GetTimeStamp>:
    8690:	e52de004 	push	{lr}		; (str lr, [sp, #-4]!)
    8694:	ebfffffb 	bl	8688 <GetTimerAddress>
    8698:	e1c000d4 	ldrd	r0, [r0, #4]
    869c:	e49df004 	pop	{pc}		; (ldr pc, [sp], #4)

000086a0 <TimerFunction>:
    86a0:	e1a03000 	mov	r3, r0
    86a4:	e52de004 	push	{lr}		; (str lr, [sp, #-4]!)
    86a8:	ebfffff8 	bl	8690 <GetTimeStamp>
    86ac:	e1a02000 	mov	r2, r0

000086b0 <loop$>:
    86b0:	ebfffff6 	bl	8690 <GetTimeStamp>
    86b4:	e0401002 	sub	r1, r0, r2
    86b8:	e1510003 	cmp	r1, r3
    86bc:	9afffffb 	bls	86b0 <loop$>
    86c0:	e49df004 	pop	{pc}		; (ldr pc, [sp], #4)
    86c4:	20003000 	.word	0x20003000

000086c8 <FindTag>:
    86c8:	e2400001 	sub	r0, r0, #1
    86cc:	e3500008 	cmp	r0, #8
    86d0:	83a00000 	movhi	r0, #0
    86d4:	81a0f00e 	movhi	pc, lr
    86d8:	e59f1054 	ldr	r1, [pc, #84]	; 8734 <tagLoop$+0x2c>

000086dc <tagReturn$>:
    86dc:	e0812100 	add	r2, r1, r0, lsl #2
    86e0:	e5922000 	ldr	r2, [r2]
    86e4:	e3320000 	teq	r2, #0
    86e8:	11a00002 	movne	r0, r2
    86ec:	11a0f00e 	movne	pc, lr
    86f0:	e5912000 	ldr	r2, [r1]
    86f4:	e3320000 	teq	r2, #0
    86f8:	13a00000 	movne	r0, #0
    86fc:	11a0f00e 	movne	pc, lr
    8700:	e3a02c01 	mov	r2, #256	; 0x100
    8704:	e52d4004 	push	{r4}		; (str r4, [sp, #-4]!)

00008708 <tagLoop$>:
    8708:	e1d230b4 	ldrh	r3, [r2, #4]
    870c:	e2533001 	subs	r3, r3, #1
    8710:	b49d4004 	poplt	{r4}		; (ldrlt r4, [sp], #4)
    8714:	bafffff0 	blt	86dc <tagReturn$>
    8718:	e0813103 	add	r3, r1, r3, lsl #2
    871c:	e5934000 	ldr	r4, [r3]
    8720:	e3340000 	teq	r4, #0
    8724:	05832000 	streq	r2, [r3]
    8728:	e5923000 	ldr	r3, [r2]
    872c:	e0822103 	add	r2, r2, r3, lsl #2
    8730:	eafffff4 	b	8708 <tagLoop$>
    8734:	0001992c 	.word	0x0001992c

00008738 <TerminalColour>:
    8738:	e3300006 	teq	r0, #6
    873c:	059f046c 	ldreq	r0, [pc, #1132]	; 8bb0 <wait1$+0x1bc>
    8740:	0afffe2f 	beq	8004 <SetForeColour>
    8744:	e3100008 	tst	r0, #8
    8748:	159f1464 	ldrne	r1, [pc, #1124]	; 8bb4 <wait1$+0x1c0>
    874c:	03a01000 	moveq	r1, #0
    8750:	e3100004 	tst	r0, #4
    8754:	12811015 	addne	r1, r1, #21
    8758:	e3100002 	tst	r0, #2
    875c:	12811d15 	addne	r1, r1, #1344	; 0x540
    8760:	e3100001 	tst	r0, #1
    8764:	12811b2a 	addne	r1, r1, #43008	; 0xa800
    8768:	e1a00001 	mov	r0, r1
    876c:	eafffe24 	b	8004 <SetForeColour>

00008770 <TerminalDisplay>:
    8770:	e92d4ff0 	push	{r4, r5, r6, r7, r8, r9, sl, fp, lr}
    8774:	e59f943c 	ldr	r9, [pc, #1084]	; 8bb8 <wait1$+0x1c4>
    8778:	e599a008 	ldr	sl, [r9, #8]
    877c:	e599b004 	ldr	fp, [r9, #4]
    8780:	e2899c01 	add	r9, r9, #256	; 0x100
    8784:	e2899902 	add	r9, r9, #32768	; 0x8000
    8788:	e1a08009 	mov	r8, r9
    878c:	e3a05000 	mov	r5, #0

00008790 <yLoop$>:
    8790:	e3a04000 	mov	r4, #0

00008794 <xLoop$>:
    8794:	e13a000b 	teq	sl, fp
    8798:	11da60b0 	ldrhne	r6, [sl]
    879c:	03a0607f 	moveq	r6, #127	; 0x7f
    87a0:	e1d870b0 	ldrh	r7, [r8]
    87a4:	e1370006 	teq	r7, r6
    87a8:	0a00000e 	beq	87e8 <xLoopContinue$>
    87ac:	e1c860b0 	strh	r6, [r8]
    87b0:	e1a07426 	lsr	r7, r6, #8
    87b4:	e206607f 	and	r6, r6, #127	; 0x7f
    87b8:	e1a00227 	lsr	r0, r7, #4
    87bc:	ebffffdd 	bl	8738 <TerminalColour>
    87c0:	e3a0007f 	mov	r0, #127	; 0x7f
    87c4:	e1a01004 	mov	r1, r4
    87c8:	e1a02005 	mov	r2, r5
    87cc:	ebfffe45 	bl	80e8 <DrawCharacter>
    87d0:	e207000f 	and	r0, r7, #15
    87d4:	ebffffd7 	bl	8738 <TerminalColour>
    87d8:	e1a00006 	mov	r0, r6
    87dc:	e1a01004 	mov	r1, r4
    87e0:	e1a02005 	mov	r2, r5
    87e4:	ebfffe3f 	bl	80e8 <DrawCharacter>

000087e8 <xLoopContinue$>:
    87e8:	e2888002 	add	r8, r8, #2
    87ec:	e13a000b 	teq	sl, fp
    87f0:	128aa002 	addne	sl, sl, #2
    87f4:	e13a0009 	teq	sl, r9
    87f8:	024aa902 	subeq	sl, sl, #32768	; 0x8000
    87fc:	e2844008 	add	r4, r4, #8
    8800:	e3340b01 	teq	r4, #1024	; 0x400
    8804:	1affffe2 	bne	8794 <xLoop$>
    8808:	e2855010 	add	r5, r5, #16
    880c:	e3350c03 	teq	r5, #768	; 0x300
    8810:	1affffde 	bne	8790 <yLoop$>
    8814:	e8bd8ff0 	pop	{r4, r5, r6, r7, r8, r9, sl, fp, pc}

00008818 <TerminalClear>:
    8818:	e59f0398 	ldr	r0, [pc, #920]	; 8bb8 <wait1$+0x1c4>
    881c:	e2801c01 	add	r1, r0, #256	; 0x100
    8820:	e5801000 	str	r1, [r0]
    8824:	e5801004 	str	r1, [r0, #4]
    8828:	e5801008 	str	r1, [r0, #8]
    882c:	e1a0f00e 	mov	pc, lr

00008830 <Print>:
    8830:	e3310000 	teq	r1, #0
    8834:	01a0f00e 	moveq	pc, lr
    8838:	e92d4ff0 	push	{r4, r5, r6, r7, r8, r9, sl, fp, lr}
    883c:	e1a07000 	mov	r7, r0
    8840:	e1a08001 	mov	r8, r1
    8844:	e59f536c 	ldr	r5, [pc, #876]	; 8bb8 <wait1$+0x1c4>
    8848:	e595a004 	ldr	sl, [r5, #4]
    884c:	e595b008 	ldr	fp, [r5, #8]
    8850:	e5954000 	ldr	r4, [r5]
    8854:	e2855c01 	add	r5, r5, #256	; 0x100
    8858:	e2855902 	add	r5, r5, #32768	; 0x8000
    885c:	e20a60fe 	and	r6, sl, #254	; 0xfe
    8860:	e1a060a6 	lsr	r6, r6, #1

00008864 <charLoop$>:
    8864:	e5d79000 	ldrb	r9, [r7]
    8868:	e209907f 	and	r9, r9, #127	; 0x7f
    886c:	e339000a 	teq	r9, #10
    8870:	1a000006 	bne	8890 <charNormal$>
    8874:	e3a0007f 	mov	r0, #127	; 0x7f

00008878 <clearLine$>:
    8878:	e1ca00b0 	strh	r0, [sl]
    887c:	e28aa002 	add	sl, sl, #2
    8880:	e2866001 	add	r6, r6, #1
    8884:	e3560080 	cmp	r6, #128	; 0x80
    8888:	bafffffa 	blt	8878 <clearLine$>
    888c:	ea000005 	b	88a8 <charLoopContinue$>

00008890 <charNormal$>:
    8890:	e5ca9000 	strb	r9, [sl]
    8894:	e59f0320 	ldr	r0, [pc, #800]	; 8bbc <wait1$+0x1c8>
    8898:	e5d00000 	ldrb	r0, [r0]
    889c:	e5ca0001 	strb	r0, [sl, #1]
    88a0:	e28aa002 	add	sl, sl, #2
    88a4:	e2866001 	add	r6, r6, #1

000088a8 <charLoopContinue$>:
    88a8:	e3560080 	cmp	r6, #128	; 0x80
    88ac:	ba000006 	blt	88cc <noScroll$>
    88b0:	e3a06000 	mov	r6, #0
    88b4:	e05a000b 	subs	r0, sl, fp
    88b8:	b2800902 	addlt	r0, r0, #32768	; 0x8000
    88bc:	e3500a03 	cmp	r0, #12288	; 0x3000
    88c0:	a28bbc01 	addge	fp, fp, #256	; 0x100
    88c4:	e13b0005 	teq	fp, r5
    88c8:	0245b902 	subeq	fp, r5, #32768	; 0x8000

000088cc <noScroll$>:
    88cc:	e13a0005 	teq	sl, r5
    88d0:	0245a902 	subeq	sl, r5, #32768	; 0x8000
    88d4:	e13a0004 	teq	sl, r4
    88d8:	02844c01 	addeq	r4, r4, #256	; 0x100
    88dc:	e1340005 	teq	r4, r5
    88e0:	02454902 	subeq	r4, r5, #32768	; 0x8000
    88e4:	e2588001 	subs	r8, r8, #1
    88e8:	e2877001 	add	r7, r7, #1
    88ec:	caffffdc 	bgt	8864 <charLoop$>

000088f0 <charLoopBreak$>:
    88f0:	e2455902 	sub	r5, r5, #32768	; 0x8000
    88f4:	e2455c01 	sub	r5, r5, #256	; 0x100
    88f8:	e585a004 	str	sl, [r5, #4]
    88fc:	e585b008 	str	fp, [r5, #8]
    8900:	e5854000 	str	r4, [r5]
    8904:	e8bd8ff0 	pop	{r4, r5, r6, r7, r8, r9, sl, fp, pc}

00008908 <ReadLine>:
    8908:	e3310000 	teq	r1, #0
    890c:	03a00000 	moveq	r0, #0
    8910:	01a0f00e 	moveq	pc, lr
    8914:	e92d43f0 	push	{r4, r5, r6, r7, r8, r9, lr}
    8918:	e1a04000 	mov	r4, r0
    891c:	e1a05001 	mov	r5, r1
    8920:	e59f7290 	ldr	r7, [pc, #656]	; 8bb8 <wait1$+0x1c4>
    8924:	e5976004 	ldr	r6, [r7, #4]
    8928:	e5979008 	ldr	r9, [r7, #8]
    892c:	e3a08000 	mov	r8, #0
    8930:	e3550a02 	cmp	r5, #8192	; 0x2000
    8934:	83a05a02 	movhi	r5, #8192	; 0x2000
    8938:	e2455001 	sub	r5, r5, #1
    893c:	e3a0005f 	mov	r0, #95	; 0x5f
    8940:	e7c40008 	strb	r0, [r4, r8]

00008944 <readLoop$>:
    8944:	e28aa001 	add	sl, sl, #1
    8948:	e33a0025 	teq	sl, #37	; 0x25
    894c:	03a0a001 	moveq	sl, #1
    8950:	e5876004 	str	r6, [r7, #4]
    8954:	e5879008 	str	r9, [r7, #8]
    8958:	e1a00004 	mov	r0, r4
    895c:	e1a01008 	mov	r1, r8
    8960:	e2811001 	add	r1, r1, #1
    8964:	ebffffb1 	bl	8830 <Print>
    8968:	ebffff80 	bl	8770 <TerminalDisplay>
    896c:	eb00001f 	bl	89f0 <HardCodeFunctions>
    8970:	e330000a 	teq	r0, #10
    8974:	0a000010 	beq	89bc <readLoopBreak$>
    8978:	e3300000 	teq	r0, #0
    897c:	0a000008 	beq	89a4 <cursor$>
    8980:	e3300008 	teq	r0, #8
    8984:	1a000002 	bne	8994 <standard$>

00008988 <delete$>:
    8988:	e3580000 	cmp	r8, #0
    898c:	c2488001 	subgt	r8, r8, #1
    8990:	ea000003 	b	89a4 <cursor$>

00008994 <standard$>:
    8994:	e1580005 	cmp	r8, r5
    8998:	aa000001 	bge	89a4 <cursor$>
    899c:	e7c40008 	strb	r0, [r4, r8]
    89a0:	e2888001 	add	r8, r8, #1

000089a4 <cursor$>:
    89a4:	e7d40008 	ldrb	r0, [r4, r8]
    89a8:	e330005f 	teq	r0, #95	; 0x5f
    89ac:	03a00020 	moveq	r0, #32
    89b0:	13a0005f 	movne	r0, #95	; 0x5f
    89b4:	e7c40008 	strb	r0, [r4, r8]
    89b8:	eaffffe1 	b	8944 <readLoop$>

000089bc <readLoopBreak$>:
    89bc:	e3a0000a 	mov	r0, #10
    89c0:	e7c40008 	strb	r0, [r4, r8]
    89c4:	e5876004 	str	r6, [r7, #4]
    89c8:	e5879008 	str	r9, [r7, #8]
    89cc:	e1a00004 	mov	r0, r4
    89d0:	e1a01008 	mov	r1, r8
    89d4:	e2811001 	add	r1, r1, #1
    89d8:	ebffff94 	bl	8830 <Print>
    89dc:	ebffff63 	bl	8770 <TerminalDisplay>
    89e0:	e3a00000 	mov	r0, #0
    89e4:	e7c40008 	strb	r0, [r4, r8]
    89e8:	e1a00008 	mov	r0, r8
    89ec:	e8bd83f0 	pop	{r4, r5, r6, r7, r8, r9, pc}

000089f0 <HardCodeFunctions>:
    89f0:	e3a0083f 	mov	r0, #4128768	; 0x3f0000

000089f4 <wait1$>:
    89f4:	e2400001 	sub	r0, r0, #1
    89f8:	e3500000 	cmp	r0, #0
    89fc:	1afffffc 	bne	89f4 <wait1$>
    8a00:	e33a0001 	teq	sl, #1
    8a04:	03a00065 	moveq	r0, #101	; 0x65
    8a08:	01a0f00e 	moveq	pc, lr
    8a0c:	e33a0002 	teq	sl, #2
    8a10:	03a00063 	moveq	r0, #99	; 0x63
    8a14:	01a0f00e 	moveq	pc, lr
    8a18:	e33a0003 	teq	sl, #3
    8a1c:	03a00068 	moveq	r0, #104	; 0x68
    8a20:	01a0f00e 	moveq	pc, lr
    8a24:	e33a0004 	teq	sl, #4
    8a28:	03a0006f 	moveq	r0, #111	; 0x6f
    8a2c:	01a0f00e 	moveq	pc, lr
    8a30:	e33a0005 	teq	sl, #5
    8a34:	03a00020 	moveq	r0, #32
    8a38:	01a0f00e 	moveq	pc, lr
    8a3c:	e33a0006 	teq	sl, #6
    8a40:	03a00048 	moveq	r0, #72	; 0x48
    8a44:	01a0f00e 	moveq	pc, lr
    8a48:	e33a0007 	teq	sl, #7
    8a4c:	03a00065 	moveq	r0, #101	; 0x65
    8a50:	01a0f00e 	moveq	pc, lr
    8a54:	e33a0008 	teq	sl, #8
    8a58:	03a0006c 	moveq	r0, #108	; 0x6c
    8a5c:	01a0f00e 	moveq	pc, lr
    8a60:	e33a0009 	teq	sl, #9
    8a64:	03a0006c 	moveq	r0, #108	; 0x6c
    8a68:	01a0f00e 	moveq	pc, lr
    8a6c:	e33a000a 	teq	sl, #10
    8a70:	03a0006f 	moveq	r0, #111	; 0x6f
    8a74:	01a0f00e 	moveq	pc, lr
    8a78:	e33a000b 	teq	sl, #11
    8a7c:	03a00020 	moveq	r0, #32
    8a80:	01a0f00e 	moveq	pc, lr
    8a84:	e33a000c 	teq	sl, #12
    8a88:	03a00057 	moveq	r0, #87	; 0x57
    8a8c:	01a0f00e 	moveq	pc, lr
    8a90:	e33a000d 	teq	sl, #13
    8a94:	03a0006f 	moveq	r0, #111	; 0x6f
    8a98:	01a0f00e 	moveq	pc, lr
    8a9c:	e33a000e 	teq	sl, #14
    8aa0:	03a00072 	moveq	r0, #114	; 0x72
    8aa4:	01a0f00e 	moveq	pc, lr
    8aa8:	e33a000f 	teq	sl, #15
    8aac:	03a0006c 	moveq	r0, #108	; 0x6c
    8ab0:	01a0f00e 	moveq	pc, lr
    8ab4:	e33a0010 	teq	sl, #16
    8ab8:	03a00064 	moveq	r0, #100	; 0x64
    8abc:	01a0f00e 	moveq	pc, lr
    8ac0:	e33a0011 	teq	sl, #17
    8ac4:	03a0000a 	moveq	r0, #10
    8ac8:	01a0f00e 	moveq	pc, lr
    8acc:	e33a0012 	teq	sl, #18
    8ad0:	03a0006f 	moveq	r0, #111	; 0x6f
    8ad4:	01a0f00e 	moveq	pc, lr
    8ad8:	e33a0013 	teq	sl, #19
    8adc:	03a0006b 	moveq	r0, #107	; 0x6b
    8ae0:	01a0f00e 	moveq	pc, lr
    8ae4:	e33a0014 	teq	sl, #20
    8ae8:	03a00020 	moveq	r0, #32
    8aec:	01a0f00e 	moveq	pc, lr
    8af0:	e33a0015 	teq	sl, #21
    8af4:	03a0006f 	moveq	r0, #111	; 0x6f
    8af8:	01a0f00e 	moveq	pc, lr
    8afc:	e33a0016 	teq	sl, #22
    8b00:	03a0006e 	moveq	r0, #110	; 0x6e
    8b04:	01a0f00e 	moveq	pc, lr
    8b08:	e33a0017 	teq	sl, #23
    8b0c:	03a0000a 	moveq	r0, #10
    8b10:	01a0f00e 	moveq	pc, lr
    8b14:	e33a0018 	teq	sl, #24
    8b18:	03a00063 	moveq	r0, #99	; 0x63
    8b1c:	01a0f00e 	moveq	pc, lr
    8b20:	e33a0019 	teq	sl, #25
    8b24:	03a0006c 	moveq	r0, #108	; 0x6c
    8b28:	01a0f00e 	moveq	pc, lr
    8b2c:	e33a001a 	teq	sl, #26
    8b30:	03a00073 	moveq	r0, #115	; 0x73
    8b34:	01a0f00e 	moveq	pc, lr
    8b38:	e33a001b 	teq	sl, #27
    8b3c:	03a0000a 	moveq	r0, #10
    8b40:	01a0f00e 	moveq	pc, lr
    8b44:	e33a001c 	teq	sl, #28
    8b48:	03a0000a 	moveq	r0, #10
    8b4c:	01a0f00e 	moveq	pc, lr
    8b50:	e33a001d 	teq	sl, #29
    8b54:	03a0000a 	moveq	r0, #10
    8b58:	01a0f00e 	moveq	pc, lr
    8b5c:	e33a001e 	teq	sl, #30
    8b60:	03a0006f 	moveq	r0, #111	; 0x6f
    8b64:	01a0f00e 	moveq	pc, lr
    8b68:	e33a001f 	teq	sl, #31
    8b6c:	03a0006b 	moveq	r0, #107	; 0x6b
    8b70:	01a0f00e 	moveq	pc, lr
    8b74:	e33a0020 	teq	sl, #32
    8b78:	03a00020 	moveq	r0, #32
    8b7c:	01a0f00e 	moveq	pc, lr
    8b80:	e33a0021 	teq	sl, #33	; 0x21
    8b84:	03a0006f 	moveq	r0, #111	; 0x6f
    8b88:	01a0f00e 	moveq	pc, lr
    8b8c:	e33a0022 	teq	sl, #34	; 0x22
    8b90:	03a00066 	moveq	r0, #102	; 0x66
    8b94:	01a0f00e 	moveq	pc, lr
    8b98:	e33a0023 	teq	sl, #35	; 0x23
    8b9c:	03a00066 	moveq	r0, #102	; 0x66
    8ba0:	01a0f00e 	moveq	pc, lr
    8ba4:	e33a0024 	teq	sl, #36	; 0x24
    8ba8:	03a0000a 	moveq	r0, #10
    8bac:	01a0f00e 	moveq	pc, lr
    8bb0:	000002b5 	.word	0x000002b5
    8bb4:	000052aa 	.word	0x000052aa
    8bb8:	00019a00 	.word	0x00019a00
    8bbc:	00019a0c 	.word	0x00019a0c

00008bc0 <ReverseString>:
    8bc0:	e0811000 	add	r1, r1, r0
    8bc4:	e2411001 	sub	r1, r1, #1

00008bc8 <revLoop$>:
    8bc8:	e1510000 	cmp	r1, r0
    8bcc:	91a0f00e 	movls	pc, lr
    8bd0:	e5d02000 	ldrb	r2, [r0]
    8bd4:	e5d13000 	ldrb	r3, [r1]
    8bd8:	e5c03000 	strb	r3, [r0]
    8bdc:	e5c12000 	strb	r2, [r1]
    8be0:	e2800001 	add	r0, r0, #1
    8be4:	e2411001 	sub	r1, r1, #1
    8be8:	eafffff6 	b	8bc8 <revLoop$>

00008bec <UnsignedString>:
    8bec:	e92d40f0 	push	{r4, r5, r6, r7, lr}
    8bf0:	e1a05001 	mov	r5, r1
    8bf4:	e1a06002 	mov	r6, r2
    8bf8:	e3a07000 	mov	r7, #0

00008bfc <charLoop$>:
    8bfc:	e1a01006 	mov	r1, r6
    8c00:	ebfffe88 	bl	8628 <DivideU32>
    8c04:	e3510009 	cmp	r1, #9
    8c08:	92811030 	addls	r1, r1, #48	; 0x30
    8c0c:	82811057 	addhi	r1, r1, #87	; 0x57
    8c10:	e3350000 	teq	r5, #0
    8c14:	17c51007 	strbne	r1, [r5, r7]
    8c18:	e2877001 	add	r7, r7, #1
    8c1c:	e3300000 	teq	r0, #0
    8c20:	1afffff5 	bne	8bfc <charLoop$>
    8c24:	e3350000 	teq	r5, #0
    8c28:	11a00005 	movne	r0, r5
    8c2c:	11a01007 	movne	r1, r7
    8c30:	1bffffe2 	blne	8bc0 <ReverseString>
    8c34:	e1a00007 	mov	r0, r7
    8c38:	e8bd80f0 	pop	{r4, r5, r6, r7, pc}

00008c3c <SignedString>:
    8c3c:	e3500000 	cmp	r0, #0
    8c40:	aaffffe9 	bge	8bec <UnsignedString>
    8c44:	e2600000 	rsb	r0, r0, #0
    8c48:	e3310000 	teq	r1, #0
    8c4c:	13a0302d 	movne	r3, #45	; 0x2d
    8c50:	15c13000 	strbne	r3, [r1]
    8c54:	12811001 	addne	r1, r1, #1
    8c58:	e52de004 	push	{lr}		; (str lr, [sp, #-4]!)
    8c5c:	ebffffe2 	bl	8bec <UnsignedString>
    8c60:	e2800001 	add	r0, r0, #1
    8c64:	e49df004 	pop	{pc}		; (ldr pc, [sp], #4)

00008c68 <FormatString>:
    8c68:	e92d43f0 	push	{r4, r5, r6, r7, r8, r9, lr}
    8c6c:	e1a04000 	mov	r4, r0
    8c70:	e1a05001 	mov	r5, r1
    8c74:	e1a06002 	mov	r6, r2
    8c78:	e1a07003 	mov	r7, r3
    8c7c:	e28d801c 	add	r8, sp, #28
    8c80:	e3a09000 	mov	r9, #0

00008c84 <formatLoop$>:
    8c84:	e2555001 	subs	r5, r5, #1
    8c88:	b1a00009 	movlt	r0, r9
    8c8c:	b8bd83f0 	poplt	{r4, r5, r6, r7, r8, r9, pc}
    8c90:	e5d40000 	ldrb	r0, [r4]
    8c94:	e2844001 	add	r4, r4, #1
    8c98:	e3300025 	teq	r0, #37	; 0x25
    8c9c:	0a000004 	beq	8cb4 <formatArg$>

00008ca0 <formatChar$>:
    8ca0:	e3360000 	teq	r6, #0
    8ca4:	15c60000 	strbne	r0, [r6]
    8ca8:	12866001 	addne	r6, r6, #1
    8cac:	e2899001 	add	r9, r9, #1
    8cb0:	eafffff3 	b	8c84 <formatLoop$>

00008cb4 <formatArg$>:
    8cb4:	e2555001 	subs	r5, r5, #1
    8cb8:	b1a00009 	movlt	r0, r9
    8cbc:	b8bd83f0 	poplt	{r4, r5, r6, r7, r8, r9, pc}
    8cc0:	e5d40000 	ldrb	r0, [r4]
    8cc4:	e2844001 	add	r4, r4, #1
    8cc8:	e3300025 	teq	r0, #37	; 0x25
    8ccc:	0afffff3 	beq	8ca0 <formatChar$>
    8cd0:	e3300063 	teq	r0, #99	; 0x63
    8cd4:	01a00007 	moveq	r0, r7
    8cd8:	05987000 	ldreq	r7, [r8]
    8cdc:	02888004 	addeq	r8, r8, #4
    8ce0:	0affffee 	beq	8ca0 <formatChar$>
    8ce4:	e3300073 	teq	r0, #115	; 0x73
    8ce8:	0a000007 	beq	8d0c <formatString$>
    8cec:	e3300064 	teq	r0, #100	; 0x64
    8cf0:	0a000010 	beq	8d38 <formatSigned$>
    8cf4:	e3300075 	teq	r0, #117	; 0x75
    8cf8:	13300078 	teqne	r0, #120	; 0x78
    8cfc:	13300062 	teqne	r0, #98	; 0x62
    8d00:	1330006f 	teqne	r0, #111	; 0x6f
    8d04:	0a000015 	beq	8d60 <formatUnsigned$>
    8d08:	eaffffdd 	b	8c84 <formatLoop$>

00008d0c <formatString$>:
    8d0c:	e5d70000 	ldrb	r0, [r7]
    8d10:	e3300000 	teq	r0, #0
    8d14:	05987000 	ldreq	r7, [r8]
    8d18:	02888004 	addeq	r8, r8, #4
    8d1c:	0affffd8 	beq	8c84 <formatLoop$>
    8d20:	e2899001 	add	r9, r9, #1
    8d24:	e3360000 	teq	r6, #0
    8d28:	15c60000 	strbne	r0, [r6]
    8d2c:	12866001 	addne	r6, r6, #1
    8d30:	e2877001 	add	r7, r7, #1
    8d34:	eafffff4 	b	8d0c <formatString$>

00008d38 <formatSigned$>:
    8d38:	e1a00007 	mov	r0, r7
    8d3c:	e5987000 	ldr	r7, [r8]
    8d40:	e2888004 	add	r8, r8, #4
    8d44:	e1a01006 	mov	r1, r6
    8d48:	e3a0200a 	mov	r2, #10
    8d4c:	ebffffba 	bl	8c3c <SignedString>
    8d50:	e3360000 	teq	r6, #0
    8d54:	10866000 	addne	r6, r6, r0
    8d58:	e0899000 	add	r9, r9, r0
    8d5c:	eaffffc8 	b	8c84 <formatLoop$>

00008d60 <formatUnsigned$>:
    8d60:	e3300075 	teq	r0, #117	; 0x75
    8d64:	03a0200a 	moveq	r2, #10
    8d68:	e3300078 	teq	r0, #120	; 0x78
    8d6c:	03a02010 	moveq	r2, #16
    8d70:	e3300062 	teq	r0, #98	; 0x62
    8d74:	03a02002 	moveq	r2, #2
    8d78:	e330006f 	teq	r0, #111	; 0x6f
    8d7c:	03a02008 	moveq	r2, #8
    8d80:	e1a00007 	mov	r0, r7
    8d84:	e5987000 	ldr	r7, [r8]
    8d88:	e2888004 	add	r8, r8, #4
    8d8c:	e1a01006 	mov	r1, r6
    8d90:	ebffff95 	bl	8bec <UnsignedString>
    8d94:	e3360000 	teq	r6, #0
    8d98:	10866000 	addne	r6, r6, r0
    8d9c:	e0899000 	add	r9, r9, r0
    8da0:	eaffffb7 	b	8c84 <formatLoop$>

00008da4 <KbdLoad>:
    8da4:	e52db004 	push	{fp}		; (str fp, [sp, #-4]!)
    8da8:	e28db000 	add	fp, sp, #0
    8dac:	e24dd00c 	sub	sp, sp, #12
    8db0:	e59f3064 	ldr	r3, [pc, #100]	; 8e1c <KbdLoad+0x78>
    8db4:	e3a02000 	mov	r2, #0
    8db8:	e5832000 	str	r2, [r3]
    8dbc:	e3a03000 	mov	r3, #0
    8dc0:	e50b3008 	str	r3, [fp, #-8]
    8dc4:	ea00000a 	b	8df4 <KbdLoad+0x50>
    8dc8:	e59f2050 	ldr	r2, [pc, #80]	; 8e20 <KbdLoad+0x7c>
    8dcc:	e51b3008 	ldr	r3, [fp, #-8]
    8dd0:	e3a01000 	mov	r1, #0
    8dd4:	e7821103 	str	r1, [r2, r3, lsl #2]
    8dd8:	e59f2044 	ldr	r2, [pc, #68]	; 8e24 <KbdLoad+0x80>
    8ddc:	e51b3008 	ldr	r3, [fp, #-8]
    8de0:	e3a01000 	mov	r1, #0
    8de4:	e7821103 	str	r1, [r2, r3, lsl #2]
    8de8:	e51b3008 	ldr	r3, [fp, #-8]
    8dec:	e2833001 	add	r3, r3, #1
    8df0:	e50b3008 	str	r3, [fp, #-8]
    8df4:	e51b3008 	ldr	r3, [fp, #-8]
    8df8:	e3530003 	cmp	r3, #3
    8dfc:	9afffff1 	bls	8dc8 <KbdLoad+0x24>
    8e00:	e59f3020 	ldr	r3, [pc, #32]	; 8e28 <KbdLoad+0x84>
    8e04:	e59f2020 	ldr	r2, [pc, #32]	; 8e2c <KbdLoad+0x88>
    8e08:	e5832018 	str	r2, [r3, #24]
    8e0c:	e1a00000 	nop			; (mov r0, r0)
    8e10:	e24bd000 	sub	sp, fp, #0
    8e14:	e49db004 	pop	{fp}		; (ldr fp, [sp], #4)
    8e18:	e12fff1e 	bx	lr
    8e1c:	00024b68 	.word	0x00024b68
    8e20:	00024b6c 	.word	0x00024b6c
    8e24:	00024b7c 	.word	0x00024b7c
    8e28:	00029858 	.word	0x00029858
    8e2c:	00009180 	.word	0x00009180

00008e30 <KeyboardIndex>:
    8e30:	e52db004 	push	{fp}		; (str fp, [sp, #-4]!)
    8e34:	e28db000 	add	fp, sp, #0
    8e38:	e24dd014 	sub	sp, sp, #20
    8e3c:	e50b0010 	str	r0, [fp, #-16]
    8e40:	e51b3010 	ldr	r3, [fp, #-16]
    8e44:	e3530000 	cmp	r3, #0
    8e48:	1a000001 	bne	8e54 <KeyboardIndex+0x24>
    8e4c:	e3e03000 	mvn	r3, #0
    8e50:	ea000013 	b	8ea4 <KeyboardIndex+0x74>
    8e54:	e3a03000 	mov	r3, #0
    8e58:	e50b3008 	str	r3, [fp, #-8]
    8e5c:	ea00000a 	b	8e8c <KeyboardIndex+0x5c>
    8e60:	e59f204c 	ldr	r2, [pc, #76]	; 8eb4 <KeyboardIndex+0x84>
    8e64:	e51b3008 	ldr	r3, [fp, #-8]
    8e68:	e7922103 	ldr	r2, [r2, r3, lsl #2]
    8e6c:	e51b3010 	ldr	r3, [fp, #-16]
    8e70:	e1520003 	cmp	r2, r3
    8e74:	1a000001 	bne	8e80 <KeyboardIndex+0x50>
    8e78:	e51b3008 	ldr	r3, [fp, #-8]
    8e7c:	ea000008 	b	8ea4 <KeyboardIndex+0x74>
    8e80:	e51b3008 	ldr	r3, [fp, #-8]
    8e84:	e2833001 	add	r3, r3, #1
    8e88:	e50b3008 	str	r3, [fp, #-8]
    8e8c:	e59f3024 	ldr	r3, [pc, #36]	; 8eb8 <KeyboardIndex+0x88>
    8e90:	e5933000 	ldr	r3, [r3]
    8e94:	e51b2008 	ldr	r2, [fp, #-8]
    8e98:	e1520003 	cmp	r2, r3
    8e9c:	3affffef 	bcc	8e60 <KeyboardIndex+0x30>
    8ea0:	e3e03000 	mvn	r3, #0
    8ea4:	e1a00003 	mov	r0, r3
    8ea8:	e24bd000 	sub	sp, fp, #0
    8eac:	e49db004 	pop	{fp}		; (ldr fp, [sp], #4)
    8eb0:	e12fff1e 	bx	lr
    8eb4:	00024b6c 	.word	0x00024b6c
    8eb8:	00024b68 	.word	0x00024b68

00008ebc <KeyboardGetAddress>:
    8ebc:	e52db004 	push	{fp}		; (str fp, [sp, #-4]!)
    8ec0:	e28db000 	add	fp, sp, #0
    8ec4:	e24dd014 	sub	sp, sp, #20
    8ec8:	e50b0010 	str	r0, [fp, #-16]
    8ecc:	e59f3084 	ldr	r3, [pc, #132]	; 8f58 <KeyboardGetAddress+0x9c>
    8ed0:	e5933000 	ldr	r3, [r3]
    8ed4:	e51b2010 	ldr	r2, [fp, #-16]
    8ed8:	e1520003 	cmp	r2, r3
    8edc:	9a000001 	bls	8ee8 <KeyboardGetAddress+0x2c>
    8ee0:	e3a03000 	mov	r3, #0
    8ee4:	ea000017 	b	8f48 <KeyboardGetAddress+0x8c>
    8ee8:	e3a03000 	mov	r3, #0
    8eec:	e50b3008 	str	r3, [fp, #-8]
    8ef0:	ea000010 	b	8f38 <KeyboardGetAddress+0x7c>
    8ef4:	e59f2060 	ldr	r2, [pc, #96]	; 8f5c <KeyboardGetAddress+0xa0>
    8ef8:	e51b3008 	ldr	r3, [fp, #-8]
    8efc:	e7923103 	ldr	r3, [r2, r3, lsl #2]
    8f00:	e3530000 	cmp	r3, #0
    8f04:	0a000008 	beq	8f2c <KeyboardGetAddress+0x70>
    8f08:	e51b3010 	ldr	r3, [fp, #-16]
    8f0c:	e2432001 	sub	r2, r3, #1
    8f10:	e50b2010 	str	r2, [fp, #-16]
    8f14:	e3530000 	cmp	r3, #0
    8f18:	1a000003 	bne	8f2c <KeyboardGetAddress+0x70>
    8f1c:	e59f2038 	ldr	r2, [pc, #56]	; 8f5c <KeyboardGetAddress+0xa0>
    8f20:	e51b3008 	ldr	r3, [fp, #-8]
    8f24:	e7923103 	ldr	r3, [r2, r3, lsl #2]
    8f28:	ea000006 	b	8f48 <KeyboardGetAddress+0x8c>
    8f2c:	e51b3008 	ldr	r3, [fp, #-8]
    8f30:	e2833001 	add	r3, r3, #1
    8f34:	e50b3008 	str	r3, [fp, #-8]
    8f38:	e51b3008 	ldr	r3, [fp, #-8]
    8f3c:	e3530003 	cmp	r3, #3
    8f40:	9affffeb 	bls	8ef4 <KeyboardGetAddress+0x38>
    8f44:	e3a03000 	mov	r3, #0
    8f48:	e1a00003 	mov	r0, r3
    8f4c:	e24bd000 	sub	sp, fp, #0
    8f50:	e49db004 	pop	{fp}		; (ldr fp, [sp], #4)
    8f54:	e12fff1e 	bx	lr
    8f58:	00024b68 	.word	0x00024b68
    8f5c:	00024b6c 	.word	0x00024b6c

00008f60 <KeyboardDetached>:
    8f60:	e52db004 	push	{fp}		; (str fp, [sp, #-4]!)
    8f64:	e28db000 	add	fp, sp, #0
    8f68:	e24dd014 	sub	sp, sp, #20
    8f6c:	e50b0010 	str	r0, [fp, #-16]
    8f70:	e51b3010 	ldr	r3, [fp, #-16]
    8f74:	e5933414 	ldr	r3, [r3, #1044]	; 0x414
    8f78:	e5d32010 	ldrb	r2, [r3, #16]
    8f7c:	e5d31011 	ldrb	r1, [r3, #17]
    8f80:	e1a01401 	lsl	r1, r1, #8
    8f84:	e1812002 	orr	r2, r1, r2
    8f88:	e5d31012 	ldrb	r1, [r3, #18]
    8f8c:	e1a01801 	lsl	r1, r1, #16
    8f90:	e1812002 	orr	r2, r1, r2
    8f94:	e5d33013 	ldrb	r3, [r3, #19]
    8f98:	e1a03c03 	lsl	r3, r3, #24
    8f9c:	e1833002 	orr	r3, r3, r2
    8fa0:	e50b3008 	str	r3, [fp, #-8]
    8fa4:	e51b3008 	ldr	r3, [fp, #-8]
    8fa8:	e3530000 	cmp	r3, #0
    8fac:	0a000034 	beq	9084 <KeyboardDetached+0x124>
    8fb0:	e51b3008 	ldr	r3, [fp, #-8]
    8fb4:	e5d32008 	ldrb	r2, [r3, #8]
    8fb8:	e5d31009 	ldrb	r1, [r3, #9]
    8fbc:	e1a01401 	lsl	r1, r1, #8
    8fc0:	e1812002 	orr	r2, r1, r2
    8fc4:	e5d3100a 	ldrb	r1, [r3, #10]
    8fc8:	e1a01801 	lsl	r1, r1, #16
    8fcc:	e1812002 	orr	r2, r1, r2
    8fd0:	e5d3300b 	ldrb	r3, [r3, #11]
    8fd4:	e1a03c03 	lsl	r3, r3, #24
    8fd8:	e1833002 	orr	r3, r3, r2
    8fdc:	e1a02003 	mov	r2, r3
    8fe0:	e59f30ac 	ldr	r3, [pc, #172]	; 9094 <KeyboardDetached+0x134>
    8fe4:	e7932102 	ldr	r2, [r3, r2, lsl #2]
    8fe8:	e51b3010 	ldr	r3, [fp, #-16]
    8fec:	e5933000 	ldr	r3, [r3]
    8ff0:	e1520003 	cmp	r2, r3
    8ff4:	1a000022 	bne	9084 <KeyboardDetached+0x124>
    8ff8:	e51b3008 	ldr	r3, [fp, #-8]
    8ffc:	e5d32008 	ldrb	r2, [r3, #8]
    9000:	e5d31009 	ldrb	r1, [r3, #9]
    9004:	e1a01401 	lsl	r1, r1, #8
    9008:	e1812002 	orr	r2, r1, r2
    900c:	e5d3100a 	ldrb	r1, [r3, #10]
    9010:	e1a01801 	lsl	r1, r1, #16
    9014:	e1812002 	orr	r2, r1, r2
    9018:	e5d3300b 	ldrb	r3, [r3, #11]
    901c:	e1a03c03 	lsl	r3, r3, #24
    9020:	e1833002 	orr	r3, r3, r2
    9024:	e1a01003 	mov	r1, r3
    9028:	e59f3064 	ldr	r3, [pc, #100]	; 9094 <KeyboardDetached+0x134>
    902c:	e3a02000 	mov	r2, #0
    9030:	e7832101 	str	r2, [r3, r1, lsl #2]
    9034:	e59f305c 	ldr	r3, [pc, #92]	; 9098 <KeyboardDetached+0x138>
    9038:	e5933000 	ldr	r3, [r3]
    903c:	e2433001 	sub	r3, r3, #1
    9040:	e59f2050 	ldr	r2, [pc, #80]	; 9098 <KeyboardDetached+0x138>
    9044:	e5823000 	str	r3, [r2]
    9048:	e51b3008 	ldr	r3, [fp, #-8]
    904c:	e5d32008 	ldrb	r2, [r3, #8]
    9050:	e5d31009 	ldrb	r1, [r3, #9]
    9054:	e1a01401 	lsl	r1, r1, #8
    9058:	e1812002 	orr	r2, r1, r2
    905c:	e5d3100a 	ldrb	r1, [r3, #10]
    9060:	e1a01801 	lsl	r1, r1, #16
    9064:	e1812002 	orr	r2, r1, r2
    9068:	e5d3300b 	ldrb	r3, [r3, #11]
    906c:	e1a03c03 	lsl	r3, r3, #24
    9070:	e1833002 	orr	r3, r3, r2
    9074:	e1a01003 	mov	r1, r3
    9078:	e59f301c 	ldr	r3, [pc, #28]	; 909c <KeyboardDetached+0x13c>
    907c:	e3a02000 	mov	r2, #0
    9080:	e7832101 	str	r2, [r3, r1, lsl #2]
    9084:	e1a00000 	nop			; (mov r0, r0)
    9088:	e24bd000 	sub	sp, fp, #0
    908c:	e49db004 	pop	{fp}		; (ldr fp, [sp], #4)
    9090:	e12fff1e 	bx	lr
    9094:	00024b6c 	.word	0x00024b6c
    9098:	00024b68 	.word	0x00024b68
    909c:	00024b7c 	.word	0x00024b7c

000090a0 <KeyboardDeallocate>:
    90a0:	e92d4800 	push	{fp, lr}
    90a4:	e28db004 	add	fp, sp, #4
    90a8:	e24dd010 	sub	sp, sp, #16
    90ac:	e50b0010 	str	r0, [fp, #-16]
    90b0:	e51b3010 	ldr	r3, [fp, #-16]
    90b4:	e5933414 	ldr	r3, [r3, #1044]	; 0x414
    90b8:	e5d32010 	ldrb	r2, [r3, #16]
    90bc:	e5d31011 	ldrb	r1, [r3, #17]
    90c0:	e1a01401 	lsl	r1, r1, #8
    90c4:	e1812002 	orr	r2, r1, r2
    90c8:	e5d31012 	ldrb	r1, [r3, #18]
    90cc:	e1a01801 	lsl	r1, r1, #16
    90d0:	e1812002 	orr	r2, r1, r2
    90d4:	e5d33013 	ldrb	r3, [r3, #19]
    90d8:	e1a03c03 	lsl	r3, r3, #24
    90dc:	e1833002 	orr	r3, r3, r2
    90e0:	e50b3008 	str	r3, [fp, #-8]
    90e4:	e51b3008 	ldr	r3, [fp, #-8]
    90e8:	e3530000 	cmp	r3, #0
    90ec:	0a00000b 	beq	9120 <KeyboardDeallocate+0x80>
    90f0:	e51b0008 	ldr	r0, [fp, #-8]
    90f4:	eb000a2c 	bl	b9ac <MemoryDeallocate>
    90f8:	e51b3010 	ldr	r3, [fp, #-16]
    90fc:	e5933414 	ldr	r3, [r3, #1044]	; 0x414
    9100:	e3a02000 	mov	r2, #0
    9104:	e5c32010 	strb	r2, [r3, #16]
    9108:	e3a02000 	mov	r2, #0
    910c:	e5c32011 	strb	r2, [r3, #17]
    9110:	e3a02000 	mov	r2, #0
    9114:	e5c32012 	strb	r2, [r3, #18]
    9118:	e3a02000 	mov	r2, #0
    911c:	e5c32013 	strb	r2, [r3, #19]
    9120:	e51b3010 	ldr	r3, [fp, #-16]
    9124:	e5933414 	ldr	r3, [r3, #1044]	; 0x414
    9128:	e3a02000 	mov	r2, #0
    912c:	e5c32018 	strb	r2, [r3, #24]
    9130:	e3a02000 	mov	r2, #0
    9134:	e5c32019 	strb	r2, [r3, #25]
    9138:	e3a02000 	mov	r2, #0
    913c:	e5c3201a 	strb	r2, [r3, #26]
    9140:	e3a02000 	mov	r2, #0
    9144:	e5c3201b 	strb	r2, [r3, #27]
    9148:	e51b3010 	ldr	r3, [fp, #-16]
    914c:	e5933414 	ldr	r3, [r3, #1044]	; 0x414
    9150:	e3a02000 	mov	r2, #0
    9154:	e5c32014 	strb	r2, [r3, #20]
    9158:	e3a02000 	mov	r2, #0
    915c:	e5c32015 	strb	r2, [r3, #21]
    9160:	e3a02000 	mov	r2, #0
    9164:	e5c32016 	strb	r2, [r3, #22]
    9168:	e3a02000 	mov	r2, #0
    916c:	e5c32017 	strb	r2, [r3, #23]
    9170:	e1a00000 	nop			; (mov r0, r0)
    9174:	e24bd004 	sub	sp, fp, #4
    9178:	e8bd4800 	pop	{fp, lr}
    917c:	e12fff1e 	bx	lr

00009180 <KeyboardAttach>:
    9180:	e92d4800 	push	{fp, lr}
    9184:	e28db004 	add	fp, sp, #4
    9188:	e24dd038 	sub	sp, sp, #56	; 0x38
    918c:	e50b0038 	str	r0, [fp, #-56]	; 0xffffffc8
    9190:	e50b103c 	str	r1, [fp, #-60]	; 0xffffffc4
    9194:	e59f3f0c 	ldr	r3, [pc, #3852]	; a0a8 <KeyboardAttach+0xf28>
    9198:	e5933000 	ldr	r3, [r3]
    919c:	e3530004 	cmp	r3, #4
    91a0:	1a000001 	bne	91ac <KeyboardAttach+0x2c>
    91a4:	e3e03004 	mvn	r3, #4
    91a8:	ea0003ba 	b	a098 <KeyboardAttach+0xf18>
    91ac:	e51b3038 	ldr	r3, [fp, #-56]	; 0xffffffc8
    91b0:	e5933414 	ldr	r3, [r3, #1044]	; 0x414
    91b4:	e50b3028 	str	r3, [fp, #-40]	; 0xffffffd8
    91b8:	e51b3028 	ldr	r3, [fp, #-40]	; 0xffffffd8
    91bc:	e5d32000 	ldrb	r2, [r3]
    91c0:	e5d31001 	ldrb	r1, [r3, #1]
    91c4:	e1a01401 	lsl	r1, r1, #8
    91c8:	e1812002 	orr	r2, r1, r2
    91cc:	e5d31002 	ldrb	r1, [r3, #2]
    91d0:	e1a01801 	lsl	r1, r1, #16
    91d4:	e1812002 	orr	r2, r1, r2
    91d8:	e5d33003 	ldrb	r3, [r3, #3]
    91dc:	e1a03c03 	lsl	r3, r3, #24
    91e0:	e1833002 	orr	r3, r3, r2
    91e4:	e1a02003 	mov	r2, r3
    91e8:	e59f3ebc 	ldr	r3, [pc, #3772]	; a0ac <KeyboardAttach+0xf2c>
    91ec:	e1520003 	cmp	r2, r3
    91f0:	0a000001 	beq	91fc <KeyboardAttach+0x7c>
    91f4:	e3e03004 	mvn	r3, #4
    91f8:	ea0003a6 	b	a098 <KeyboardAttach+0xf18>
    91fc:	e51b3028 	ldr	r3, [fp, #-40]	; 0xffffffd8
    9200:	e5d3200c 	ldrb	r2, [r3, #12]
    9204:	e5d3100d 	ldrb	r1, [r3, #13]
    9208:	e1a01401 	lsl	r1, r1, #8
    920c:	e1812002 	orr	r2, r1, r2
    9210:	e5d3100e 	ldrb	r1, [r3, #14]
    9214:	e1a01801 	lsl	r1, r1, #16
    9218:	e1812002 	orr	r2, r1, r2
    921c:	e5d3300f 	ldrb	r3, [r3, #15]
    9220:	e1a03c03 	lsl	r3, r3, #24
    9224:	e1833002 	orr	r3, r3, r2
    9228:	e50b302c 	str	r3, [fp, #-44]	; 0xffffffd4
    922c:	e51b302c 	ldr	r3, [fp, #-44]	; 0xffffffd4
    9230:	e1d330b2 	ldrh	r3, [r3, #2]
    9234:	e3530001 	cmp	r3, #1
    9238:	0a000003 	beq	924c <KeyboardAttach+0xcc>
    923c:	e51b302c 	ldr	r3, [fp, #-44]	; 0xffffffd4
    9240:	e1d330b2 	ldrh	r3, [r3, #2]
    9244:	e3530000 	cmp	r3, #0
    9248:	1a000003 	bne	925c <KeyboardAttach+0xdc>
    924c:	e51b302c 	ldr	r3, [fp, #-44]	; 0xffffffd4
    9250:	e1d330b0 	ldrh	r3, [r3]
    9254:	e3530006 	cmp	r3, #6
    9258:	0a000001 	beq	9264 <KeyboardAttach+0xe4>
    925c:	e3e03004 	mvn	r3, #4
    9260:	ea00038c 	b	a098 <KeyboardAttach+0xf18>
    9264:	e51b302c 	ldr	r3, [fp, #-44]	; 0xffffffd4
    9268:	e5d33004 	ldrb	r3, [r3, #4]
    926c:	e3530000 	cmp	r3, #0
    9270:	1a000001 	bne	927c <KeyboardAttach+0xfc>
    9274:	e3e03004 	mvn	r3, #4
    9278:	ea000386 	b	a098 <KeyboardAttach+0xf18>
    927c:	e51b3028 	ldr	r3, [fp, #-40]	; 0xffffffd8
    9280:	e59f2e28 	ldr	r2, [pc, #3624]	; a0b0 <KeyboardAttach+0xf30>
    9284:	e20210ff 	and	r1, r2, #255	; 0xff
    9288:	e3a00000 	mov	r0, #0
    928c:	e1801001 	orr	r1, r0, r1
    9290:	e5c31014 	strb	r1, [r3, #20]
    9294:	e1a01422 	lsr	r1, r2, #8
    9298:	e20110ff 	and	r1, r1, #255	; 0xff
    929c:	e3a00000 	mov	r0, #0
    92a0:	e1801001 	orr	r1, r0, r1
    92a4:	e5c31015 	strb	r1, [r3, #21]
    92a8:	e1a01822 	lsr	r1, r2, #16
    92ac:	e20110ff 	and	r1, r1, #255	; 0xff
    92b0:	e3a00000 	mov	r0, #0
    92b4:	e1801001 	orr	r1, r0, r1
    92b8:	e5c31016 	strb	r1, [r3, #22]
    92bc:	e1a02c22 	lsr	r2, r2, #24
    92c0:	e3a01000 	mov	r1, #0
    92c4:	e1812002 	orr	r2, r1, r2
    92c8:	e5c32017 	strb	r2, [r3, #23]
    92cc:	e51b3028 	ldr	r3, [fp, #-40]	; 0xffffffd8
    92d0:	e59f2ddc 	ldr	r2, [pc, #3548]	; a0b4 <KeyboardAttach+0xf34>
    92d4:	e20210ff 	and	r1, r2, #255	; 0xff
    92d8:	e3a00000 	mov	r0, #0
    92dc:	e1801001 	orr	r1, r0, r1
    92e0:	e5c31018 	strb	r1, [r3, #24]
    92e4:	e1a01422 	lsr	r1, r2, #8
    92e8:	e20110ff 	and	r1, r1, #255	; 0xff
    92ec:	e3a00000 	mov	r0, #0
    92f0:	e1801001 	orr	r1, r0, r1
    92f4:	e5c31019 	strb	r1, [r3, #25]
    92f8:	e1a01822 	lsr	r1, r2, #16
    92fc:	e20110ff 	and	r1, r1, #255	; 0xff
    9300:	e3a00000 	mov	r0, #0
    9304:	e1801001 	orr	r1, r0, r1
    9308:	e5c3101a 	strb	r1, [r3, #26]
    930c:	e1a02c22 	lsr	r2, r2, #24
    9310:	e3a01000 	mov	r1, #0
    9314:	e1812002 	orr	r2, r1, r2
    9318:	e5c3201b 	strb	r2, [r3, #27]
    931c:	e3a0006a 	mov	r0, #106	; 0x6a
    9320:	eb000737 	bl	b004 <MemoryAllocate>
    9324:	e1a02000 	mov	r2, r0
    9328:	e51b3028 	ldr	r3, [fp, #-40]	; 0xffffffd8
    932c:	e20210ff 	and	r1, r2, #255	; 0xff
    9330:	e3a00000 	mov	r0, #0
    9334:	e1801001 	orr	r1, r0, r1
    9338:	e5c31010 	strb	r1, [r3, #16]
    933c:	e1a01422 	lsr	r1, r2, #8
    9340:	e20110ff 	and	r1, r1, #255	; 0xff
    9344:	e3a00000 	mov	r0, #0
    9348:	e1801001 	orr	r1, r0, r1
    934c:	e5c31011 	strb	r1, [r3, #17]
    9350:	e1a01822 	lsr	r1, r2, #16
    9354:	e20110ff 	and	r1, r1, #255	; 0xff
    9358:	e3a00000 	mov	r0, #0
    935c:	e1801001 	orr	r1, r0, r1
    9360:	e5c31012 	strb	r1, [r3, #18]
    9364:	e1a02c22 	lsr	r2, r2, #24
    9368:	e3a01000 	mov	r1, #0
    936c:	e1812002 	orr	r2, r1, r2
    9370:	e5c32013 	strb	r2, [r3, #19]
    9374:	e51b3028 	ldr	r3, [fp, #-40]	; 0xffffffd8
    9378:	e5d32010 	ldrb	r2, [r3, #16]
    937c:	e5d31011 	ldrb	r1, [r3, #17]
    9380:	e1a01401 	lsl	r1, r1, #8
    9384:	e1812002 	orr	r2, r1, r2
    9388:	e5d31012 	ldrb	r1, [r3, #18]
    938c:	e1a01801 	lsl	r1, r1, #16
    9390:	e1812002 	orr	r2, r1, r2
    9394:	e5d33013 	ldrb	r3, [r3, #19]
    9398:	e1a03c03 	lsl	r3, r3, #24
    939c:	e1833002 	orr	r3, r3, r2
    93a0:	e3530000 	cmp	r3, #0
    93a4:	1a000001 	bne	93b0 <KeyboardAttach+0x230>
    93a8:	e3e03006 	mvn	r3, #6
    93ac:	ea000339 	b	a098 <KeyboardAttach+0xf18>
    93b0:	e51b3028 	ldr	r3, [fp, #-40]	; 0xffffffd8
    93b4:	e5d32010 	ldrb	r2, [r3, #16]
    93b8:	e5d31011 	ldrb	r1, [r3, #17]
    93bc:	e1a01401 	lsl	r1, r1, #8
    93c0:	e1812002 	orr	r2, r1, r2
    93c4:	e5d31012 	ldrb	r1, [r3, #18]
    93c8:	e1a01801 	lsl	r1, r1, #16
    93cc:	e1812002 	orr	r2, r1, r2
    93d0:	e5d33013 	ldrb	r3, [r3, #19]
    93d4:	e1a03c03 	lsl	r3, r3, #24
    93d8:	e1833002 	orr	r3, r3, r2
    93dc:	e50b3030 	str	r3, [fp, #-48]	; 0xffffffd0
    93e0:	e51b3030 	ldr	r3, [fp, #-48]	; 0xffffffd0
    93e4:	e3a02000 	mov	r2, #0
    93e8:	e3822030 	orr	r2, r2, #48	; 0x30
    93ec:	e5c32000 	strb	r2, [r3]
    93f0:	e3a02000 	mov	r2, #0
    93f4:	e3822044 	orr	r2, r2, #68	; 0x44
    93f8:	e5c32001 	strb	r2, [r3, #1]
    93fc:	e3a02000 	mov	r2, #0
    9400:	e3822042 	orr	r2, r2, #66	; 0x42
    9404:	e5c32002 	strb	r2, [r3, #2]
    9408:	e3a02000 	mov	r2, #0
    940c:	e382204b 	orr	r2, r2, #75	; 0x4b
    9410:	e5c32003 	strb	r2, [r3, #3]
    9414:	e51b3030 	ldr	r3, [fp, #-48]	; 0xffffffd0
    9418:	e3a02000 	mov	r2, #0
    941c:	e382206a 	orr	r2, r2, #106	; 0x6a
    9420:	e5c32004 	strb	r2, [r3, #4]
    9424:	e3a02000 	mov	r2, #0
    9428:	e5c32005 	strb	r2, [r3, #5]
    942c:	e3a02000 	mov	r2, #0
    9430:	e5c32006 	strb	r2, [r3, #6]
    9434:	e3a02000 	mov	r2, #0
    9438:	e5c32007 	strb	r2, [r3, #7]
    943c:	e3e03000 	mvn	r3, #0
    9440:	e50b3008 	str	r3, [fp, #-8]
    9444:	e51b3030 	ldr	r3, [fp, #-48]	; 0xffffffd0
    9448:	e55b2008 	ldrb	r2, [fp, #-8]
    944c:	e3a01000 	mov	r1, #0
    9450:	e1812002 	orr	r2, r1, r2
    9454:	e5c32008 	strb	r2, [r3, #8]
    9458:	e55b2007 	ldrb	r2, [fp, #-7]
    945c:	e3a01000 	mov	r1, #0
    9460:	e1812002 	orr	r2, r1, r2
    9464:	e5c32009 	strb	r2, [r3, #9]
    9468:	e55b2006 	ldrb	r2, [fp, #-6]
    946c:	e3a01000 	mov	r1, #0
    9470:	e1812002 	orr	r2, r1, r2
    9474:	e5c3200a 	strb	r2, [r3, #10]
    9478:	e55b2005 	ldrb	r2, [fp, #-5]
    947c:	e3a01000 	mov	r1, #0
    9480:	e1812002 	orr	r2, r1, r2
    9484:	e5c3200b 	strb	r2, [r3, #11]
    9488:	e3a03000 	mov	r3, #0
    948c:	e50b300c 	str	r3, [fp, #-12]
    9490:	ea000025 	b	952c <KeyboardAttach+0x3ac>
    9494:	e59f2c1c 	ldr	r2, [pc, #3100]	; a0b8 <KeyboardAttach+0xf38>
    9498:	e51b300c 	ldr	r3, [fp, #-12]
    949c:	e7923103 	ldr	r3, [r2, r3, lsl #2]
    94a0:	e3530000 	cmp	r3, #0
    94a4:	1a00001d 	bne	9520 <KeyboardAttach+0x3a0>
    94a8:	e51b300c 	ldr	r3, [fp, #-12]
    94ac:	e50b3008 	str	r3, [fp, #-8]
    94b0:	e51b3030 	ldr	r3, [fp, #-48]	; 0xffffffd0
    94b4:	e55b2008 	ldrb	r2, [fp, #-8]
    94b8:	e3a01000 	mov	r1, #0
    94bc:	e1812002 	orr	r2, r1, r2
    94c0:	e5c32008 	strb	r2, [r3, #8]
    94c4:	e55b2007 	ldrb	r2, [fp, #-7]
    94c8:	e3a01000 	mov	r1, #0
    94cc:	e1812002 	orr	r2, r1, r2
    94d0:	e5c32009 	strb	r2, [r3, #9]
    94d4:	e55b2006 	ldrb	r2, [fp, #-6]
    94d8:	e3a01000 	mov	r1, #0
    94dc:	e1812002 	orr	r2, r1, r2
    94e0:	e5c3200a 	strb	r2, [r3, #10]
    94e4:	e55b2005 	ldrb	r2, [fp, #-5]
    94e8:	e3a01000 	mov	r1, #0
    94ec:	e1812002 	orr	r2, r1, r2
    94f0:	e5c3200b 	strb	r2, [r3, #11]
    94f4:	e51b3038 	ldr	r3, [fp, #-56]	; 0xffffffc8
    94f8:	e5932000 	ldr	r2, [r3]
    94fc:	e59f1bb4 	ldr	r1, [pc, #2996]	; a0b8 <KeyboardAttach+0xf38>
    9500:	e51b300c 	ldr	r3, [fp, #-12]
    9504:	e7812103 	str	r2, [r1, r3, lsl #2]
    9508:	e59f3b98 	ldr	r3, [pc, #2968]	; a0a8 <KeyboardAttach+0xf28>
    950c:	e5933000 	ldr	r3, [r3]
    9510:	e2833001 	add	r3, r3, #1
    9514:	e59f2b8c 	ldr	r2, [pc, #2956]	; a0a8 <KeyboardAttach+0xf28>
    9518:	e5823000 	str	r3, [r2]
    951c:	ea000005 	b	9538 <KeyboardAttach+0x3b8>
    9520:	e51b300c 	ldr	r3, [fp, #-12]
    9524:	e2833001 	add	r3, r3, #1
    9528:	e50b300c 	str	r3, [fp, #-12]
    952c:	e51b300c 	ldr	r3, [fp, #-12]
    9530:	e3530003 	cmp	r3, #3
    9534:	9affffd6 	bls	9494 <KeyboardAttach+0x314>
    9538:	e51b3008 	ldr	r3, [fp, #-8]
    953c:	e3730001 	cmn	r3, #1
    9540:	1a000003 	bne	9554 <KeyboardAttach+0x3d4>
    9544:	e51b0038 	ldr	r0, [fp, #-56]	; 0xffffffc8
    9548:	ebfffed4 	bl	90a0 <KeyboardDeallocate>
    954c:	e3e03000 	mvn	r3, #0
    9550:	ea0002d0 	b	a098 <KeyboardAttach+0xf18>
    9554:	e59f1b60 	ldr	r1, [pc, #2912]	; a0bc <KeyboardAttach+0xf3c>
    9558:	e51b3008 	ldr	r3, [fp, #-8]
    955c:	e51b2038 	ldr	r2, [fp, #-56]	; 0xffffffc8
    9560:	e7812103 	str	r2, [r1, r3, lsl #2]
    9564:	e3a03000 	mov	r3, #0
    9568:	e50b3010 	str	r3, [fp, #-16]
    956c:	ea00000b 	b	95a0 <KeyboardAttach+0x420>
    9570:	e51b2030 	ldr	r2, [fp, #-48]	; 0xffffffd0
    9574:	e51b3010 	ldr	r3, [fp, #-16]
    9578:	e2833008 	add	r3, r3, #8
    957c:	e1a03083 	lsl	r3, r3, #1
    9580:	e0823003 	add	r3, r2, r3
    9584:	e3a02000 	mov	r2, #0
    9588:	e5c32000 	strb	r2, [r3]
    958c:	e3a02000 	mov	r2, #0
    9590:	e5c32001 	strb	r2, [r3, #1]
    9594:	e51b3010 	ldr	r3, [fp, #-16]
    9598:	e2833001 	add	r3, r3, #1
    959c:	e50b3010 	str	r3, [fp, #-16]
    95a0:	e51b3010 	ldr	r3, [fp, #-16]
    95a4:	e3530005 	cmp	r3, #5
    95a8:	9afffff0 	bls	9570 <KeyboardAttach+0x3f0>
    95ac:	e51b3030 	ldr	r3, [fp, #-48]	; 0xffffffd0
    95b0:	e283301c 	add	r3, r3, #28
    95b4:	e3a02000 	mov	r2, #0
    95b8:	e5c32000 	strb	r2, [r3]
    95bc:	e51b3030 	ldr	r3, [fp, #-48]	; 0xffffffd0
    95c0:	e283301d 	add	r3, r3, #29
    95c4:	e3a02000 	mov	r2, #0
    95c8:	e5c32000 	strb	r2, [r3]
    95cc:	e3a03000 	mov	r3, #0
    95d0:	e50b3014 	str	r3, [fp, #-20]	; 0xffffffec
    95d4:	ea00000f 	b	9618 <KeyboardAttach+0x498>
    95d8:	e51b2030 	ldr	r2, [fp, #-48]	; 0xffffffd0
    95dc:	e51b3014 	ldr	r3, [fp, #-20]	; 0xffffffec
    95e0:	e283300e 	add	r3, r3, #14
    95e4:	e1a03103 	lsl	r3, r3, #2
    95e8:	e0823003 	add	r3, r2, r3
    95ec:	e3a02000 	mov	r2, #0
    95f0:	e5c32006 	strb	r2, [r3, #6]
    95f4:	e3a02000 	mov	r2, #0
    95f8:	e5c32007 	strb	r2, [r3, #7]
    95fc:	e3a02000 	mov	r2, #0
    9600:	e5c32008 	strb	r2, [r3, #8]
    9604:	e3a02000 	mov	r2, #0
    9608:	e5c32009 	strb	r2, [r3, #9]
    960c:	e51b3014 	ldr	r3, [fp, #-20]	; 0xffffffec
    9610:	e2833001 	add	r3, r3, #1
    9614:	e50b3014 	str	r3, [fp, #-20]	; 0xffffffec
    9618:	e51b3014 	ldr	r3, [fp, #-20]	; 0xffffffec
    961c:	e3530008 	cmp	r3, #8
    9620:	9affffec 	bls	95d8 <KeyboardAttach+0x458>
    9624:	e3a03000 	mov	r3, #0
    9628:	e50b3018 	str	r3, [fp, #-24]	; 0xffffffe8
    962c:	ea00000f 	b	9670 <KeyboardAttach+0x4f0>
    9630:	e51b2030 	ldr	r2, [fp, #-48]	; 0xffffffd0
    9634:	e51b3018 	ldr	r3, [fp, #-24]	; 0xffffffe8
    9638:	e2833006 	add	r3, r3, #6
    963c:	e1a03103 	lsl	r3, r3, #2
    9640:	e0823003 	add	r3, r2, r3
    9644:	e3a02000 	mov	r2, #0
    9648:	e5c32006 	strb	r2, [r3, #6]
    964c:	e3a02000 	mov	r2, #0
    9650:	e5c32007 	strb	r2, [r3, #7]
    9654:	e3a02000 	mov	r2, #0
    9658:	e5c32008 	strb	r2, [r3, #8]
    965c:	e3a02000 	mov	r2, #0
    9660:	e5c32009 	strb	r2, [r3, #9]
    9664:	e51b3018 	ldr	r3, [fp, #-24]	; 0xffffffe8
    9668:	e2833001 	add	r3, r3, #1
    966c:	e50b3018 	str	r3, [fp, #-24]	; 0xffffffe8
    9670:	e51b3018 	ldr	r3, [fp, #-24]	; 0xffffffe8
    9674:	e3530007 	cmp	r3, #7
    9678:	9affffec 	bls	9630 <KeyboardAttach+0x4b0>
    967c:	e51b3030 	ldr	r3, [fp, #-48]	; 0xffffffd0
    9680:	e3a02000 	mov	r2, #0
    9684:	e5c32062 	strb	r2, [r3, #98]	; 0x62
    9688:	e3a02000 	mov	r2, #0
    968c:	e5c32063 	strb	r2, [r3, #99]	; 0x63
    9690:	e3a02000 	mov	r2, #0
    9694:	e5c32064 	strb	r2, [r3, #100]	; 0x64
    9698:	e3a02000 	mov	r2, #0
    969c:	e5c32065 	strb	r2, [r3, #101]	; 0x65
    96a0:	e51b3030 	ldr	r3, [fp, #-48]	; 0xffffffd0
    96a4:	e3a02000 	mov	r2, #0
    96a8:	e5c32066 	strb	r2, [r3, #102]	; 0x66
    96ac:	e3a02000 	mov	r2, #0
    96b0:	e5c32067 	strb	r2, [r3, #103]	; 0x67
    96b4:	e3a02000 	mov	r2, #0
    96b8:	e5c32068 	strb	r2, [r3, #104]	; 0x68
    96bc:	e3a02000 	mov	r2, #0
    96c0:	e5c32069 	strb	r2, [r3, #105]	; 0x69
    96c4:	e3a03000 	mov	r3, #0
    96c8:	e50b301c 	str	r3, [fp, #-28]	; 0xffffffe4
    96cc:	ea00026a 	b	a07c <KeyboardAttach+0xefc>
    96d0:	e51b302c 	ldr	r3, [fp, #-44]	; 0xffffffd4
    96d4:	e51b201c 	ldr	r2, [fp, #-28]	; 0xffffffe4
    96d8:	e2822002 	add	r2, r2, #2
    96dc:	e7933102 	ldr	r3, [r3, r2, lsl #2]
    96e0:	e5d33003 	ldrb	r3, [r3, #3]
    96e4:	e3530001 	cmp	r3, #1
    96e8:	1a0000ca 	bne	9a18 <KeyboardAttach+0x898>
    96ec:	e51b3030 	ldr	r3, [fp, #-48]	; 0xffffffd0
    96f0:	e5d32066 	ldrb	r2, [r3, #102]	; 0x66
    96f4:	e5d31067 	ldrb	r1, [r3, #103]	; 0x67
    96f8:	e1a01401 	lsl	r1, r1, #8
    96fc:	e1812002 	orr	r2, r1, r2
    9700:	e5d31068 	ldrb	r1, [r3, #104]	; 0x68
    9704:	e1a01801 	lsl	r1, r1, #16
    9708:	e1812002 	orr	r2, r1, r2
    970c:	e5d33069 	ldrb	r3, [r3, #105]	; 0x69
    9710:	e1a03c03 	lsl	r3, r3, #24
    9714:	e1833002 	orr	r3, r3, r2
    9718:	e3530000 	cmp	r3, #0
    971c:	1a0000bd 	bne	9a18 <KeyboardAttach+0x898>
    9720:	e51b302c 	ldr	r3, [fp, #-44]	; 0xffffffd4
    9724:	e51b201c 	ldr	r2, [fp, #-28]	; 0xffffffe4
    9728:	e2822002 	add	r2, r2, #2
    972c:	e7932102 	ldr	r2, [r3, r2, lsl #2]
    9730:	e51b3030 	ldr	r3, [fp, #-48]	; 0xffffffd0
    9734:	e20210ff 	and	r1, r2, #255	; 0xff
    9738:	e3a00000 	mov	r0, #0
    973c:	e1801001 	orr	r1, r0, r1
    9740:	e5c31066 	strb	r1, [r3, #102]	; 0x66
    9744:	e1a01422 	lsr	r1, r2, #8
    9748:	e20110ff 	and	r1, r1, #255	; 0xff
    974c:	e3a00000 	mov	r0, #0
    9750:	e1801001 	orr	r1, r0, r1
    9754:	e5c31067 	strb	r1, [r3, #103]	; 0x67
    9758:	e1a01822 	lsr	r1, r2, #16
    975c:	e20110ff 	and	r1, r1, #255	; 0xff
    9760:	e3a00000 	mov	r0, #0
    9764:	e1801001 	orr	r1, r0, r1
    9768:	e5c31068 	strb	r1, [r3, #104]	; 0x68
    976c:	e1a02c22 	lsr	r2, r2, #24
    9770:	e3a01000 	mov	r1, #0
    9774:	e1812002 	orr	r2, r1, r2
    9778:	e5c32069 	strb	r2, [r3, #105]	; 0x69
    977c:	e3a03000 	mov	r3, #0
    9780:	e50b3020 	str	r3, [fp, #-32]	; 0xffffffe0
    9784:	ea000099 	b	99f0 <KeyboardAttach+0x870>
    9788:	e51b302c 	ldr	r3, [fp, #-44]	; 0xffffffd4
    978c:	e51b201c 	ldr	r2, [fp, #-28]	; 0xffffffe4
    9790:	e2822002 	add	r2, r2, #2
    9794:	e7931102 	ldr	r1, [r3, r2, lsl #2]
    9798:	e51b2020 	ldr	r2, [fp, #-32]	; 0xffffffe0
    979c:	e1a03002 	mov	r3, r2
    97a0:	e1a03103 	lsl	r3, r3, #2
    97a4:	e0833002 	add	r3, r3, r2
    97a8:	e1a03083 	lsl	r3, r3, #1
    97ac:	e0833002 	add	r3, r3, r2
    97b0:	e1a03103 	lsl	r3, r3, #2
    97b4:	e0813003 	add	r3, r1, r3
    97b8:	e2833010 	add	r3, r3, #16
    97bc:	e1d330b6 	ldrh	r3, [r3, #6]
    97c0:	e3530007 	cmp	r3, #7
    97c4:	0a00000f 	beq	9808 <KeyboardAttach+0x688>
    97c8:	e51b302c 	ldr	r3, [fp, #-44]	; 0xffffffd4
    97cc:	e51b201c 	ldr	r2, [fp, #-28]	; 0xffffffe4
    97d0:	e2822002 	add	r2, r2, #2
    97d4:	e7931102 	ldr	r1, [r3, r2, lsl #2]
    97d8:	e51b2020 	ldr	r2, [fp, #-32]	; 0xffffffe0
    97dc:	e1a03002 	mov	r3, r2
    97e0:	e1a03103 	lsl	r3, r3, #2
    97e4:	e0833002 	add	r3, r3, r2
    97e8:	e1a03083 	lsl	r3, r3, #1
    97ec:	e0833002 	add	r3, r3, r2
    97f0:	e1a03103 	lsl	r3, r3, #2
    97f4:	e0813003 	add	r3, r1, r3
    97f8:	e2833010 	add	r3, r3, #16
    97fc:	e1d330b6 	ldrh	r3, [r3, #6]
    9800:	e3530000 	cmp	r3, #0
    9804:	1a000076 	bne	99e4 <KeyboardAttach+0x864>
    9808:	e51b302c 	ldr	r3, [fp, #-44]	; 0xffffffd4
    980c:	e51b201c 	ldr	r2, [fp, #-28]	; 0xffffffe4
    9810:	e2822002 	add	r2, r2, #2
    9814:	e7931102 	ldr	r1, [r3, r2, lsl #2]
    9818:	e51b2020 	ldr	r2, [fp, #-32]	; 0xffffffe0
    981c:	e1a03002 	mov	r3, r2
    9820:	e1a03103 	lsl	r3, r3, #2
    9824:	e0833002 	add	r3, r3, r2
    9828:	e1a03083 	lsl	r3, r3, #1
    982c:	e0833002 	add	r3, r3, r2
    9830:	e1a03103 	lsl	r3, r3, #2
    9834:	e0813003 	add	r3, r1, r3
    9838:	e2833008 	add	r3, r3, #8
    983c:	e5d33008 	ldrb	r3, [r3, #8]
    9840:	e1a030a3 	lsr	r3, r3, #1
    9844:	e2033001 	and	r3, r3, #1
    9848:	e20330ff 	and	r3, r3, #255	; 0xff
    984c:	e3530000 	cmp	r3, #0
    9850:	0a000042 	beq	9960 <KeyboardAttach+0x7e0>
    9854:	e51b302c 	ldr	r3, [fp, #-44]	; 0xffffffd4
    9858:	e51b201c 	ldr	r2, [fp, #-28]	; 0xffffffe4
    985c:	e2822002 	add	r2, r2, #2
    9860:	e7931102 	ldr	r1, [r3, r2, lsl #2]
    9864:	e51b2020 	ldr	r2, [fp, #-32]	; 0xffffffe0
    9868:	e1a03002 	mov	r3, r2
    986c:	e1a03103 	lsl	r3, r3, #2
    9870:	e0833002 	add	r3, r3, r2
    9874:	e1a03083 	lsl	r3, r3, #1
    9878:	e0833002 	add	r3, r3, r2
    987c:	e1a03103 	lsl	r3, r3, #2
    9880:	e0813003 	add	r3, r1, r3
    9884:	e2833010 	add	r3, r3, #16
    9888:	e1d330b4 	ldrh	r3, [r3, #4]
    988c:	e35300df 	cmp	r3, #223	; 0xdf
    9890:	e51b302c 	ldr	r3, [fp, #-44]	; 0xffffffd4
    9894:	e51b201c 	ldr	r2, [fp, #-28]	; 0xffffffe4
    9898:	e2822002 	add	r2, r2, #2
    989c:	e7931102 	ldr	r1, [r3, r2, lsl #2]
    98a0:	e51b2020 	ldr	r2, [fp, #-32]	; 0xffffffe0
    98a4:	e1a03002 	mov	r3, r2
    98a8:	e1a03103 	lsl	r3, r3, #2
    98ac:	e0833002 	add	r3, r3, r2
    98b0:	e1a03083 	lsl	r3, r3, #1
    98b4:	e0833002 	add	r3, r3, r2
    98b8:	e1a03103 	lsl	r3, r3, #2
    98bc:	e0813003 	add	r3, r1, r3
    98c0:	e2833010 	add	r3, r3, #16
    98c4:	e1d330b4 	ldrh	r3, [r3, #4]
    98c8:	e24300e0 	sub	r0, r3, #224	; 0xe0
    98cc:	e51b302c 	ldr	r3, [fp, #-44]	; 0xffffffd4
    98d0:	e51b201c 	ldr	r2, [fp, #-28]	; 0xffffffe4
    98d4:	e2822002 	add	r2, r2, #2
    98d8:	e7931102 	ldr	r1, [r3, r2, lsl #2]
    98dc:	e51b2020 	ldr	r2, [fp, #-32]	; 0xffffffe0
    98e0:	e1a03002 	mov	r3, r2
    98e4:	e1a03103 	lsl	r3, r3, #2
    98e8:	e0833002 	add	r3, r3, r2
    98ec:	e1a03083 	lsl	r3, r3, #1
    98f0:	e0833002 	add	r3, r3, r2
    98f4:	e1a03103 	lsl	r3, r3, #2
    98f8:	e2833008 	add	r3, r3, #8
    98fc:	e0813003 	add	r3, r1, r3
    9900:	e2832004 	add	r2, r3, #4
    9904:	e51b1030 	ldr	r1, [fp, #-48]	; 0xffffffd0
    9908:	e280300e 	add	r3, r0, #14
    990c:	e1a03103 	lsl	r3, r3, #2
    9910:	e0813003 	add	r3, r1, r3
    9914:	e20210ff 	and	r1, r2, #255	; 0xff
    9918:	e3a00000 	mov	r0, #0
    991c:	e1801001 	orr	r1, r0, r1
    9920:	e5c31006 	strb	r1, [r3, #6]
    9924:	e1a01422 	lsr	r1, r2, #8
    9928:	e20110ff 	and	r1, r1, #255	; 0xff
    992c:	e3a00000 	mov	r0, #0
    9930:	e1801001 	orr	r1, r0, r1
    9934:	e5c31007 	strb	r1, [r3, #7]
    9938:	e1a01822 	lsr	r1, r2, #16
    993c:	e20110ff 	and	r1, r1, #255	; 0xff
    9940:	e3a00000 	mov	r0, #0
    9944:	e1801001 	orr	r1, r0, r1
    9948:	e5c31008 	strb	r1, [r3, #8]
    994c:	e1a02c22 	lsr	r2, r2, #24
    9950:	e3a01000 	mov	r1, #0
    9954:	e1812002 	orr	r2, r1, r2
    9958:	e5c32009 	strb	r2, [r3, #9]
    995c:	ea000020 	b	99e4 <KeyboardAttach+0x864>
    9960:	e51b302c 	ldr	r3, [fp, #-44]	; 0xffffffd4
    9964:	e51b201c 	ldr	r2, [fp, #-28]	; 0xffffffe4
    9968:	e2822002 	add	r2, r2, #2
    996c:	e7931102 	ldr	r1, [r3, r2, lsl #2]
    9970:	e51b2020 	ldr	r2, [fp, #-32]	; 0xffffffe0
    9974:	e1a03002 	mov	r3, r2
    9978:	e1a03103 	lsl	r3, r3, #2
    997c:	e0833002 	add	r3, r3, r2
    9980:	e1a03083 	lsl	r3, r3, #1
    9984:	e0833002 	add	r3, r3, r2
    9988:	e1a03103 	lsl	r3, r3, #2
    998c:	e2833008 	add	r3, r3, #8
    9990:	e0813003 	add	r3, r1, r3
    9994:	e2832004 	add	r2, r3, #4
    9998:	e51b3030 	ldr	r3, [fp, #-48]	; 0xffffffd0
    999c:	e20210ff 	and	r1, r2, #255	; 0xff
    99a0:	e3a00000 	mov	r0, #0
    99a4:	e1801001 	orr	r1, r0, r1
    99a8:	e5c3105e 	strb	r1, [r3, #94]	; 0x5e
    99ac:	e1a01422 	lsr	r1, r2, #8
    99b0:	e20110ff 	and	r1, r1, #255	; 0xff
    99b4:	e3a00000 	mov	r0, #0
    99b8:	e1801001 	orr	r1, r0, r1
    99bc:	e5c3105f 	strb	r1, [r3, #95]	; 0x5f
    99c0:	e1a01822 	lsr	r1, r2, #16
    99c4:	e20110ff 	and	r1, r1, #255	; 0xff
    99c8:	e3a00000 	mov	r0, #0
    99cc:	e1801001 	orr	r1, r0, r1
    99d0:	e5c31060 	strb	r1, [r3, #96]	; 0x60
    99d4:	e1a02c22 	lsr	r2, r2, #24
    99d8:	e3a01000 	mov	r1, #0
    99dc:	e1812002 	orr	r2, r1, r2
    99e0:	e5c32061 	strb	r2, [r3, #97]	; 0x61
    99e4:	e51b3020 	ldr	r3, [fp, #-32]	; 0xffffffe0
    99e8:	e2833001 	add	r3, r3, #1
    99ec:	e50b3020 	str	r3, [fp, #-32]	; 0xffffffe0
    99f0:	e51b302c 	ldr	r3, [fp, #-44]	; 0xffffffd4
    99f4:	e51b201c 	ldr	r2, [fp, #-28]	; 0xffffffe4
    99f8:	e2822002 	add	r2, r2, #2
    99fc:	e7933102 	ldr	r3, [r3, r2, lsl #2]
    9a00:	e5d33001 	ldrb	r3, [r3, #1]
    9a04:	e1a02003 	mov	r2, r3
    9a08:	e51b3020 	ldr	r3, [fp, #-32]	; 0xffffffe0
    9a0c:	e1520003 	cmp	r2, r3
    9a10:	8affff5c 	bhi	9788 <KeyboardAttach+0x608>
    9a14:	ea000195 	b	a070 <KeyboardAttach+0xef0>
    9a18:	e51b302c 	ldr	r3, [fp, #-44]	; 0xffffffd4
    9a1c:	e51b201c 	ldr	r2, [fp, #-28]	; 0xffffffe4
    9a20:	e2822002 	add	r2, r2, #2
    9a24:	e7933102 	ldr	r3, [r3, r2, lsl #2]
    9a28:	e5d33003 	ldrb	r3, [r3, #3]
    9a2c:	e3530002 	cmp	r3, #2
    9a30:	1a00018e 	bne	a070 <KeyboardAttach+0xef0>
    9a34:	e51b3030 	ldr	r3, [fp, #-48]	; 0xffffffd0
    9a38:	e5d32062 	ldrb	r2, [r3, #98]	; 0x62
    9a3c:	e5d31063 	ldrb	r1, [r3, #99]	; 0x63
    9a40:	e1a01401 	lsl	r1, r1, #8
    9a44:	e1812002 	orr	r2, r1, r2
    9a48:	e5d31064 	ldrb	r1, [r3, #100]	; 0x64
    9a4c:	e1a01801 	lsl	r1, r1, #16
    9a50:	e1812002 	orr	r2, r1, r2
    9a54:	e5d33065 	ldrb	r3, [r3, #101]	; 0x65
    9a58:	e1a03c03 	lsl	r3, r3, #24
    9a5c:	e1833002 	orr	r3, r3, r2
    9a60:	e3530000 	cmp	r3, #0
    9a64:	1a000181 	bne	a070 <KeyboardAttach+0xef0>
    9a68:	e51b302c 	ldr	r3, [fp, #-44]	; 0xffffffd4
    9a6c:	e51b201c 	ldr	r2, [fp, #-28]	; 0xffffffe4
    9a70:	e2822002 	add	r2, r2, #2
    9a74:	e7932102 	ldr	r2, [r3, r2, lsl #2]
    9a78:	e51b3030 	ldr	r3, [fp, #-48]	; 0xffffffd0
    9a7c:	e20210ff 	and	r1, r2, #255	; 0xff
    9a80:	e3a00000 	mov	r0, #0
    9a84:	e1801001 	orr	r1, r0, r1
    9a88:	e5c31062 	strb	r1, [r3, #98]	; 0x62
    9a8c:	e1a01422 	lsr	r1, r2, #8
    9a90:	e20110ff 	and	r1, r1, #255	; 0xff
    9a94:	e3a00000 	mov	r0, #0
    9a98:	e1801001 	orr	r1, r0, r1
    9a9c:	e5c31063 	strb	r1, [r3, #99]	; 0x63
    9aa0:	e1a01822 	lsr	r1, r2, #16
    9aa4:	e20110ff 	and	r1, r1, #255	; 0xff
    9aa8:	e3a00000 	mov	r0, #0
    9aac:	e1801001 	orr	r1, r0, r1
    9ab0:	e5c31064 	strb	r1, [r3, #100]	; 0x64
    9ab4:	e1a02c22 	lsr	r2, r2, #24
    9ab8:	e3a01000 	mov	r1, #0
    9abc:	e1812002 	orr	r2, r1, r2
    9ac0:	e5c32065 	strb	r2, [r3, #101]	; 0x65
    9ac4:	e3a03000 	mov	r3, #0
    9ac8:	e50b3024 	str	r3, [fp, #-36]	; 0xffffffdc
    9acc:	ea00015e 	b	a04c <KeyboardAttach+0xecc>
    9ad0:	e51b302c 	ldr	r3, [fp, #-44]	; 0xffffffd4
    9ad4:	e51b201c 	ldr	r2, [fp, #-28]	; 0xffffffe4
    9ad8:	e2822002 	add	r2, r2, #2
    9adc:	e7931102 	ldr	r1, [r3, r2, lsl #2]
    9ae0:	e51b2024 	ldr	r2, [fp, #-36]	; 0xffffffdc
    9ae4:	e1a03002 	mov	r3, r2
    9ae8:	e1a03103 	lsl	r3, r3, #2
    9aec:	e0833002 	add	r3, r3, r2
    9af0:	e1a03083 	lsl	r3, r3, #1
    9af4:	e0833002 	add	r3, r3, r2
    9af8:	e1a03103 	lsl	r3, r3, #2
    9afc:	e0813003 	add	r3, r1, r3
    9b00:	e2833010 	add	r3, r3, #16
    9b04:	e1d330b6 	ldrh	r3, [r3, #6]
    9b08:	e3530008 	cmp	r3, #8
    9b0c:	1a00014b 	bne	a040 <KeyboardAttach+0xec0>
    9b10:	e51b302c 	ldr	r3, [fp, #-44]	; 0xffffffd4
    9b14:	e51b201c 	ldr	r2, [fp, #-28]	; 0xffffffe4
    9b18:	e2822002 	add	r2, r2, #2
    9b1c:	e7931102 	ldr	r1, [r3, r2, lsl #2]
    9b20:	e51b2024 	ldr	r2, [fp, #-36]	; 0xffffffdc
    9b24:	e1a03002 	mov	r3, r2
    9b28:	e1a03103 	lsl	r3, r3, #2
    9b2c:	e0833002 	add	r3, r3, r2
    9b30:	e1a03083 	lsl	r3, r3, #1
    9b34:	e0833002 	add	r3, r3, r2
    9b38:	e1a03103 	lsl	r3, r3, #2
    9b3c:	e0813003 	add	r3, r1, r3
    9b40:	e2833010 	add	r3, r3, #16
    9b44:	e1d330b4 	ldrh	r3, [r3, #4]
    9b48:	e2433001 	sub	r3, r3, #1
    9b4c:	e3530008 	cmp	r3, #8
    9b50:	979ff103 	ldrls	pc, [pc, r3, lsl #2]
    9b54:	ea000138 	b	a03c <KeyboardAttach+0xebc>
    9b58:	00009b7c 	.word	0x00009b7c
    9b5c:	00009c14 	.word	0x00009c14
    9b60:	00009cac 	.word	0x00009cac
    9b64:	00009d44 	.word	0x00009d44
    9b68:	00009ddc 	.word	0x00009ddc
    9b6c:	00009e74 	.word	0x00009e74
    9b70:	00009f0c 	.word	0x00009f0c
    9b74:	0000a03c 	.word	0x0000a03c
    9b78:	00009fa4 	.word	0x00009fa4
    9b7c:	e51b302c 	ldr	r3, [fp, #-44]	; 0xffffffd4
    9b80:	e51b201c 	ldr	r2, [fp, #-28]	; 0xffffffe4
    9b84:	e2822002 	add	r2, r2, #2
    9b88:	e7931102 	ldr	r1, [r3, r2, lsl #2]
    9b8c:	e51b2024 	ldr	r2, [fp, #-36]	; 0xffffffdc
    9b90:	e1a03002 	mov	r3, r2
    9b94:	e1a03103 	lsl	r3, r3, #2
    9b98:	e0833002 	add	r3, r3, r2
    9b9c:	e1a03083 	lsl	r3, r3, #1
    9ba0:	e0833002 	add	r3, r3, r2
    9ba4:	e1a03103 	lsl	r3, r3, #2
    9ba8:	e2833008 	add	r3, r3, #8
    9bac:	e0813003 	add	r3, r1, r3
    9bb0:	e2832004 	add	r2, r3, #4
    9bb4:	e51b3030 	ldr	r3, [fp, #-48]	; 0xffffffd0
    9bb8:	e20210ff 	and	r1, r2, #255	; 0xff
    9bbc:	e3a00000 	mov	r0, #0
    9bc0:	e1801001 	orr	r1, r0, r1
    9bc4:	e5c3101e 	strb	r1, [r3, #30]
    9bc8:	e1a01422 	lsr	r1, r2, #8
    9bcc:	e20110ff 	and	r1, r1, #255	; 0xff
    9bd0:	e3a00000 	mov	r0, #0
    9bd4:	e1801001 	orr	r1, r0, r1
    9bd8:	e5c3101f 	strb	r1, [r3, #31]
    9bdc:	e1a01822 	lsr	r1, r2, #16
    9be0:	e20110ff 	and	r1, r1, #255	; 0xff
    9be4:	e3a00000 	mov	r0, #0
    9be8:	e1801001 	orr	r1, r0, r1
    9bec:	e5c31020 	strb	r1, [r3, #32]
    9bf0:	e1a02c22 	lsr	r2, r2, #24
    9bf4:	e3a01000 	mov	r1, #0
    9bf8:	e1812002 	orr	r2, r1, r2
    9bfc:	e5c32021 	strb	r2, [r3, #33]	; 0x21
    9c00:	e51b2030 	ldr	r2, [fp, #-48]	; 0xffffffd0
    9c04:	e5d2301d 	ldrb	r3, [r2, #29]
    9c08:	e3833001 	orr	r3, r3, #1
    9c0c:	e5c2301d 	strb	r3, [r2, #29]
    9c10:	ea00010a 	b	a040 <KeyboardAttach+0xec0>
    9c14:	e51b302c 	ldr	r3, [fp, #-44]	; 0xffffffd4
    9c18:	e51b201c 	ldr	r2, [fp, #-28]	; 0xffffffe4
    9c1c:	e2822002 	add	r2, r2, #2
    9c20:	e7931102 	ldr	r1, [r3, r2, lsl #2]
    9c24:	e51b2024 	ldr	r2, [fp, #-36]	; 0xffffffdc
    9c28:	e1a03002 	mov	r3, r2
    9c2c:	e1a03103 	lsl	r3, r3, #2
    9c30:	e0833002 	add	r3, r3, r2
    9c34:	e1a03083 	lsl	r3, r3, #1
    9c38:	e0833002 	add	r3, r3, r2
    9c3c:	e1a03103 	lsl	r3, r3, #2
    9c40:	e2833008 	add	r3, r3, #8
    9c44:	e0813003 	add	r3, r1, r3
    9c48:	e2832004 	add	r2, r3, #4
    9c4c:	e51b3030 	ldr	r3, [fp, #-48]	; 0xffffffd0
    9c50:	e20210ff 	and	r1, r2, #255	; 0xff
    9c54:	e3a00000 	mov	r0, #0
    9c58:	e1801001 	orr	r1, r0, r1
    9c5c:	e5c31022 	strb	r1, [r3, #34]	; 0x22
    9c60:	e1a01422 	lsr	r1, r2, #8
    9c64:	e20110ff 	and	r1, r1, #255	; 0xff
    9c68:	e3a00000 	mov	r0, #0
    9c6c:	e1801001 	orr	r1, r0, r1
    9c70:	e5c31023 	strb	r1, [r3, #35]	; 0x23
    9c74:	e1a01822 	lsr	r1, r2, #16
    9c78:	e20110ff 	and	r1, r1, #255	; 0xff
    9c7c:	e3a00000 	mov	r0, #0
    9c80:	e1801001 	orr	r1, r0, r1
    9c84:	e5c31024 	strb	r1, [r3, #36]	; 0x24
    9c88:	e1a02c22 	lsr	r2, r2, #24
    9c8c:	e3a01000 	mov	r1, #0
    9c90:	e1812002 	orr	r2, r1, r2
    9c94:	e5c32025 	strb	r2, [r3, #37]	; 0x25
    9c98:	e51b2030 	ldr	r2, [fp, #-48]	; 0xffffffd0
    9c9c:	e5d2301d 	ldrb	r3, [r2, #29]
    9ca0:	e3833002 	orr	r3, r3, #2
    9ca4:	e5c2301d 	strb	r3, [r2, #29]
    9ca8:	ea0000e4 	b	a040 <KeyboardAttach+0xec0>
    9cac:	e51b302c 	ldr	r3, [fp, #-44]	; 0xffffffd4
    9cb0:	e51b201c 	ldr	r2, [fp, #-28]	; 0xffffffe4
    9cb4:	e2822002 	add	r2, r2, #2
    9cb8:	e7931102 	ldr	r1, [r3, r2, lsl #2]
    9cbc:	e51b2024 	ldr	r2, [fp, #-36]	; 0xffffffdc
    9cc0:	e1a03002 	mov	r3, r2
    9cc4:	e1a03103 	lsl	r3, r3, #2
    9cc8:	e0833002 	add	r3, r3, r2
    9ccc:	e1a03083 	lsl	r3, r3, #1
    9cd0:	e0833002 	add	r3, r3, r2
    9cd4:	e1a03103 	lsl	r3, r3, #2
    9cd8:	e2833008 	add	r3, r3, #8
    9cdc:	e0813003 	add	r3, r1, r3
    9ce0:	e2832004 	add	r2, r3, #4
    9ce4:	e51b3030 	ldr	r3, [fp, #-48]	; 0xffffffd0
    9ce8:	e20210ff 	and	r1, r2, #255	; 0xff
    9cec:	e3a00000 	mov	r0, #0
    9cf0:	e1801001 	orr	r1, r0, r1
    9cf4:	e5c31026 	strb	r1, [r3, #38]	; 0x26
    9cf8:	e1a01422 	lsr	r1, r2, #8
    9cfc:	e20110ff 	and	r1, r1, #255	; 0xff
    9d00:	e3a00000 	mov	r0, #0
    9d04:	e1801001 	orr	r1, r0, r1
    9d08:	e5c31027 	strb	r1, [r3, #39]	; 0x27
    9d0c:	e1a01822 	lsr	r1, r2, #16
    9d10:	e20110ff 	and	r1, r1, #255	; 0xff
    9d14:	e3a00000 	mov	r0, #0
    9d18:	e1801001 	orr	r1, r0, r1
    9d1c:	e5c31028 	strb	r1, [r3, #40]	; 0x28
    9d20:	e1a02c22 	lsr	r2, r2, #24
    9d24:	e3a01000 	mov	r1, #0
    9d28:	e1812002 	orr	r2, r1, r2
    9d2c:	e5c32029 	strb	r2, [r3, #41]	; 0x29
    9d30:	e51b2030 	ldr	r2, [fp, #-48]	; 0xffffffd0
    9d34:	e5d2301d 	ldrb	r3, [r2, #29]
    9d38:	e3833004 	orr	r3, r3, #4
    9d3c:	e5c2301d 	strb	r3, [r2, #29]
    9d40:	ea0000be 	b	a040 <KeyboardAttach+0xec0>
    9d44:	e51b302c 	ldr	r3, [fp, #-44]	; 0xffffffd4
    9d48:	e51b201c 	ldr	r2, [fp, #-28]	; 0xffffffe4
    9d4c:	e2822002 	add	r2, r2, #2
    9d50:	e7931102 	ldr	r1, [r3, r2, lsl #2]
    9d54:	e51b2024 	ldr	r2, [fp, #-36]	; 0xffffffdc
    9d58:	e1a03002 	mov	r3, r2
    9d5c:	e1a03103 	lsl	r3, r3, #2
    9d60:	e0833002 	add	r3, r3, r2
    9d64:	e1a03083 	lsl	r3, r3, #1
    9d68:	e0833002 	add	r3, r3, r2
    9d6c:	e1a03103 	lsl	r3, r3, #2
    9d70:	e2833008 	add	r3, r3, #8
    9d74:	e0813003 	add	r3, r1, r3
    9d78:	e2832004 	add	r2, r3, #4
    9d7c:	e51b3030 	ldr	r3, [fp, #-48]	; 0xffffffd0
    9d80:	e20210ff 	and	r1, r2, #255	; 0xff
    9d84:	e3a00000 	mov	r0, #0
    9d88:	e1801001 	orr	r1, r0, r1
    9d8c:	e5c3102a 	strb	r1, [r3, #42]	; 0x2a
    9d90:	e1a01422 	lsr	r1, r2, #8
    9d94:	e20110ff 	and	r1, r1, #255	; 0xff
    9d98:	e3a00000 	mov	r0, #0
    9d9c:	e1801001 	orr	r1, r0, r1
    9da0:	e5c3102b 	strb	r1, [r3, #43]	; 0x2b
    9da4:	e1a01822 	lsr	r1, r2, #16
    9da8:	e20110ff 	and	r1, r1, #255	; 0xff
    9dac:	e3a00000 	mov	r0, #0
    9db0:	e1801001 	orr	r1, r0, r1
    9db4:	e5c3102c 	strb	r1, [r3, #44]	; 0x2c
    9db8:	e1a02c22 	lsr	r2, r2, #24
    9dbc:	e3a01000 	mov	r1, #0
    9dc0:	e1812002 	orr	r2, r1, r2
    9dc4:	e5c3202d 	strb	r2, [r3, #45]	; 0x2d
    9dc8:	e51b2030 	ldr	r2, [fp, #-48]	; 0xffffffd0
    9dcc:	e5d2301d 	ldrb	r3, [r2, #29]
    9dd0:	e3833008 	orr	r3, r3, #8
    9dd4:	e5c2301d 	strb	r3, [r2, #29]
    9dd8:	ea000098 	b	a040 <KeyboardAttach+0xec0>
    9ddc:	e51b302c 	ldr	r3, [fp, #-44]	; 0xffffffd4
    9de0:	e51b201c 	ldr	r2, [fp, #-28]	; 0xffffffe4
    9de4:	e2822002 	add	r2, r2, #2
    9de8:	e7931102 	ldr	r1, [r3, r2, lsl #2]
    9dec:	e51b2024 	ldr	r2, [fp, #-36]	; 0xffffffdc
    9df0:	e1a03002 	mov	r3, r2
    9df4:	e1a03103 	lsl	r3, r3, #2
    9df8:	e0833002 	add	r3, r3, r2
    9dfc:	e1a03083 	lsl	r3, r3, #1
    9e00:	e0833002 	add	r3, r3, r2
    9e04:	e1a03103 	lsl	r3, r3, #2
    9e08:	e2833008 	add	r3, r3, #8
    9e0c:	e0813003 	add	r3, r1, r3
    9e10:	e2832004 	add	r2, r3, #4
    9e14:	e51b3030 	ldr	r3, [fp, #-48]	; 0xffffffd0
    9e18:	e20210ff 	and	r1, r2, #255	; 0xff
    9e1c:	e3a00000 	mov	r0, #0
    9e20:	e1801001 	orr	r1, r0, r1
    9e24:	e5c3102e 	strb	r1, [r3, #46]	; 0x2e
    9e28:	e1a01422 	lsr	r1, r2, #8
    9e2c:	e20110ff 	and	r1, r1, #255	; 0xff
    9e30:	e3a00000 	mov	r0, #0
    9e34:	e1801001 	orr	r1, r0, r1
    9e38:	e5c3102f 	strb	r1, [r3, #47]	; 0x2f
    9e3c:	e1a01822 	lsr	r1, r2, #16
    9e40:	e20110ff 	and	r1, r1, #255	; 0xff
    9e44:	e3a00000 	mov	r0, #0
    9e48:	e1801001 	orr	r1, r0, r1
    9e4c:	e5c31030 	strb	r1, [r3, #48]	; 0x30
    9e50:	e1a02c22 	lsr	r2, r2, #24
    9e54:	e3a01000 	mov	r1, #0
    9e58:	e1812002 	orr	r2, r1, r2
    9e5c:	e5c32031 	strb	r2, [r3, #49]	; 0x31
    9e60:	e51b2030 	ldr	r2, [fp, #-48]	; 0xffffffd0
    9e64:	e5d2301d 	ldrb	r3, [r2, #29]
    9e68:	e3833010 	orr	r3, r3, #16
    9e6c:	e5c2301d 	strb	r3, [r2, #29]
    9e70:	ea000072 	b	a040 <KeyboardAttach+0xec0>
    9e74:	e51b302c 	ldr	r3, [fp, #-44]	; 0xffffffd4
    9e78:	e51b201c 	ldr	r2, [fp, #-28]	; 0xffffffe4
    9e7c:	e2822002 	add	r2, r2, #2
    9e80:	e7931102 	ldr	r1, [r3, r2, lsl #2]
    9e84:	e51b2024 	ldr	r2, [fp, #-36]	; 0xffffffdc
    9e88:	e1a03002 	mov	r3, r2
    9e8c:	e1a03103 	lsl	r3, r3, #2
    9e90:	e0833002 	add	r3, r3, r2
    9e94:	e1a03083 	lsl	r3, r3, #1
    9e98:	e0833002 	add	r3, r3, r2
    9e9c:	e1a03103 	lsl	r3, r3, #2
    9ea0:	e2833008 	add	r3, r3, #8
    9ea4:	e0813003 	add	r3, r1, r3
    9ea8:	e2832004 	add	r2, r3, #4
    9eac:	e51b3030 	ldr	r3, [fp, #-48]	; 0xffffffd0
    9eb0:	e20210ff 	and	r1, r2, #255	; 0xff
    9eb4:	e3a00000 	mov	r0, #0
    9eb8:	e1801001 	orr	r1, r0, r1
    9ebc:	e5c31032 	strb	r1, [r3, #50]	; 0x32
    9ec0:	e1a01422 	lsr	r1, r2, #8
    9ec4:	e20110ff 	and	r1, r1, #255	; 0xff
    9ec8:	e3a00000 	mov	r0, #0
    9ecc:	e1801001 	orr	r1, r0, r1
    9ed0:	e5c31033 	strb	r1, [r3, #51]	; 0x33
    9ed4:	e1a01822 	lsr	r1, r2, #16
    9ed8:	e20110ff 	and	r1, r1, #255	; 0xff
    9edc:	e3a00000 	mov	r0, #0
    9ee0:	e1801001 	orr	r1, r0, r1
    9ee4:	e5c31034 	strb	r1, [r3, #52]	; 0x34
    9ee8:	e1a02c22 	lsr	r2, r2, #24
    9eec:	e3a01000 	mov	r1, #0
    9ef0:	e1812002 	orr	r2, r1, r2
    9ef4:	e5c32035 	strb	r2, [r3, #53]	; 0x35
    9ef8:	e51b2030 	ldr	r2, [fp, #-48]	; 0xffffffd0
    9efc:	e5d2301d 	ldrb	r3, [r2, #29]
    9f00:	e3833020 	orr	r3, r3, #32
    9f04:	e5c2301d 	strb	r3, [r2, #29]
    9f08:	ea00004c 	b	a040 <KeyboardAttach+0xec0>
    9f0c:	e51b302c 	ldr	r3, [fp, #-44]	; 0xffffffd4
    9f10:	e51b201c 	ldr	r2, [fp, #-28]	; 0xffffffe4
    9f14:	e2822002 	add	r2, r2, #2
    9f18:	e7931102 	ldr	r1, [r3, r2, lsl #2]
    9f1c:	e51b2024 	ldr	r2, [fp, #-36]	; 0xffffffdc
    9f20:	e1a03002 	mov	r3, r2
    9f24:	e1a03103 	lsl	r3, r3, #2
    9f28:	e0833002 	add	r3, r3, r2
    9f2c:	e1a03083 	lsl	r3, r3, #1
    9f30:	e0833002 	add	r3, r3, r2
    9f34:	e1a03103 	lsl	r3, r3, #2
    9f38:	e2833008 	add	r3, r3, #8
    9f3c:	e0813003 	add	r3, r1, r3
    9f40:	e2832004 	add	r2, r3, #4
    9f44:	e51b3030 	ldr	r3, [fp, #-48]	; 0xffffffd0
    9f48:	e20210ff 	and	r1, r2, #255	; 0xff
    9f4c:	e3a00000 	mov	r0, #0
    9f50:	e1801001 	orr	r1, r0, r1
    9f54:	e5c31036 	strb	r1, [r3, #54]	; 0x36
    9f58:	e1a01422 	lsr	r1, r2, #8
    9f5c:	e20110ff 	and	r1, r1, #255	; 0xff
    9f60:	e3a00000 	mov	r0, #0
    9f64:	e1801001 	orr	r1, r0, r1
    9f68:	e5c31037 	strb	r1, [r3, #55]	; 0x37
    9f6c:	e1a01822 	lsr	r1, r2, #16
    9f70:	e20110ff 	and	r1, r1, #255	; 0xff
    9f74:	e3a00000 	mov	r0, #0
    9f78:	e1801001 	orr	r1, r0, r1
    9f7c:	e5c31038 	strb	r1, [r3, #56]	; 0x38
    9f80:	e1a02c22 	lsr	r2, r2, #24
    9f84:	e3a01000 	mov	r1, #0
    9f88:	e1812002 	orr	r2, r1, r2
    9f8c:	e5c32039 	strb	r2, [r3, #57]	; 0x39
    9f90:	e51b2030 	ldr	r2, [fp, #-48]	; 0xffffffd0
    9f94:	e5d2301d 	ldrb	r3, [r2, #29]
    9f98:	e3833080 	orr	r3, r3, #128	; 0x80
    9f9c:	e5c2301d 	strb	r3, [r2, #29]
    9fa0:	ea000026 	b	a040 <KeyboardAttach+0xec0>
    9fa4:	e51b302c 	ldr	r3, [fp, #-44]	; 0xffffffd4
    9fa8:	e51b201c 	ldr	r2, [fp, #-28]	; 0xffffffe4
    9fac:	e2822002 	add	r2, r2, #2
    9fb0:	e7931102 	ldr	r1, [r3, r2, lsl #2]
    9fb4:	e51b2024 	ldr	r2, [fp, #-36]	; 0xffffffdc
    9fb8:	e1a03002 	mov	r3, r2
    9fbc:	e1a03103 	lsl	r3, r3, #2
    9fc0:	e0833002 	add	r3, r3, r2
    9fc4:	e1a03083 	lsl	r3, r3, #1
    9fc8:	e0833002 	add	r3, r3, r2
    9fcc:	e1a03103 	lsl	r3, r3, #2
    9fd0:	e2833008 	add	r3, r3, #8
    9fd4:	e0813003 	add	r3, r1, r3
    9fd8:	e2832004 	add	r2, r3, #4
    9fdc:	e51b3030 	ldr	r3, [fp, #-48]	; 0xffffffd0
    9fe0:	e20210ff 	and	r1, r2, #255	; 0xff
    9fe4:	e3a00000 	mov	r0, #0
    9fe8:	e1801001 	orr	r1, r0, r1
    9fec:	e5c3103a 	strb	r1, [r3, #58]	; 0x3a
    9ff0:	e1a01422 	lsr	r1, r2, #8
    9ff4:	e20110ff 	and	r1, r1, #255	; 0xff
    9ff8:	e3a00000 	mov	r0, #0
    9ffc:	e1801001 	orr	r1, r0, r1
    a000:	e5c3103b 	strb	r1, [r3, #59]	; 0x3b
    a004:	e1a01822 	lsr	r1, r2, #16
    a008:	e20110ff 	and	r1, r1, #255	; 0xff
    a00c:	e3a00000 	mov	r0, #0
    a010:	e1801001 	orr	r1, r0, r1
    a014:	e5c3103c 	strb	r1, [r3, #60]	; 0x3c
    a018:	e1a02c22 	lsr	r2, r2, #24
    a01c:	e3a01000 	mov	r1, #0
    a020:	e1812002 	orr	r2, r1, r2
    a024:	e5c3203d 	strb	r2, [r3, #61]	; 0x3d
    a028:	e51b2030 	ldr	r2, [fp, #-48]	; 0xffffffd0
    a02c:	e5d2301d 	ldrb	r3, [r2, #29]
    a030:	e3833040 	orr	r3, r3, #64	; 0x40
    a034:	e5c2301d 	strb	r3, [r2, #29]
    a038:	ea000000 	b	a040 <KeyboardAttach+0xec0>
    a03c:	e1a00000 	nop			; (mov r0, r0)
    a040:	e51b3024 	ldr	r3, [fp, #-36]	; 0xffffffdc
    a044:	e2833001 	add	r3, r3, #1
    a048:	e50b3024 	str	r3, [fp, #-36]	; 0xffffffdc
    a04c:	e51b302c 	ldr	r3, [fp, #-44]	; 0xffffffd4
    a050:	e51b201c 	ldr	r2, [fp, #-28]	; 0xffffffe4
    a054:	e2822002 	add	r2, r2, #2
    a058:	e7933102 	ldr	r3, [r3, r2, lsl #2]
    a05c:	e5d33001 	ldrb	r3, [r3, #1]
    a060:	e1a02003 	mov	r2, r3
    a064:	e51b3024 	ldr	r3, [fp, #-36]	; 0xffffffdc
    a068:	e1520003 	cmp	r2, r3
    a06c:	8afffe97 	bhi	9ad0 <KeyboardAttach+0x950>
    a070:	e51b301c 	ldr	r3, [fp, #-28]	; 0xffffffe4
    a074:	e2833001 	add	r3, r3, #1
    a078:	e50b301c 	str	r3, [fp, #-28]	; 0xffffffe4
    a07c:	e51b302c 	ldr	r3, [fp, #-44]	; 0xffffffd4
    a080:	e5d33004 	ldrb	r3, [r3, #4]
    a084:	e1a02003 	mov	r2, r3
    a088:	e51b301c 	ldr	r3, [fp, #-28]	; 0xffffffe4
    a08c:	e1520003 	cmp	r2, r3
    a090:	8afffd8e 	bhi	96d0 <KeyboardAttach+0x550>
    a094:	e3a03000 	mov	r3, #0
    a098:	e1a00003 	mov	r0, r3
    a09c:	e24bd004 	sub	sp, fp, #4
    a0a0:	e8bd4800 	pop	{fp, lr}
    a0a4:	e12fff1e 	bx	lr
    a0a8:	00024b68 	.word	0x00024b68
    a0ac:	48494430 	.word	0x48494430
    a0b0:	00008f60 	.word	0x00008f60
    a0b4:	000090a0 	.word	0x000090a0
    a0b8:	00024b6c 	.word	0x00024b6c
    a0bc:	00024b7c 	.word	0x00024b7c

0000a0c0 <KeyboardCount>:
    a0c0:	e52db004 	push	{fp}		; (str fp, [sp, #-4]!)
    a0c4:	e28db000 	add	fp, sp, #0
    a0c8:	e59f3010 	ldr	r3, [pc, #16]	; a0e0 <KeyboardCount+0x20>
    a0cc:	e5933000 	ldr	r3, [r3]
    a0d0:	e1a00003 	mov	r0, r3
    a0d4:	e24bd000 	sub	sp, fp, #0
    a0d8:	e49db004 	pop	{fp}		; (ldr fp, [sp], #4)
    a0dc:	e12fff1e 	bx	lr
    a0e0:	00024b68 	.word	0x00024b68

0000a0e4 <KeyboardSetLeds>:
    a0e4:	e92d4800 	push	{fp, lr}
    a0e8:	e28db004 	add	fp, sp, #4
    a0ec:	e24dd010 	sub	sp, sp, #16
    a0f0:	e50b0010 	str	r0, [fp, #-16]
    a0f4:	e54b1014 	strb	r1, [fp, #-20]	; 0xffffffec
    a0f8:	e51b0010 	ldr	r0, [fp, #-16]
    a0fc:	ebfffb4b 	bl	8e30 <KeyboardIndex>
    a100:	e50b0008 	str	r0, [fp, #-8]
    a104:	e51b3008 	ldr	r3, [fp, #-8]
    a108:	e3730001 	cmn	r3, #1
    a10c:	1a000001 	bne	a118 <KeyboardSetLeds+0x34>
    a110:	e3e03008 	mvn	r3, #8
    a114:	ea0000d6 	b	a474 <KeyboardSetLeds+0x390>
    a118:	e59f2364 	ldr	r2, [pc, #868]	; a484 <KeyboardSetLeds+0x3a0>
    a11c:	e51b3008 	ldr	r3, [fp, #-8]
    a120:	e7923103 	ldr	r3, [r2, r3, lsl #2]
    a124:	e5933414 	ldr	r3, [r3, #1044]	; 0x414
    a128:	e5d32010 	ldrb	r2, [r3, #16]
    a12c:	e5d31011 	ldrb	r1, [r3, #17]
    a130:	e1a01401 	lsl	r1, r1, #8
    a134:	e1812002 	orr	r2, r1, r2
    a138:	e5d31012 	ldrb	r1, [r3, #18]
    a13c:	e1a01801 	lsl	r1, r1, #16
    a140:	e1812002 	orr	r2, r1, r2
    a144:	e5d33013 	ldrb	r3, [r3, #19]
    a148:	e1a03c03 	lsl	r3, r3, #24
    a14c:	e1833002 	orr	r3, r3, r2
    a150:	e50b300c 	str	r3, [fp, #-12]
    a154:	e51b300c 	ldr	r3, [fp, #-12]
    a158:	e5d3301d 	ldrb	r3, [r3, #29]
    a15c:	e2033001 	and	r3, r3, #1
    a160:	e20330ff 	and	r3, r3, #255	; 0xff
    a164:	e3530000 	cmp	r3, #0
    a168:	0a00000f 	beq	a1ac <KeyboardSetLeds+0xc8>
    a16c:	e51b300c 	ldr	r3, [fp, #-12]
    a170:	e5d3201e 	ldrb	r2, [r3, #30]
    a174:	e5d3101f 	ldrb	r1, [r3, #31]
    a178:	e1a01401 	lsl	r1, r1, #8
    a17c:	e1812002 	orr	r2, r1, r2
    a180:	e5d31020 	ldrb	r1, [r3, #32]
    a184:	e1a01801 	lsl	r1, r1, #16
    a188:	e1812002 	orr	r2, r1, r2
    a18c:	e5d33021 	ldrb	r3, [r3, #33]	; 0x21
    a190:	e1a03c03 	lsl	r3, r3, #24
    a194:	e1833002 	orr	r3, r3, r2
    a198:	e1a02003 	mov	r2, r3
    a19c:	e55b3014 	ldrb	r3, [fp, #-20]	; 0xffffffec
    a1a0:	e2033001 	and	r3, r3, #1
    a1a4:	e20330ff 	and	r3, r3, #255	; 0xff
    a1a8:	e5c23028 	strb	r3, [r2, #40]	; 0x28
    a1ac:	e51b300c 	ldr	r3, [fp, #-12]
    a1b0:	e5d3301d 	ldrb	r3, [r3, #29]
    a1b4:	e2033002 	and	r3, r3, #2
    a1b8:	e20330ff 	and	r3, r3, #255	; 0xff
    a1bc:	e3530000 	cmp	r3, #0
    a1c0:	0a000010 	beq	a208 <KeyboardSetLeds+0x124>
    a1c4:	e51b300c 	ldr	r3, [fp, #-12]
    a1c8:	e5d32022 	ldrb	r2, [r3, #34]	; 0x22
    a1cc:	e5d31023 	ldrb	r1, [r3, #35]	; 0x23
    a1d0:	e1a01401 	lsl	r1, r1, #8
    a1d4:	e1812002 	orr	r2, r1, r2
    a1d8:	e5d31024 	ldrb	r1, [r3, #36]	; 0x24
    a1dc:	e1a01801 	lsl	r1, r1, #16
    a1e0:	e1812002 	orr	r2, r1, r2
    a1e4:	e5d33025 	ldrb	r3, [r3, #37]	; 0x25
    a1e8:	e1a03c03 	lsl	r3, r3, #24
    a1ec:	e1833002 	orr	r3, r3, r2
    a1f0:	e1a02003 	mov	r2, r3
    a1f4:	e55b3014 	ldrb	r3, [fp, #-20]	; 0xffffffec
    a1f8:	e1a030a3 	lsr	r3, r3, #1
    a1fc:	e2033001 	and	r3, r3, #1
    a200:	e20330ff 	and	r3, r3, #255	; 0xff
    a204:	e5c23028 	strb	r3, [r2, #40]	; 0x28
    a208:	e51b300c 	ldr	r3, [fp, #-12]
    a20c:	e5d3301d 	ldrb	r3, [r3, #29]
    a210:	e2033004 	and	r3, r3, #4
    a214:	e20330ff 	and	r3, r3, #255	; 0xff
    a218:	e3530000 	cmp	r3, #0
    a21c:	0a000010 	beq	a264 <KeyboardSetLeds+0x180>
    a220:	e51b300c 	ldr	r3, [fp, #-12]
    a224:	e5d32026 	ldrb	r2, [r3, #38]	; 0x26
    a228:	e5d31027 	ldrb	r1, [r3, #39]	; 0x27
    a22c:	e1a01401 	lsl	r1, r1, #8
    a230:	e1812002 	orr	r2, r1, r2
    a234:	e5d31028 	ldrb	r1, [r3, #40]	; 0x28
    a238:	e1a01801 	lsl	r1, r1, #16
    a23c:	e1812002 	orr	r2, r1, r2
    a240:	e5d33029 	ldrb	r3, [r3, #41]	; 0x29
    a244:	e1a03c03 	lsl	r3, r3, #24
    a248:	e1833002 	orr	r3, r3, r2
    a24c:	e1a02003 	mov	r2, r3
    a250:	e55b3014 	ldrb	r3, [fp, #-20]	; 0xffffffec
    a254:	e1a03123 	lsr	r3, r3, #2
    a258:	e2033001 	and	r3, r3, #1
    a25c:	e20330ff 	and	r3, r3, #255	; 0xff
    a260:	e5c23028 	strb	r3, [r2, #40]	; 0x28
    a264:	e51b300c 	ldr	r3, [fp, #-12]
    a268:	e5d3301d 	ldrb	r3, [r3, #29]
    a26c:	e2033008 	and	r3, r3, #8
    a270:	e20330ff 	and	r3, r3, #255	; 0xff
    a274:	e3530000 	cmp	r3, #0
    a278:	0a000010 	beq	a2c0 <KeyboardSetLeds+0x1dc>
    a27c:	e51b300c 	ldr	r3, [fp, #-12]
    a280:	e5d3202a 	ldrb	r2, [r3, #42]	; 0x2a
    a284:	e5d3102b 	ldrb	r1, [r3, #43]	; 0x2b
    a288:	e1a01401 	lsl	r1, r1, #8
    a28c:	e1812002 	orr	r2, r1, r2
    a290:	e5d3102c 	ldrb	r1, [r3, #44]	; 0x2c
    a294:	e1a01801 	lsl	r1, r1, #16
    a298:	e1812002 	orr	r2, r1, r2
    a29c:	e5d3302d 	ldrb	r3, [r3, #45]	; 0x2d
    a2a0:	e1a03c03 	lsl	r3, r3, #24
    a2a4:	e1833002 	orr	r3, r3, r2
    a2a8:	e1a02003 	mov	r2, r3
    a2ac:	e55b3014 	ldrb	r3, [fp, #-20]	; 0xffffffec
    a2b0:	e1a031a3 	lsr	r3, r3, #3
    a2b4:	e2033001 	and	r3, r3, #1
    a2b8:	e20330ff 	and	r3, r3, #255	; 0xff
    a2bc:	e5c23028 	strb	r3, [r2, #40]	; 0x28
    a2c0:	e51b300c 	ldr	r3, [fp, #-12]
    a2c4:	e5d3301d 	ldrb	r3, [r3, #29]
    a2c8:	e2033010 	and	r3, r3, #16
    a2cc:	e20330ff 	and	r3, r3, #255	; 0xff
    a2d0:	e3530000 	cmp	r3, #0
    a2d4:	0a000010 	beq	a31c <KeyboardSetLeds+0x238>
    a2d8:	e51b300c 	ldr	r3, [fp, #-12]
    a2dc:	e5d3202e 	ldrb	r2, [r3, #46]	; 0x2e
    a2e0:	e5d3102f 	ldrb	r1, [r3, #47]	; 0x2f
    a2e4:	e1a01401 	lsl	r1, r1, #8
    a2e8:	e1812002 	orr	r2, r1, r2
    a2ec:	e5d31030 	ldrb	r1, [r3, #48]	; 0x30
    a2f0:	e1a01801 	lsl	r1, r1, #16
    a2f4:	e1812002 	orr	r2, r1, r2
    a2f8:	e5d33031 	ldrb	r3, [r3, #49]	; 0x31
    a2fc:	e1a03c03 	lsl	r3, r3, #24
    a300:	e1833002 	orr	r3, r3, r2
    a304:	e1a02003 	mov	r2, r3
    a308:	e55b3014 	ldrb	r3, [fp, #-20]	; 0xffffffec
    a30c:	e1a03223 	lsr	r3, r3, #4
    a310:	e2033001 	and	r3, r3, #1
    a314:	e20330ff 	and	r3, r3, #255	; 0xff
    a318:	e5c23028 	strb	r3, [r2, #40]	; 0x28
    a31c:	e51b300c 	ldr	r3, [fp, #-12]
    a320:	e5d3301d 	ldrb	r3, [r3, #29]
    a324:	e2033020 	and	r3, r3, #32
    a328:	e20330ff 	and	r3, r3, #255	; 0xff
    a32c:	e3530000 	cmp	r3, #0
    a330:	0a000010 	beq	a378 <KeyboardSetLeds+0x294>
    a334:	e51b300c 	ldr	r3, [fp, #-12]
    a338:	e5d32032 	ldrb	r2, [r3, #50]	; 0x32
    a33c:	e5d31033 	ldrb	r1, [r3, #51]	; 0x33
    a340:	e1a01401 	lsl	r1, r1, #8
    a344:	e1812002 	orr	r2, r1, r2
    a348:	e5d31034 	ldrb	r1, [r3, #52]	; 0x34
    a34c:	e1a01801 	lsl	r1, r1, #16
    a350:	e1812002 	orr	r2, r1, r2
    a354:	e5d33035 	ldrb	r3, [r3, #53]	; 0x35
    a358:	e1a03c03 	lsl	r3, r3, #24
    a35c:	e1833002 	orr	r3, r3, r2
    a360:	e1a02003 	mov	r2, r3
    a364:	e55b3014 	ldrb	r3, [fp, #-20]	; 0xffffffec
    a368:	e1a032a3 	lsr	r3, r3, #5
    a36c:	e2033001 	and	r3, r3, #1
    a370:	e20330ff 	and	r3, r3, #255	; 0xff
    a374:	e5c23028 	strb	r3, [r2, #40]	; 0x28
    a378:	e51b300c 	ldr	r3, [fp, #-12]
    a37c:	e5d3301d 	ldrb	r3, [r3, #29]
    a380:	e3c3307f 	bic	r3, r3, #127	; 0x7f
    a384:	e20330ff 	and	r3, r3, #255	; 0xff
    a388:	e3530000 	cmp	r3, #0
    a38c:	0a00000f 	beq	a3d0 <KeyboardSetLeds+0x2ec>
    a390:	e51b300c 	ldr	r3, [fp, #-12]
    a394:	e5d32036 	ldrb	r2, [r3, #54]	; 0x36
    a398:	e5d31037 	ldrb	r1, [r3, #55]	; 0x37
    a39c:	e1a01401 	lsl	r1, r1, #8
    a3a0:	e1812002 	orr	r2, r1, r2
    a3a4:	e5d31038 	ldrb	r1, [r3, #56]	; 0x38
    a3a8:	e1a01801 	lsl	r1, r1, #16
    a3ac:	e1812002 	orr	r2, r1, r2
    a3b0:	e5d33039 	ldrb	r3, [r3, #57]	; 0x39
    a3b4:	e1a03c03 	lsl	r3, r3, #24
    a3b8:	e1833002 	orr	r3, r3, r2
    a3bc:	e1a02003 	mov	r2, r3
    a3c0:	e55b3014 	ldrb	r3, [fp, #-20]	; 0xffffffec
    a3c4:	e1a033a3 	lsr	r3, r3, #7
    a3c8:	e20330ff 	and	r3, r3, #255	; 0xff
    a3cc:	e5c23028 	strb	r3, [r2, #40]	; 0x28
    a3d0:	e51b300c 	ldr	r3, [fp, #-12]
    a3d4:	e5d3301d 	ldrb	r3, [r3, #29]
    a3d8:	e2033040 	and	r3, r3, #64	; 0x40
    a3dc:	e20330ff 	and	r3, r3, #255	; 0xff
    a3e0:	e3530000 	cmp	r3, #0
    a3e4:	0a000010 	beq	a42c <KeyboardSetLeds+0x348>
    a3e8:	e51b300c 	ldr	r3, [fp, #-12]
    a3ec:	e5d3203a 	ldrb	r2, [r3, #58]	; 0x3a
    a3f0:	e5d3103b 	ldrb	r1, [r3, #59]	; 0x3b
    a3f4:	e1a01401 	lsl	r1, r1, #8
    a3f8:	e1812002 	orr	r2, r1, r2
    a3fc:	e5d3103c 	ldrb	r1, [r3, #60]	; 0x3c
    a400:	e1a01801 	lsl	r1, r1, #16
    a404:	e1812002 	orr	r2, r1, r2
    a408:	e5d3303d 	ldrb	r3, [r3, #61]	; 0x3d
    a40c:	e1a03c03 	lsl	r3, r3, #24
    a410:	e1833002 	orr	r3, r3, r2
    a414:	e1a02003 	mov	r2, r3
    a418:	e55b3014 	ldrb	r3, [fp, #-20]	; 0xffffffec
    a41c:	e1a03323 	lsr	r3, r3, #6
    a420:	e2033001 	and	r3, r3, #1
    a424:	e20330ff 	and	r3, r3, #255	; 0xff
    a428:	e5c23028 	strb	r3, [r2, #40]	; 0x28
    a42c:	e59f2050 	ldr	r2, [pc, #80]	; a484 <KeyboardSetLeds+0x3a0>
    a430:	e51b3008 	ldr	r3, [fp, #-8]
    a434:	e7920103 	ldr	r0, [r2, r3, lsl #2]
    a438:	e51b300c 	ldr	r3, [fp, #-12]
    a43c:	e5d32062 	ldrb	r2, [r3, #98]	; 0x62
    a440:	e5d31063 	ldrb	r1, [r3, #99]	; 0x63
    a444:	e1a01401 	lsl	r1, r1, #8
    a448:	e1812002 	orr	r2, r1, r2
    a44c:	e5d31064 	ldrb	r1, [r3, #100]	; 0x64
    a450:	e1a01801 	lsl	r1, r1, #16
    a454:	e1812002 	orr	r2, r1, r2
    a458:	e5d33065 	ldrb	r3, [r3, #101]	; 0x65
    a45c:	e1a03c03 	lsl	r3, r3, #24
    a460:	e1833002 	orr	r3, r3, r2
    a464:	e5d33000 	ldrb	r3, [r3]
    a468:	e1a01003 	mov	r1, r3
    a46c:	eb001867 	bl	10610 <HidWriteDevice>
    a470:	e1a03000 	mov	r3, r0
    a474:	e1a00003 	mov	r0, r3
    a478:	e24bd004 	sub	sp, fp, #4
    a47c:	e8bd4800 	pop	{fp, lr}
    a480:	e12fff1e 	bx	lr
    a484:	00024b7c 	.word	0x00024b7c

0000a488 <KeyboardGetLedSupport>:
    a488:	e92d4800 	push	{fp, lr}
    a48c:	e28db004 	add	fp, sp, #4
    a490:	e24dd010 	sub	sp, sp, #16
    a494:	e50b0010 	str	r0, [fp, #-16]
    a498:	e51b0010 	ldr	r0, [fp, #-16]
    a49c:	ebfffa63 	bl	8e30 <KeyboardIndex>
    a4a0:	e50b0008 	str	r0, [fp, #-8]
    a4a4:	e51b3008 	ldr	r3, [fp, #-8]
    a4a8:	e3730001 	cmn	r3, #1
    a4ac:	1a000001 	bne	a4b8 <KeyboardGetLedSupport+0x30>
    a4b0:	e3a03000 	mov	r3, #0
    a4b4:	ea000010 	b	a4fc <KeyboardGetLedSupport+0x74>
    a4b8:	e59f204c 	ldr	r2, [pc, #76]	; a50c <KeyboardGetLedSupport+0x84>
    a4bc:	e51b3008 	ldr	r3, [fp, #-8]
    a4c0:	e7923103 	ldr	r3, [r2, r3, lsl #2]
    a4c4:	e5933414 	ldr	r3, [r3, #1044]	; 0x414
    a4c8:	e5d32010 	ldrb	r2, [r3, #16]
    a4cc:	e5d31011 	ldrb	r1, [r3, #17]
    a4d0:	e1a01401 	lsl	r1, r1, #8
    a4d4:	e1812002 	orr	r2, r1, r2
    a4d8:	e5d31012 	ldrb	r1, [r3, #18]
    a4dc:	e1a01801 	lsl	r1, r1, #16
    a4e0:	e1812002 	orr	r2, r1, r2
    a4e4:	e5d33013 	ldrb	r3, [r3, #19]
    a4e8:	e1a03c03 	lsl	r3, r3, #24
    a4ec:	e1833002 	orr	r3, r3, r2
    a4f0:	e50b300c 	str	r3, [fp, #-12]
    a4f4:	e51b300c 	ldr	r3, [fp, #-12]
    a4f8:	e5d3301d 	ldrb	r3, [r3, #29]
    a4fc:	e1a00003 	mov	r0, r3
    a500:	e24bd004 	sub	sp, fp, #4
    a504:	e8bd4800 	pop	{fp, lr}
    a508:	e12fff1e 	bx	lr
    a50c:	00024b7c 	.word	0x00024b7c

0000a510 <KeyboardPoll>:
    a510:	e92d4800 	push	{fp, lr}
    a514:	e28db004 	add	fp, sp, #4
    a518:	e24dd018 	sub	sp, sp, #24
    a51c:	e50b0018 	str	r0, [fp, #-24]	; 0xffffffe8
    a520:	e51b0018 	ldr	r0, [fp, #-24]	; 0xffffffe8
    a524:	ebfffa41 	bl	8e30 <KeyboardIndex>
    a528:	e50b000c 	str	r0, [fp, #-12]
    a52c:	e51b300c 	ldr	r3, [fp, #-12]
    a530:	e3730001 	cmn	r3, #1
    a534:	1a000001 	bne	a540 <KeyboardPoll+0x30>
    a538:	e3e03008 	mvn	r3, #8
    a53c:	ea0001d7 	b	aca0 <KeyboardPoll+0x790>
    a540:	e59f2768 	ldr	r2, [pc, #1896]	; acb0 <KeyboardPoll+0x7a0>
    a544:	e51b300c 	ldr	r3, [fp, #-12]
    a548:	e7923103 	ldr	r3, [r2, r3, lsl #2]
    a54c:	e5933414 	ldr	r3, [r3, #1044]	; 0x414
    a550:	e5d32010 	ldrb	r2, [r3, #16]
    a554:	e5d31011 	ldrb	r1, [r3, #17]
    a558:	e1a01401 	lsl	r1, r1, #8
    a55c:	e1812002 	orr	r2, r1, r2
    a560:	e5d31012 	ldrb	r1, [r3, #18]
    a564:	e1a01801 	lsl	r1, r1, #16
    a568:	e1812002 	orr	r2, r1, r2
    a56c:	e5d33013 	ldrb	r3, [r3, #19]
    a570:	e1a03c03 	lsl	r3, r3, #24
    a574:	e1833002 	orr	r3, r3, r2
    a578:	e50b3010 	str	r3, [fp, #-16]
    a57c:	e59f272c 	ldr	r2, [pc, #1836]	; acb0 <KeyboardPoll+0x7a0>
    a580:	e51b300c 	ldr	r3, [fp, #-12]
    a584:	e7920103 	ldr	r0, [r2, r3, lsl #2]
    a588:	e51b3010 	ldr	r3, [fp, #-16]
    a58c:	e5d32066 	ldrb	r2, [r3, #102]	; 0x66
    a590:	e5d31067 	ldrb	r1, [r3, #103]	; 0x67
    a594:	e1a01401 	lsl	r1, r1, #8
    a598:	e1812002 	orr	r2, r1, r2
    a59c:	e5d31068 	ldrb	r1, [r3, #104]	; 0x68
    a5a0:	e1a01801 	lsl	r1, r1, #16
    a5a4:	e1812002 	orr	r2, r1, r2
    a5a8:	e5d33069 	ldrb	r3, [r3, #105]	; 0x69
    a5ac:	e1a03c03 	lsl	r3, r3, #24
    a5b0:	e1833002 	orr	r3, r3, r2
    a5b4:	e5d33000 	ldrb	r3, [r3]
    a5b8:	e1a01003 	mov	r1, r3
    a5bc:	eb00170f 	bl	10200 <HidReadDevice>
    a5c0:	e1a03000 	mov	r3, r0
    a5c4:	e54b3011 	strb	r3, [fp, #-17]	; 0xffffffef
    a5c8:	e15b31d1 	ldrsb	r3, [fp, #-17]	; 0xffffffef
    a5cc:	e3530000 	cmp	r3, #0
    a5d0:	0a000001 	beq	a5dc <KeyboardPoll+0xcc>
    a5d4:	e15b31d1 	ldrsb	r3, [fp, #-17]	; 0xffffffef
    a5d8:	ea0001b0 	b	aca0 <KeyboardPoll+0x790>
    a5dc:	e51b3010 	ldr	r3, [fp, #-16]
    a5e0:	e5d3203e 	ldrb	r2, [r3, #62]	; 0x3e
    a5e4:	e5d3103f 	ldrb	r1, [r3, #63]	; 0x3f
    a5e8:	e1a01401 	lsl	r1, r1, #8
    a5ec:	e1812002 	orr	r2, r1, r2
    a5f0:	e5d31040 	ldrb	r1, [r3, #64]	; 0x40
    a5f4:	e1a01801 	lsl	r1, r1, #16
    a5f8:	e1812002 	orr	r2, r1, r2
    a5fc:	e5d33041 	ldrb	r3, [r3, #65]	; 0x41
    a600:	e1a03c03 	lsl	r3, r3, #24
    a604:	e1833002 	orr	r3, r3, r2
    a608:	e3530000 	cmp	r3, #0
    a60c:	0a000013 	beq	a660 <KeyboardPoll+0x150>
    a610:	e51b3010 	ldr	r3, [fp, #-16]
    a614:	e5d3203e 	ldrb	r2, [r3, #62]	; 0x3e
    a618:	e5d3103f 	ldrb	r1, [r3, #63]	; 0x3f
    a61c:	e1a01401 	lsl	r1, r1, #8
    a620:	e1812002 	orr	r2, r1, r2
    a624:	e5d31040 	ldrb	r1, [r3, #64]	; 0x40
    a628:	e1a01801 	lsl	r1, r1, #16
    a62c:	e1812002 	orr	r2, r1, r2
    a630:	e5d33041 	ldrb	r3, [r3, #65]	; 0x41
    a634:	e1a03c03 	lsl	r3, r3, #24
    a638:	e1833002 	orr	r3, r3, r2
    a63c:	e5d33028 	ldrb	r3, [r3, #40]	; 0x28
    a640:	e2033001 	and	r3, r3, #1
    a644:	e20310ff 	and	r1, r3, #255	; 0xff
    a648:	e51b2010 	ldr	r2, [fp, #-16]
    a64c:	e5d2301c 	ldrb	r3, [r2, #28]
    a650:	e2011001 	and	r1, r1, #1
    a654:	e3c33001 	bic	r3, r3, #1
    a658:	e1813003 	orr	r3, r1, r3
    a65c:	e5c2301c 	strb	r3, [r2, #28]
    a660:	e51b3010 	ldr	r3, [fp, #-16]
    a664:	e5d32042 	ldrb	r2, [r3, #66]	; 0x42
    a668:	e5d31043 	ldrb	r1, [r3, #67]	; 0x43
    a66c:	e1a01401 	lsl	r1, r1, #8
    a670:	e1812002 	orr	r2, r1, r2
    a674:	e5d31044 	ldrb	r1, [r3, #68]	; 0x44
    a678:	e1a01801 	lsl	r1, r1, #16
    a67c:	e1812002 	orr	r2, r1, r2
    a680:	e5d33045 	ldrb	r3, [r3, #69]	; 0x45
    a684:	e1a03c03 	lsl	r3, r3, #24
    a688:	e1833002 	orr	r3, r3, r2
    a68c:	e3530000 	cmp	r3, #0
    a690:	0a000015 	beq	a6ec <KeyboardPoll+0x1dc>
    a694:	e51b3010 	ldr	r3, [fp, #-16]
    a698:	e5d32042 	ldrb	r2, [r3, #66]	; 0x42
    a69c:	e5d31043 	ldrb	r1, [r3, #67]	; 0x43
    a6a0:	e1a01401 	lsl	r1, r1, #8
    a6a4:	e1812002 	orr	r2, r1, r2
    a6a8:	e5d31044 	ldrb	r1, [r3, #68]	; 0x44
    a6ac:	e1a01801 	lsl	r1, r1, #16
    a6b0:	e1812002 	orr	r2, r1, r2
    a6b4:	e5d33045 	ldrb	r3, [r3, #69]	; 0x45
    a6b8:	e1a03c03 	lsl	r3, r3, #24
    a6bc:	e1833002 	orr	r3, r3, r2
    a6c0:	e5d33028 	ldrb	r3, [r3, #40]	; 0x28
    a6c4:	e2033001 	and	r3, r3, #1
    a6c8:	e20330ff 	and	r3, r3, #255	; 0xff
    a6cc:	e51b1010 	ldr	r1, [fp, #-16]
    a6d0:	e5d1201c 	ldrb	r2, [r1, #28]
    a6d4:	e2033001 	and	r3, r3, #1
    a6d8:	e3c22002 	bic	r2, r2, #2
    a6dc:	e1a03083 	lsl	r3, r3, #1
    a6e0:	e1833002 	orr	r3, r3, r2
    a6e4:	e1a02003 	mov	r2, r3
    a6e8:	e5c1201c 	strb	r2, [r1, #28]
    a6ec:	e51b3010 	ldr	r3, [fp, #-16]
    a6f0:	e5d32046 	ldrb	r2, [r3, #70]	; 0x46
    a6f4:	e5d31047 	ldrb	r1, [r3, #71]	; 0x47
    a6f8:	e1a01401 	lsl	r1, r1, #8
    a6fc:	e1812002 	orr	r2, r1, r2
    a700:	e5d31048 	ldrb	r1, [r3, #72]	; 0x48
    a704:	e1a01801 	lsl	r1, r1, #16
    a708:	e1812002 	orr	r2, r1, r2
    a70c:	e5d33049 	ldrb	r3, [r3, #73]	; 0x49
    a710:	e1a03c03 	lsl	r3, r3, #24
    a714:	e1833002 	orr	r3, r3, r2
    a718:	e3530000 	cmp	r3, #0
    a71c:	0a000015 	beq	a778 <KeyboardPoll+0x268>
    a720:	e51b3010 	ldr	r3, [fp, #-16]
    a724:	e5d32046 	ldrb	r2, [r3, #70]	; 0x46
    a728:	e5d31047 	ldrb	r1, [r3, #71]	; 0x47
    a72c:	e1a01401 	lsl	r1, r1, #8
    a730:	e1812002 	orr	r2, r1, r2
    a734:	e5d31048 	ldrb	r1, [r3, #72]	; 0x48
    a738:	e1a01801 	lsl	r1, r1, #16
    a73c:	e1812002 	orr	r2, r1, r2
    a740:	e5d33049 	ldrb	r3, [r3, #73]	; 0x49
    a744:	e1a03c03 	lsl	r3, r3, #24
    a748:	e1833002 	orr	r3, r3, r2
    a74c:	e5d33028 	ldrb	r3, [r3, #40]	; 0x28
    a750:	e2033001 	and	r3, r3, #1
    a754:	e20330ff 	and	r3, r3, #255	; 0xff
    a758:	e51b1010 	ldr	r1, [fp, #-16]
    a75c:	e5d1201c 	ldrb	r2, [r1, #28]
    a760:	e2033001 	and	r3, r3, #1
    a764:	e3c22004 	bic	r2, r2, #4
    a768:	e1a03103 	lsl	r3, r3, #2
    a76c:	e1833002 	orr	r3, r3, r2
    a770:	e1a02003 	mov	r2, r3
    a774:	e5c1201c 	strb	r2, [r1, #28]
    a778:	e51b3010 	ldr	r3, [fp, #-16]
    a77c:	e5d3204a 	ldrb	r2, [r3, #74]	; 0x4a
    a780:	e5d3104b 	ldrb	r1, [r3, #75]	; 0x4b
    a784:	e1a01401 	lsl	r1, r1, #8
    a788:	e1812002 	orr	r2, r1, r2
    a78c:	e5d3104c 	ldrb	r1, [r3, #76]	; 0x4c
    a790:	e1a01801 	lsl	r1, r1, #16
    a794:	e1812002 	orr	r2, r1, r2
    a798:	e5d3304d 	ldrb	r3, [r3, #77]	; 0x4d
    a79c:	e1a03c03 	lsl	r3, r3, #24
    a7a0:	e1833002 	orr	r3, r3, r2
    a7a4:	e3530000 	cmp	r3, #0
    a7a8:	0a000015 	beq	a804 <KeyboardPoll+0x2f4>
    a7ac:	e51b3010 	ldr	r3, [fp, #-16]
    a7b0:	e5d3204a 	ldrb	r2, [r3, #74]	; 0x4a
    a7b4:	e5d3104b 	ldrb	r1, [r3, #75]	; 0x4b
    a7b8:	e1a01401 	lsl	r1, r1, #8
    a7bc:	e1812002 	orr	r2, r1, r2
    a7c0:	e5d3104c 	ldrb	r1, [r3, #76]	; 0x4c
    a7c4:	e1a01801 	lsl	r1, r1, #16
    a7c8:	e1812002 	orr	r2, r1, r2
    a7cc:	e5d3304d 	ldrb	r3, [r3, #77]	; 0x4d
    a7d0:	e1a03c03 	lsl	r3, r3, #24
    a7d4:	e1833002 	orr	r3, r3, r2
    a7d8:	e5d33028 	ldrb	r3, [r3, #40]	; 0x28
    a7dc:	e2033001 	and	r3, r3, #1
    a7e0:	e20330ff 	and	r3, r3, #255	; 0xff
    a7e4:	e51b1010 	ldr	r1, [fp, #-16]
    a7e8:	e5d1201c 	ldrb	r2, [r1, #28]
    a7ec:	e2033001 	and	r3, r3, #1
    a7f0:	e3c22008 	bic	r2, r2, #8
    a7f4:	e1a03183 	lsl	r3, r3, #3
    a7f8:	e1833002 	orr	r3, r3, r2
    a7fc:	e1a02003 	mov	r2, r3
    a800:	e5c1201c 	strb	r2, [r1, #28]
    a804:	e51b3010 	ldr	r3, [fp, #-16]
    a808:	e5d3204e 	ldrb	r2, [r3, #78]	; 0x4e
    a80c:	e5d3104f 	ldrb	r1, [r3, #79]	; 0x4f
    a810:	e1a01401 	lsl	r1, r1, #8
    a814:	e1812002 	orr	r2, r1, r2
    a818:	e5d31050 	ldrb	r1, [r3, #80]	; 0x50
    a81c:	e1a01801 	lsl	r1, r1, #16
    a820:	e1812002 	orr	r2, r1, r2
    a824:	e5d33051 	ldrb	r3, [r3, #81]	; 0x51
    a828:	e1a03c03 	lsl	r3, r3, #24
    a82c:	e1833002 	orr	r3, r3, r2
    a830:	e3530000 	cmp	r3, #0
    a834:	0a000015 	beq	a890 <KeyboardPoll+0x380>
    a838:	e51b3010 	ldr	r3, [fp, #-16]
    a83c:	e5d3204e 	ldrb	r2, [r3, #78]	; 0x4e
    a840:	e5d3104f 	ldrb	r1, [r3, #79]	; 0x4f
    a844:	e1a01401 	lsl	r1, r1, #8
    a848:	e1812002 	orr	r2, r1, r2
    a84c:	e5d31050 	ldrb	r1, [r3, #80]	; 0x50
    a850:	e1a01801 	lsl	r1, r1, #16
    a854:	e1812002 	orr	r2, r1, r2
    a858:	e5d33051 	ldrb	r3, [r3, #81]	; 0x51
    a85c:	e1a03c03 	lsl	r3, r3, #24
    a860:	e1833002 	orr	r3, r3, r2
    a864:	e5d33028 	ldrb	r3, [r3, #40]	; 0x28
    a868:	e2033001 	and	r3, r3, #1
    a86c:	e20330ff 	and	r3, r3, #255	; 0xff
    a870:	e51b1010 	ldr	r1, [fp, #-16]
    a874:	e5d1201c 	ldrb	r2, [r1, #28]
    a878:	e2033001 	and	r3, r3, #1
    a87c:	e3c22010 	bic	r2, r2, #16
    a880:	e1a03203 	lsl	r3, r3, #4
    a884:	e1833002 	orr	r3, r3, r2
    a888:	e1a02003 	mov	r2, r3
    a88c:	e5c1201c 	strb	r2, [r1, #28]
    a890:	e51b3010 	ldr	r3, [fp, #-16]
    a894:	e5d32052 	ldrb	r2, [r3, #82]	; 0x52
    a898:	e5d31053 	ldrb	r1, [r3, #83]	; 0x53
    a89c:	e1a01401 	lsl	r1, r1, #8
    a8a0:	e1812002 	orr	r2, r1, r2
    a8a4:	e5d31054 	ldrb	r1, [r3, #84]	; 0x54
    a8a8:	e1a01801 	lsl	r1, r1, #16
    a8ac:	e1812002 	orr	r2, r1, r2
    a8b0:	e5d33055 	ldrb	r3, [r3, #85]	; 0x55
    a8b4:	e1a03c03 	lsl	r3, r3, #24
    a8b8:	e1833002 	orr	r3, r3, r2
    a8bc:	e3530000 	cmp	r3, #0
    a8c0:	0a000015 	beq	a91c <KeyboardPoll+0x40c>
    a8c4:	e51b3010 	ldr	r3, [fp, #-16]
    a8c8:	e5d32052 	ldrb	r2, [r3, #82]	; 0x52
    a8cc:	e5d31053 	ldrb	r1, [r3, #83]	; 0x53
    a8d0:	e1a01401 	lsl	r1, r1, #8
    a8d4:	e1812002 	orr	r2, r1, r2
    a8d8:	e5d31054 	ldrb	r1, [r3, #84]	; 0x54
    a8dc:	e1a01801 	lsl	r1, r1, #16
    a8e0:	e1812002 	orr	r2, r1, r2
    a8e4:	e5d33055 	ldrb	r3, [r3, #85]	; 0x55
    a8e8:	e1a03c03 	lsl	r3, r3, #24
    a8ec:	e1833002 	orr	r3, r3, r2
    a8f0:	e5d33028 	ldrb	r3, [r3, #40]	; 0x28
    a8f4:	e2033001 	and	r3, r3, #1
    a8f8:	e20330ff 	and	r3, r3, #255	; 0xff
    a8fc:	e51b1010 	ldr	r1, [fp, #-16]
    a900:	e5d1201c 	ldrb	r2, [r1, #28]
    a904:	e2033001 	and	r3, r3, #1
    a908:	e3c22020 	bic	r2, r2, #32
    a90c:	e1a03283 	lsl	r3, r3, #5
    a910:	e1833002 	orr	r3, r3, r2
    a914:	e1a02003 	mov	r2, r3
    a918:	e5c1201c 	strb	r2, [r1, #28]
    a91c:	e51b3010 	ldr	r3, [fp, #-16]
    a920:	e5d32056 	ldrb	r2, [r3, #86]	; 0x56
    a924:	e5d31057 	ldrb	r1, [r3, #87]	; 0x57
    a928:	e1a01401 	lsl	r1, r1, #8
    a92c:	e1812002 	orr	r2, r1, r2
    a930:	e5d31058 	ldrb	r1, [r3, #88]	; 0x58
    a934:	e1a01801 	lsl	r1, r1, #16
    a938:	e1812002 	orr	r2, r1, r2
    a93c:	e5d33059 	ldrb	r3, [r3, #89]	; 0x59
    a940:	e1a03c03 	lsl	r3, r3, #24
    a944:	e1833002 	orr	r3, r3, r2
    a948:	e3530000 	cmp	r3, #0
    a94c:	0a000015 	beq	a9a8 <KeyboardPoll+0x498>
    a950:	e51b3010 	ldr	r3, [fp, #-16]
    a954:	e5d32056 	ldrb	r2, [r3, #86]	; 0x56
    a958:	e5d31057 	ldrb	r1, [r3, #87]	; 0x57
    a95c:	e1a01401 	lsl	r1, r1, #8
    a960:	e1812002 	orr	r2, r1, r2
    a964:	e5d31058 	ldrb	r1, [r3, #88]	; 0x58
    a968:	e1a01801 	lsl	r1, r1, #16
    a96c:	e1812002 	orr	r2, r1, r2
    a970:	e5d33059 	ldrb	r3, [r3, #89]	; 0x59
    a974:	e1a03c03 	lsl	r3, r3, #24
    a978:	e1833002 	orr	r3, r3, r2
    a97c:	e5d33028 	ldrb	r3, [r3, #40]	; 0x28
    a980:	e2033001 	and	r3, r3, #1
    a984:	e20330ff 	and	r3, r3, #255	; 0xff
    a988:	e51b1010 	ldr	r1, [fp, #-16]
    a98c:	e5d1201c 	ldrb	r2, [r1, #28]
    a990:	e2033001 	and	r3, r3, #1
    a994:	e3c22040 	bic	r2, r2, #64	; 0x40
    a998:	e1a03303 	lsl	r3, r3, #6
    a99c:	e1833002 	orr	r3, r3, r2
    a9a0:	e1a02003 	mov	r2, r3
    a9a4:	e5c1201c 	strb	r2, [r1, #28]
    a9a8:	e51b3010 	ldr	r3, [fp, #-16]
    a9ac:	e5d3205a 	ldrb	r2, [r3, #90]	; 0x5a
    a9b0:	e5d3105b 	ldrb	r1, [r3, #91]	; 0x5b
    a9b4:	e1a01401 	lsl	r1, r1, #8
    a9b8:	e1812002 	orr	r2, r1, r2
    a9bc:	e5d3105c 	ldrb	r1, [r3, #92]	; 0x5c
    a9c0:	e1a01801 	lsl	r1, r1, #16
    a9c4:	e1812002 	orr	r2, r1, r2
    a9c8:	e5d3305d 	ldrb	r3, [r3, #93]	; 0x5d
    a9cc:	e1a03c03 	lsl	r3, r3, #24
    a9d0:	e1833002 	orr	r3, r3, r2
    a9d4:	e3530000 	cmp	r3, #0
    a9d8:	0a000015 	beq	aa34 <KeyboardPoll+0x524>
    a9dc:	e51b3010 	ldr	r3, [fp, #-16]
    a9e0:	e5d3205a 	ldrb	r2, [r3, #90]	; 0x5a
    a9e4:	e5d3105b 	ldrb	r1, [r3, #91]	; 0x5b
    a9e8:	e1a01401 	lsl	r1, r1, #8
    a9ec:	e1812002 	orr	r2, r1, r2
    a9f0:	e5d3105c 	ldrb	r1, [r3, #92]	; 0x5c
    a9f4:	e1a01801 	lsl	r1, r1, #16
    a9f8:	e1812002 	orr	r2, r1, r2
    a9fc:	e5d3305d 	ldrb	r3, [r3, #93]	; 0x5d
    aa00:	e1a03c03 	lsl	r3, r3, #24
    aa04:	e1833002 	orr	r3, r3, r2
    aa08:	e5d33028 	ldrb	r3, [r3, #40]	; 0x28
    aa0c:	e2033001 	and	r3, r3, #1
    aa10:	e20330ff 	and	r3, r3, #255	; 0xff
    aa14:	e51b1010 	ldr	r1, [fp, #-16]
    aa18:	e5d1201c 	ldrb	r2, [r1, #28]
    aa1c:	e2033001 	and	r3, r3, #1
    aa20:	e3c22080 	bic	r2, r2, #128	; 0x80
    aa24:	e1a03383 	lsl	r3, r3, #7
    aa28:	e1833002 	orr	r3, r3, r2
    aa2c:	e1a02003 	mov	r2, r3
    aa30:	e5c1201c 	strb	r2, [r1, #28]
    aa34:	e51b3010 	ldr	r3, [fp, #-16]
    aa38:	e5d3205e 	ldrb	r2, [r3, #94]	; 0x5e
    aa3c:	e5d3105f 	ldrb	r1, [r3, #95]	; 0x5f
    aa40:	e1a01401 	lsl	r1, r1, #8
    aa44:	e1812002 	orr	r2, r1, r2
    aa48:	e5d31060 	ldrb	r1, [r3, #96]	; 0x60
    aa4c:	e1a01801 	lsl	r1, r1, #16
    aa50:	e1812002 	orr	r2, r1, r2
    aa54:	e5d33061 	ldrb	r3, [r3, #97]	; 0x61
    aa58:	e1a03c03 	lsl	r3, r3, #24
    aa5c:	e1833002 	orr	r3, r3, r2
    aa60:	e3530000 	cmp	r3, #0
    aa64:	0a00008c 	beq	ac9c <KeyboardPoll+0x78c>
    aa68:	e51b3010 	ldr	r3, [fp, #-16]
    aa6c:	e5d3205e 	ldrb	r2, [r3, #94]	; 0x5e
    aa70:	e5d3105f 	ldrb	r1, [r3, #95]	; 0x5f
    aa74:	e1a01401 	lsl	r1, r1, #8
    aa78:	e1812002 	orr	r2, r1, r2
    aa7c:	e5d31060 	ldrb	r1, [r3, #96]	; 0x60
    aa80:	e1a01801 	lsl	r1, r1, #16
    aa84:	e1812002 	orr	r2, r1, r2
    aa88:	e5d33061 	ldrb	r3, [r3, #97]	; 0x61
    aa8c:	e1a03c03 	lsl	r3, r3, #24
    aa90:	e1833002 	orr	r3, r3, r2
    aa94:	e3a01000 	mov	r1, #0
    aa98:	e1a00003 	mov	r0, r3
    aa9c:	eb0023cb 	bl	139d0 <HidGetFieldValue>
    aaa0:	e1a03000 	mov	r3, r0
    aaa4:	e3530001 	cmp	r3, #1
    aaa8:	0a00007b 	beq	ac9c <KeyboardPoll+0x78c>
    aaac:	e51b3010 	ldr	r3, [fp, #-16]
    aab0:	e3a02000 	mov	r2, #0
    aab4:	e5c3200c 	strb	r2, [r3, #12]
    aab8:	e3a02000 	mov	r2, #0
    aabc:	e5c3200d 	strb	r2, [r3, #13]
    aac0:	e3a02000 	mov	r2, #0
    aac4:	e5c3200e 	strb	r2, [r3, #14]
    aac8:	e3a02000 	mov	r2, #0
    aacc:	e5c3200f 	strb	r2, [r3, #15]
    aad0:	e3a03000 	mov	r3, #0
    aad4:	e50b3008 	str	r3, [fp, #-8]
    aad8:	ea00005c 	b	ac50 <KeyboardPoll+0x740>
    aadc:	e51b3010 	ldr	r3, [fp, #-16]
    aae0:	e5d3205e 	ldrb	r2, [r3, #94]	; 0x5e
    aae4:	e5d3105f 	ldrb	r1, [r3, #95]	; 0x5f
    aae8:	e1a01401 	lsl	r1, r1, #8
    aaec:	e1812002 	orr	r2, r1, r2
    aaf0:	e5d31060 	ldrb	r1, [r3, #96]	; 0x60
    aaf4:	e1a01801 	lsl	r1, r1, #16
    aaf8:	e1812002 	orr	r2, r1, r2
    aafc:	e5d33061 	ldrb	r3, [r3, #97]	; 0x61
    ab00:	e1a03c03 	lsl	r3, r3, #24
    ab04:	e1833002 	orr	r3, r3, r2
    ab08:	e51b1008 	ldr	r1, [fp, #-8]
    ab0c:	e1a00003 	mov	r0, r3
    ab10:	eb0023ae 	bl	139d0 <HidGetFieldValue>
    ab14:	e1a03000 	mov	r3, r0
    ab18:	e1a03803 	lsl	r3, r3, #16
    ab1c:	e1a02823 	lsr	r2, r3, #16
    ab20:	e51b1010 	ldr	r1, [fp, #-16]
    ab24:	e51b3008 	ldr	r3, [fp, #-8]
    ab28:	e2833008 	add	r3, r3, #8
    ab2c:	e1a03083 	lsl	r3, r3, #1
    ab30:	e0813003 	add	r3, r1, r3
    ab34:	e20210ff 	and	r1, r2, #255	; 0xff
    ab38:	e3a00000 	mov	r0, #0
    ab3c:	e1801001 	orr	r1, r0, r1
    ab40:	e5c31000 	strb	r1, [r3]
    ab44:	e1a02422 	lsr	r2, r2, #8
    ab48:	e1a02802 	lsl	r2, r2, #16
    ab4c:	e1a02822 	lsr	r2, r2, #16
    ab50:	e3a01000 	mov	r1, #0
    ab54:	e1812002 	orr	r2, r1, r2
    ab58:	e5c32001 	strb	r2, [r3, #1]
    ab5c:	e51b2010 	ldr	r2, [fp, #-16]
    ab60:	e51b3008 	ldr	r3, [fp, #-8]
    ab64:	e2833008 	add	r3, r3, #8
    ab68:	e1a03083 	lsl	r3, r3, #1
    ab6c:	e0823003 	add	r3, r2, r3
    ab70:	e5d32000 	ldrb	r2, [r3]
    ab74:	e5d33001 	ldrb	r3, [r3, #1]
    ab78:	e1a03403 	lsl	r3, r3, #8
    ab7c:	e1833002 	orr	r3, r3, r2
    ab80:	e1a03803 	lsl	r3, r3, #16
    ab84:	e1a03823 	lsr	r3, r3, #16
    ab88:	e1a00003 	mov	r0, r3
    ab8c:	e51b3010 	ldr	r3, [fp, #-16]
    ab90:	e5d3205e 	ldrb	r2, [r3, #94]	; 0x5e
    ab94:	e5d3105f 	ldrb	r1, [r3, #95]	; 0x5f
    ab98:	e1a01401 	lsl	r1, r1, #8
    ab9c:	e1812002 	orr	r2, r1, r2
    aba0:	e5d31060 	ldrb	r1, [r3, #96]	; 0x60
    aba4:	e1a01801 	lsl	r1, r1, #16
    aba8:	e1812002 	orr	r2, r1, r2
    abac:	e5d33061 	ldrb	r3, [r3, #97]	; 0x61
    abb0:	e1a03c03 	lsl	r3, r3, #24
    abb4:	e1833002 	orr	r3, r3, r2
    abb8:	e1d330b8 	ldrh	r3, [r3, #8]
    abbc:	e0803003 	add	r3, r0, r3
    abc0:	e3530000 	cmp	r3, #0
    abc4:	0a00001e 	beq	ac44 <KeyboardPoll+0x734>
    abc8:	e51b3010 	ldr	r3, [fp, #-16]
    abcc:	e5d3200c 	ldrb	r2, [r3, #12]
    abd0:	e5d3100d 	ldrb	r1, [r3, #13]
    abd4:	e1a01401 	lsl	r1, r1, #8
    abd8:	e1812002 	orr	r2, r1, r2
    abdc:	e5d3100e 	ldrb	r1, [r3, #14]
    abe0:	e1a01801 	lsl	r1, r1, #16
    abe4:	e1812002 	orr	r2, r1, r2
    abe8:	e5d3300f 	ldrb	r3, [r3, #15]
    abec:	e1a03c03 	lsl	r3, r3, #24
    abf0:	e1833002 	orr	r3, r3, r2
    abf4:	e2832001 	add	r2, r3, #1
    abf8:	e51b3010 	ldr	r3, [fp, #-16]
    abfc:	e20210ff 	and	r1, r2, #255	; 0xff
    ac00:	e3a00000 	mov	r0, #0
    ac04:	e1801001 	orr	r1, r0, r1
    ac08:	e5c3100c 	strb	r1, [r3, #12]
    ac0c:	e1a01422 	lsr	r1, r2, #8
    ac10:	e20110ff 	and	r1, r1, #255	; 0xff
    ac14:	e3a00000 	mov	r0, #0
    ac18:	e1801001 	orr	r1, r0, r1
    ac1c:	e5c3100d 	strb	r1, [r3, #13]
    ac20:	e1a01822 	lsr	r1, r2, #16
    ac24:	e20110ff 	and	r1, r1, #255	; 0xff
    ac28:	e3a00000 	mov	r0, #0
    ac2c:	e1801001 	orr	r1, r0, r1
    ac30:	e5c3100e 	strb	r1, [r3, #14]
    ac34:	e1a02c22 	lsr	r2, r2, #24
    ac38:	e3a01000 	mov	r1, #0
    ac3c:	e1812002 	orr	r2, r1, r2
    ac40:	e5c3200f 	strb	r2, [r3, #15]
    ac44:	e51b3008 	ldr	r3, [fp, #-8]
    ac48:	e2833001 	add	r3, r3, #1
    ac4c:	e50b3008 	str	r3, [fp, #-8]
    ac50:	e51b3008 	ldr	r3, [fp, #-8]
    ac54:	e3530005 	cmp	r3, #5
    ac58:	8a00000f 	bhi	ac9c <KeyboardPoll+0x78c>
    ac5c:	e51b3010 	ldr	r3, [fp, #-16]
    ac60:	e5d3205e 	ldrb	r2, [r3, #94]	; 0x5e
    ac64:	e5d3105f 	ldrb	r1, [r3, #95]	; 0x5f
    ac68:	e1a01401 	lsl	r1, r1, #8
    ac6c:	e1812002 	orr	r2, r1, r2
    ac70:	e5d31060 	ldrb	r1, [r3, #96]	; 0x60
    ac74:	e1a01801 	lsl	r1, r1, #16
    ac78:	e1812002 	orr	r2, r1, r2
    ac7c:	e5d33061 	ldrb	r3, [r3, #97]	; 0x61
    ac80:	e1a03c03 	lsl	r3, r3, #24
    ac84:	e1833002 	orr	r3, r3, r2
    ac88:	e5d33002 	ldrb	r3, [r3, #2]
    ac8c:	e1a02003 	mov	r2, r3
    ac90:	e51b3008 	ldr	r3, [fp, #-8]
    ac94:	e1520003 	cmp	r2, r3
    ac98:	8affff8f 	bhi	aadc <KeyboardPoll+0x5cc>
    ac9c:	e3a03000 	mov	r3, #0
    aca0:	e1a00003 	mov	r0, r3
    aca4:	e24bd004 	sub	sp, fp, #4
    aca8:	e8bd4800 	pop	{fp, lr}
    acac:	e12fff1e 	bx	lr
    acb0:	00024b7c 	.word	0x00024b7c

0000acb4 <KeyboardGetModifiers>:
    acb4:	e92d4800 	push	{fp, lr}
    acb8:	e28db004 	add	fp, sp, #4
    acbc:	e24dd010 	sub	sp, sp, #16
    acc0:	e50b0010 	str	r0, [fp, #-16]
    acc4:	e51b0010 	ldr	r0, [fp, #-16]
    acc8:	ebfff858 	bl	8e30 <KeyboardIndex>
    accc:	e50b0008 	str	r0, [fp, #-8]
    acd0:	e51b3008 	ldr	r3, [fp, #-8]
    acd4:	e3730001 	cmn	r3, #1
    acd8:	1a000001 	bne	ace4 <KeyboardGetModifiers+0x30>
    acdc:	e3a03000 	mov	r3, #0
    ace0:	ea000010 	b	ad28 <KeyboardGetModifiers+0x74>
    ace4:	e59f204c 	ldr	r2, [pc, #76]	; ad38 <KeyboardGetModifiers+0x84>
    ace8:	e51b3008 	ldr	r3, [fp, #-8]
    acec:	e7923103 	ldr	r3, [r2, r3, lsl #2]
    acf0:	e5933414 	ldr	r3, [r3, #1044]	; 0x414
    acf4:	e5d32010 	ldrb	r2, [r3, #16]
    acf8:	e5d31011 	ldrb	r1, [r3, #17]
    acfc:	e1a01401 	lsl	r1, r1, #8
    ad00:	e1812002 	orr	r2, r1, r2
    ad04:	e5d31012 	ldrb	r1, [r3, #18]
    ad08:	e1a01801 	lsl	r1, r1, #16
    ad0c:	e1812002 	orr	r2, r1, r2
    ad10:	e5d33013 	ldrb	r3, [r3, #19]
    ad14:	e1a03c03 	lsl	r3, r3, #24
    ad18:	e1833002 	orr	r3, r3, r2
    ad1c:	e50b300c 	str	r3, [fp, #-12]
    ad20:	e51b300c 	ldr	r3, [fp, #-12]
    ad24:	e5d3301c 	ldrb	r3, [r3, #28]
    ad28:	e1a00003 	mov	r0, r3
    ad2c:	e24bd004 	sub	sp, fp, #4
    ad30:	e8bd4800 	pop	{fp, lr}
    ad34:	e12fff1e 	bx	lr
    ad38:	00024b7c 	.word	0x00024b7c

0000ad3c <KeyboardGetKeyDownCount>:
    ad3c:	e92d4800 	push	{fp, lr}
    ad40:	e28db004 	add	fp, sp, #4
    ad44:	e24dd010 	sub	sp, sp, #16
    ad48:	e50b0010 	str	r0, [fp, #-16]
    ad4c:	e51b0010 	ldr	r0, [fp, #-16]
    ad50:	ebfff836 	bl	8e30 <KeyboardIndex>
    ad54:	e50b0008 	str	r0, [fp, #-8]
    ad58:	e51b3008 	ldr	r3, [fp, #-8]
    ad5c:	e3730001 	cmn	r3, #1
    ad60:	1a000001 	bne	ad6c <KeyboardGetKeyDownCount+0x30>
    ad64:	e3a03000 	mov	r3, #0
    ad68:	ea000019 	b	add4 <KeyboardGetKeyDownCount+0x98>
    ad6c:	e59f2070 	ldr	r2, [pc, #112]	; ade4 <KeyboardGetKeyDownCount+0xa8>
    ad70:	e51b3008 	ldr	r3, [fp, #-8]
    ad74:	e7923103 	ldr	r3, [r2, r3, lsl #2]
    ad78:	e5933414 	ldr	r3, [r3, #1044]	; 0x414
    ad7c:	e5d32010 	ldrb	r2, [r3, #16]
    ad80:	e5d31011 	ldrb	r1, [r3, #17]
    ad84:	e1a01401 	lsl	r1, r1, #8
    ad88:	e1812002 	orr	r2, r1, r2
    ad8c:	e5d31012 	ldrb	r1, [r3, #18]
    ad90:	e1a01801 	lsl	r1, r1, #16
    ad94:	e1812002 	orr	r2, r1, r2
    ad98:	e5d33013 	ldrb	r3, [r3, #19]
    ad9c:	e1a03c03 	lsl	r3, r3, #24
    ada0:	e1833002 	orr	r3, r3, r2
    ada4:	e50b300c 	str	r3, [fp, #-12]
    ada8:	e51b300c 	ldr	r3, [fp, #-12]
    adac:	e5d3200c 	ldrb	r2, [r3, #12]
    adb0:	e5d3100d 	ldrb	r1, [r3, #13]
    adb4:	e1a01401 	lsl	r1, r1, #8
    adb8:	e1812002 	orr	r2, r1, r2
    adbc:	e5d3100e 	ldrb	r1, [r3, #14]
    adc0:	e1a01801 	lsl	r1, r1, #16
    adc4:	e1812002 	orr	r2, r1, r2
    adc8:	e5d3300f 	ldrb	r3, [r3, #15]
    adcc:	e1a03c03 	lsl	r3, r3, #24
    add0:	e1833002 	orr	r3, r3, r2
    add4:	e1a00003 	mov	r0, r3
    add8:	e24bd004 	sub	sp, fp, #4
    addc:	e8bd4800 	pop	{fp, lr}
    ade0:	e12fff1e 	bx	lr
    ade4:	00024b7c 	.word	0x00024b7c

0000ade8 <KeyboadGetKeyIsDown>:
    ade8:	e92d4800 	push	{fp, lr}
    adec:	e28db004 	add	fp, sp, #4
    adf0:	e24dd018 	sub	sp, sp, #24
    adf4:	e50b0018 	str	r0, [fp, #-24]	; 0xffffffe8
    adf8:	e1a03001 	mov	r3, r1
    adfc:	e14b31ba 	strh	r3, [fp, #-26]	; 0xffffffe6
    ae00:	e51b0018 	ldr	r0, [fp, #-24]	; 0xffffffe8
    ae04:	ebfff809 	bl	8e30 <KeyboardIndex>
    ae08:	e50b000c 	str	r0, [fp, #-12]
    ae0c:	e51b300c 	ldr	r3, [fp, #-12]
    ae10:	e3730001 	cmn	r3, #1
    ae14:	1a000001 	bne	ae20 <KeyboadGetKeyIsDown+0x38>
    ae18:	e3a03000 	mov	r3, #0
    ae1c:	ea000034 	b	aef4 <KeyboadGetKeyIsDown+0x10c>
    ae20:	e59f20dc 	ldr	r2, [pc, #220]	; af04 <KeyboadGetKeyIsDown+0x11c>
    ae24:	e51b300c 	ldr	r3, [fp, #-12]
    ae28:	e7923103 	ldr	r3, [r2, r3, lsl #2]
    ae2c:	e5933414 	ldr	r3, [r3, #1044]	; 0x414
    ae30:	e5d32010 	ldrb	r2, [r3, #16]
    ae34:	e5d31011 	ldrb	r1, [r3, #17]
    ae38:	e1a01401 	lsl	r1, r1, #8
    ae3c:	e1812002 	orr	r2, r1, r2
    ae40:	e5d31012 	ldrb	r1, [r3, #18]
    ae44:	e1a01801 	lsl	r1, r1, #16
    ae48:	e1812002 	orr	r2, r1, r2
    ae4c:	e5d33013 	ldrb	r3, [r3, #19]
    ae50:	e1a03c03 	lsl	r3, r3, #24
    ae54:	e1833002 	orr	r3, r3, r2
    ae58:	e50b3010 	str	r3, [fp, #-16]
    ae5c:	e3a03000 	mov	r3, #0
    ae60:	e50b3008 	str	r3, [fp, #-8]
    ae64:	ea000012 	b	aeb4 <KeyboadGetKeyIsDown+0xcc>
    ae68:	e51b2010 	ldr	r2, [fp, #-16]
    ae6c:	e51b3008 	ldr	r3, [fp, #-8]
    ae70:	e2833008 	add	r3, r3, #8
    ae74:	e1a03083 	lsl	r3, r3, #1
    ae78:	e0823003 	add	r3, r2, r3
    ae7c:	e5d32000 	ldrb	r2, [r3]
    ae80:	e5d33001 	ldrb	r3, [r3, #1]
    ae84:	e1a03403 	lsl	r3, r3, #8
    ae88:	e1833002 	orr	r3, r3, r2
    ae8c:	e1a03803 	lsl	r3, r3, #16
    ae90:	e1a03823 	lsr	r3, r3, #16
    ae94:	e15b21ba 	ldrh	r2, [fp, #-26]	; 0xffffffe6
    ae98:	e1520003 	cmp	r2, r3
    ae9c:	1a000001 	bne	aea8 <KeyboadGetKeyIsDown+0xc0>
    aea0:	e3a03001 	mov	r3, #1
    aea4:	ea000012 	b	aef4 <KeyboadGetKeyIsDown+0x10c>
    aea8:	e51b3008 	ldr	r3, [fp, #-8]
    aeac:	e2833001 	add	r3, r3, #1
    aeb0:	e50b3008 	str	r3, [fp, #-8]
    aeb4:	e51b3010 	ldr	r3, [fp, #-16]
    aeb8:	e5d3200c 	ldrb	r2, [r3, #12]
    aebc:	e5d3100d 	ldrb	r1, [r3, #13]
    aec0:	e1a01401 	lsl	r1, r1, #8
    aec4:	e1812002 	orr	r2, r1, r2
    aec8:	e5d3100e 	ldrb	r1, [r3, #14]
    aecc:	e1a01801 	lsl	r1, r1, #16
    aed0:	e1812002 	orr	r2, r1, r2
    aed4:	e5d3300f 	ldrb	r3, [r3, #15]
    aed8:	e1a03c03 	lsl	r3, r3, #24
    aedc:	e1833002 	orr	r3, r3, r2
    aee0:	e1a02003 	mov	r2, r3
    aee4:	e51b3008 	ldr	r3, [fp, #-8]
    aee8:	e1520003 	cmp	r2, r3
    aeec:	8affffdd 	bhi	ae68 <KeyboadGetKeyIsDown+0x80>
    aef0:	e3a03000 	mov	r3, #0
    aef4:	e1a00003 	mov	r0, r3
    aef8:	e24bd004 	sub	sp, fp, #4
    aefc:	e8bd4800 	pop	{fp, lr}
    af00:	e12fff1e 	bx	lr
    af04:	00024b7c 	.word	0x00024b7c

0000af08 <KeyboardGetKeyDown>:
    af08:	e92d4800 	push	{fp, lr}
    af0c:	e28db004 	add	fp, sp, #4
    af10:	e24dd018 	sub	sp, sp, #24
    af14:	e50b0018 	str	r0, [fp, #-24]	; 0xffffffe8
    af18:	e50b101c 	str	r1, [fp, #-28]	; 0xffffffe4
    af1c:	e51b0018 	ldr	r0, [fp, #-24]	; 0xffffffe8
    af20:	ebffff85 	bl	ad3c <KeyboardGetKeyDownCount>
    af24:	e50b0008 	str	r0, [fp, #-8]
    af28:	e51b0018 	ldr	r0, [fp, #-24]	; 0xffffffe8
    af2c:	ebfff7bf 	bl	8e30 <KeyboardIndex>
    af30:	e50b000c 	str	r0, [fp, #-12]
    af34:	e51b300c 	ldr	r3, [fp, #-12]
    af38:	e3730001 	cmn	r3, #1
    af3c:	1a000001 	bne	af48 <KeyboardGetKeyDown+0x40>
    af40:	e3a03000 	mov	r3, #0
    af44:	ea00001f 	b	afc8 <KeyboardGetKeyDown+0xc0>
    af48:	e59f2088 	ldr	r2, [pc, #136]	; afd8 <KeyboardGetKeyDown+0xd0>
    af4c:	e51b300c 	ldr	r3, [fp, #-12]
    af50:	e7923103 	ldr	r3, [r2, r3, lsl #2]
    af54:	e5933414 	ldr	r3, [r3, #1044]	; 0x414
    af58:	e5d32010 	ldrb	r2, [r3, #16]
    af5c:	e5d31011 	ldrb	r1, [r3, #17]
    af60:	e1a01401 	lsl	r1, r1, #8
    af64:	e1812002 	orr	r2, r1, r2
    af68:	e5d31012 	ldrb	r1, [r3, #18]
    af6c:	e1a01801 	lsl	r1, r1, #16
    af70:	e1812002 	orr	r2, r1, r2
    af74:	e5d33013 	ldrb	r3, [r3, #19]
    af78:	e1a03c03 	lsl	r3, r3, #24
    af7c:	e1833002 	orr	r3, r3, r2
    af80:	e50b3010 	str	r3, [fp, #-16]
    af84:	e51b201c 	ldr	r2, [fp, #-28]	; 0xffffffe4
    af88:	e51b3008 	ldr	r3, [fp, #-8]
    af8c:	e1520003 	cmp	r2, r3
    af90:	3a000001 	bcc	af9c <KeyboardGetKeyDown+0x94>
    af94:	e3a03000 	mov	r3, #0
    af98:	ea00000a 	b	afc8 <KeyboardGetKeyDown+0xc0>
    af9c:	e51b2010 	ldr	r2, [fp, #-16]
    afa0:	e51b301c 	ldr	r3, [fp, #-28]	; 0xffffffe4
    afa4:	e2833008 	add	r3, r3, #8
    afa8:	e1a03083 	lsl	r3, r3, #1
    afac:	e0823003 	add	r3, r2, r3
    afb0:	e5d32000 	ldrb	r2, [r3]
    afb4:	e5d33001 	ldrb	r3, [r3, #1]
    afb8:	e1a03403 	lsl	r3, r3, #8
    afbc:	e1833002 	orr	r3, r3, r2
    afc0:	e1a03803 	lsl	r3, r3, #16
    afc4:	e1a03823 	lsr	r3, r3, #16
    afc8:	e1a00003 	mov	r0, r3
    afcc:	e24bd004 	sub	sp, fp, #4
    afd0:	e8bd4800 	pop	{fp, lr}
    afd4:	e12fff1e 	bx	lr
    afd8:	00024b7c 	.word	0x00024b7c

0000afdc <MemoryReserve>:
    afdc:	e52db004 	push	{fp}		; (str fp, [sp, #-4]!)
    afe0:	e28db000 	add	fp, sp, #0
    afe4:	e24dd00c 	sub	sp, sp, #12
    afe8:	e50b0008 	str	r0, [fp, #-8]
    afec:	e50b100c 	str	r1, [fp, #-12]
    aff0:	e51b300c 	ldr	r3, [fp, #-12]
    aff4:	e1a00003 	mov	r0, r3
    aff8:	e24bd000 	sub	sp, fp, #0
    affc:	e49db004 	pop	{fp}		; (ldr fp, [sp], #4)
    b000:	e12fff1e 	bx	lr

0000b004 <MemoryAllocate>:
    b004:	e92d4800 	push	{fp, lr}
    b008:	e28db004 	add	fp, sp, #4
    b00c:	e24dd010 	sub	sp, sp, #16
    b010:	e50b0010 	str	r0, [fp, #-16]
    b014:	e59f3974 	ldr	r3, [pc, #2420]	; b990 <MemoryAllocate+0x98c>
    b018:	e5933000 	ldr	r3, [r3]
    b01c:	e3530000 	cmp	r3, #0
    b020:	1a000008 	bne	b048 <MemoryAllocate+0x44>
    b024:	e59f1968 	ldr	r1, [pc, #2408]	; b994 <MemoryAllocate+0x990>
    b028:	e3a00901 	mov	r0, #16384	; 0x4000
    b02c:	ebffffea 	bl	afdc <MemoryReserve>
    b030:	e59f1960 	ldr	r1, [pc, #2400]	; b998 <MemoryAllocate+0x994>
    b034:	e3a00b03 	mov	r0, #3072	; 0xc00
    b038:	ebffffe7 	bl	afdc <MemoryReserve>
    b03c:	e59f394c 	ldr	r3, [pc, #2380]	; b990 <MemoryAllocate+0x98c>
    b040:	e59f2950 	ldr	r2, [pc, #2384]	; b998 <MemoryAllocate+0x994>
    b044:	e5832000 	str	r2, [r3]
    b048:	e51b3010 	ldr	r3, [fp, #-16]
    b04c:	e2633000 	rsb	r3, r3, #0
    b050:	e2033007 	and	r3, r3, #7
    b054:	e51b2010 	ldr	r2, [fp, #-16]
    b058:	e0823003 	add	r3, r2, r3
    b05c:	e50b3010 	str	r3, [fp, #-16]
    b060:	e59f3934 	ldr	r3, [pc, #2356]	; b99c <MemoryAllocate+0x998>
    b064:	e5932000 	ldr	r2, [r3]
    b068:	e51b3010 	ldr	r3, [fp, #-16]
    b06c:	e0823003 	add	r3, r2, r3
    b070:	e3530901 	cmp	r3, #16384	; 0x4000
    b074:	9a000001 	bls	b080 <MemoryAllocate+0x7c>
    b078:	e3a03000 	mov	r3, #0
    b07c:	ea00023f 	b	b980 <MemoryAllocate+0x97c>
    b080:	e59f3908 	ldr	r3, [pc, #2312]	; b990 <MemoryAllocate+0x98c>
    b084:	e5933000 	ldr	r3, [r3]
    b088:	e3730001 	cmn	r3, #1
    b08c:	1a000001 	bne	b098 <MemoryAllocate+0x94>
    b090:	e3a03000 	mov	r3, #0
    b094:	ea000239 	b	b980 <MemoryAllocate+0x97c>
    b098:	e59f3900 	ldr	r3, [pc, #2304]	; b9a0 <MemoryAllocate+0x99c>
    b09c:	e5933000 	ldr	r3, [r3]
    b0a0:	e50b3008 	str	r3, [fp, #-8]
    b0a4:	ea0001c7 	b	b7c8 <MemoryAllocate+0x7c4>
    b0a8:	e51b3008 	ldr	r3, [fp, #-8]
    b0ac:	e5d32008 	ldrb	r2, [r3, #8]
    b0b0:	e5d31009 	ldrb	r1, [r3, #9]
    b0b4:	e1a01401 	lsl	r1, r1, #8
    b0b8:	e1812002 	orr	r2, r1, r2
    b0bc:	e5d3100a 	ldrb	r1, [r3, #10]
    b0c0:	e1a01801 	lsl	r1, r1, #16
    b0c4:	e1812002 	orr	r2, r1, r2
    b0c8:	e5d3300b 	ldrb	r3, [r3, #11]
    b0cc:	e1a03c03 	lsl	r3, r3, #24
    b0d0:	e1833002 	orr	r3, r3, r2
    b0d4:	e3730001 	cmn	r3, #1
    b0d8:	0a0000ec 	beq	b490 <MemoryAllocate+0x48c>
    b0dc:	e51b3008 	ldr	r3, [fp, #-8]
    b0e0:	e5d32008 	ldrb	r2, [r3, #8]
    b0e4:	e5d31009 	ldrb	r1, [r3, #9]
    b0e8:	e1a01401 	lsl	r1, r1, #8
    b0ec:	e1812002 	orr	r2, r1, r2
    b0f0:	e5d3100a 	ldrb	r1, [r3, #10]
    b0f4:	e1a01801 	lsl	r1, r1, #16
    b0f8:	e1812002 	orr	r2, r1, r2
    b0fc:	e5d3300b 	ldrb	r3, [r3, #11]
    b100:	e1a03c03 	lsl	r3, r3, #24
    b104:	e1833002 	orr	r3, r3, r2
    b108:	e5d32004 	ldrb	r2, [r3, #4]
    b10c:	e5d31005 	ldrb	r1, [r3, #5]
    b110:	e1a01401 	lsl	r1, r1, #8
    b114:	e1812002 	orr	r2, r1, r2
    b118:	e5d31006 	ldrb	r1, [r3, #6]
    b11c:	e1a01801 	lsl	r1, r1, #16
    b120:	e1812002 	orr	r2, r1, r2
    b124:	e5d33007 	ldrb	r3, [r3, #7]
    b128:	e1a03c03 	lsl	r3, r3, #24
    b12c:	e1833002 	orr	r3, r3, r2
    b130:	e1a00003 	mov	r0, r3
    b134:	e51b3008 	ldr	r3, [fp, #-8]
    b138:	e5d32004 	ldrb	r2, [r3, #4]
    b13c:	e5d31005 	ldrb	r1, [r3, #5]
    b140:	e1a01401 	lsl	r1, r1, #8
    b144:	e1812002 	orr	r2, r1, r2
    b148:	e5d31006 	ldrb	r1, [r3, #6]
    b14c:	e1a01801 	lsl	r1, r1, #16
    b150:	e1812002 	orr	r2, r1, r2
    b154:	e5d33007 	ldrb	r3, [r3, #7]
    b158:	e1a03c03 	lsl	r3, r3, #24
    b15c:	e1833002 	orr	r3, r3, r2
    b160:	e0632000 	rsb	r2, r3, r0
    b164:	e51b3008 	ldr	r3, [fp, #-8]
    b168:	e5d31000 	ldrb	r1, [r3]
    b16c:	e5d30001 	ldrb	r0, [r3, #1]
    b170:	e1a00400 	lsl	r0, r0, #8
    b174:	e1801001 	orr	r1, r0, r1
    b178:	e5d30002 	ldrb	r0, [r3, #2]
    b17c:	e1a00800 	lsl	r0, r0, #16
    b180:	e1801001 	orr	r1, r0, r1
    b184:	e5d33003 	ldrb	r3, [r3, #3]
    b188:	e1a03c03 	lsl	r3, r3, #24
    b18c:	e1833001 	orr	r3, r3, r1
    b190:	e0632002 	rsb	r2, r3, r2
    b194:	e51b3010 	ldr	r3, [fp, #-16]
    b198:	e1520003 	cmp	r2, r3
    b19c:	3a0000ae 	bcc	b45c <MemoryAllocate+0x458>
    b1a0:	e59f37e8 	ldr	r3, [pc, #2024]	; b990 <MemoryAllocate+0x98c>
    b1a4:	e5933000 	ldr	r3, [r3]
    b1a8:	e51b2008 	ldr	r2, [fp, #-8]
    b1ac:	e5d21004 	ldrb	r1, [r2, #4]
    b1b0:	e5d20005 	ldrb	r0, [r2, #5]
    b1b4:	e1a00400 	lsl	r0, r0, #8
    b1b8:	e1801001 	orr	r1, r0, r1
    b1bc:	e5d20006 	ldrb	r0, [r2, #6]
    b1c0:	e1a00800 	lsl	r0, r0, #16
    b1c4:	e1801001 	orr	r1, r0, r1
    b1c8:	e5d22007 	ldrb	r2, [r2, #7]
    b1cc:	e1a02c02 	lsl	r2, r2, #24
    b1d0:	e1822001 	orr	r2, r2, r1
    b1d4:	e1a0c002 	mov	ip, r2
    b1d8:	e51b2008 	ldr	r2, [fp, #-8]
    b1dc:	e5d21000 	ldrb	r1, [r2]
    b1e0:	e5d20001 	ldrb	r0, [r2, #1]
    b1e4:	e1a00400 	lsl	r0, r0, #8
    b1e8:	e1801001 	orr	r1, r0, r1
    b1ec:	e5d20002 	ldrb	r0, [r2, #2]
    b1f0:	e1a00800 	lsl	r0, r0, #16
    b1f4:	e1801001 	orr	r1, r0, r1
    b1f8:	e5d22003 	ldrb	r2, [r2, #3]
    b1fc:	e1a02c02 	lsl	r2, r2, #24
    b200:	e1822001 	orr	r2, r2, r1
    b204:	e08c2002 	add	r2, ip, r2
    b208:	e20210ff 	and	r1, r2, #255	; 0xff
    b20c:	e3a00000 	mov	r0, #0
    b210:	e1801001 	orr	r1, r0, r1
    b214:	e5c31004 	strb	r1, [r3, #4]
    b218:	e1a01422 	lsr	r1, r2, #8
    b21c:	e20110ff 	and	r1, r1, #255	; 0xff
    b220:	e3a00000 	mov	r0, #0
    b224:	e1801001 	orr	r1, r0, r1
    b228:	e5c31005 	strb	r1, [r3, #5]
    b22c:	e1a01822 	lsr	r1, r2, #16
    b230:	e20110ff 	and	r1, r1, #255	; 0xff
    b234:	e3a00000 	mov	r0, #0
    b238:	e1801001 	orr	r1, r0, r1
    b23c:	e5c31006 	strb	r1, [r3, #6]
    b240:	e1a02c22 	lsr	r2, r2, #24
    b244:	e3a01000 	mov	r1, #0
    b248:	e1812002 	orr	r2, r1, r2
    b24c:	e5c32007 	strb	r2, [r3, #7]
    b250:	e59f3738 	ldr	r3, [pc, #1848]	; b990 <MemoryAllocate+0x98c>
    b254:	e5933000 	ldr	r3, [r3]
    b258:	e55b2010 	ldrb	r2, [fp, #-16]
    b25c:	e3a01000 	mov	r1, #0
    b260:	e1812002 	orr	r2, r1, r2
    b264:	e5c32000 	strb	r2, [r3]
    b268:	e55b200f 	ldrb	r2, [fp, #-15]
    b26c:	e3a01000 	mov	r1, #0
    b270:	e1812002 	orr	r2, r1, r2
    b274:	e5c32001 	strb	r2, [r3, #1]
    b278:	e55b200e 	ldrb	r2, [fp, #-14]
    b27c:	e3a01000 	mov	r1, #0
    b280:	e1812002 	orr	r2, r1, r2
    b284:	e5c32002 	strb	r2, [r3, #2]
    b288:	e55b200d 	ldrb	r2, [fp, #-13]
    b28c:	e3a01000 	mov	r1, #0
    b290:	e1812002 	orr	r2, r1, r2
    b294:	e5c32003 	strb	r2, [r3, #3]
    b298:	e59f36f0 	ldr	r3, [pc, #1776]	; b990 <MemoryAllocate+0x98c>
    b29c:	e5933000 	ldr	r3, [r3]
    b2a0:	e50b300c 	str	r3, [fp, #-12]
    b2a4:	e51b300c 	ldr	r3, [fp, #-12]
    b2a8:	e5d32008 	ldrb	r2, [r3, #8]
    b2ac:	e5d31009 	ldrb	r1, [r3, #9]
    b2b0:	e1a01401 	lsl	r1, r1, #8
    b2b4:	e1812002 	orr	r2, r1, r2
    b2b8:	e5d3100a 	ldrb	r1, [r3, #10]
    b2bc:	e1a01801 	lsl	r1, r1, #16
    b2c0:	e1812002 	orr	r2, r1, r2
    b2c4:	e5d3300b 	ldrb	r3, [r3, #11]
    b2c8:	e1a03c03 	lsl	r3, r3, #24
    b2cc:	e1833002 	orr	r3, r3, r2
    b2d0:	e3530000 	cmp	r3, #0
    b2d4:	1a000010 	bne	b31c <MemoryAllocate+0x318>
    b2d8:	e59f36b0 	ldr	r3, [pc, #1712]	; b990 <MemoryAllocate+0x98c>
    b2dc:	e5933000 	ldr	r3, [r3]
    b2e0:	e283300c 	add	r3, r3, #12
    b2e4:	e1a02003 	mov	r2, r3
    b2e8:	e59f36b4 	ldr	r3, [pc, #1716]	; b9a4 <MemoryAllocate+0x9a0>
    b2ec:	e1520003 	cmp	r2, r3
    b2f0:	2a000005 	bcs	b30c <MemoryAllocate+0x308>
    b2f4:	e59f3694 	ldr	r3, [pc, #1684]	; b990 <MemoryAllocate+0x98c>
    b2f8:	e5933000 	ldr	r3, [r3]
    b2fc:	e283300c 	add	r3, r3, #12
    b300:	e59f2688 	ldr	r2, [pc, #1672]	; b990 <MemoryAllocate+0x98c>
    b304:	e5823000 	str	r3, [r2]
    b308:	ea000011 	b	b354 <MemoryAllocate+0x350>
    b30c:	e59f367c 	ldr	r3, [pc, #1660]	; b990 <MemoryAllocate+0x98c>
    b310:	e3e02000 	mvn	r2, #0
    b314:	e5832000 	str	r2, [r3]
    b318:	ea00000d 	b	b354 <MemoryAllocate+0x350>
    b31c:	e51b300c 	ldr	r3, [fp, #-12]
    b320:	e5d32008 	ldrb	r2, [r3, #8]
    b324:	e5d31009 	ldrb	r1, [r3, #9]
    b328:	e1a01401 	lsl	r1, r1, #8
    b32c:	e1812002 	orr	r2, r1, r2
    b330:	e5d3100a 	ldrb	r1, [r3, #10]
    b334:	e1a01801 	lsl	r1, r1, #16
    b338:	e1812002 	orr	r2, r1, r2
    b33c:	e5d3300b 	ldrb	r3, [r3, #11]
    b340:	e1a03c03 	lsl	r3, r3, #24
    b344:	e1833002 	orr	r3, r3, r2
    b348:	e1a02003 	mov	r2, r3
    b34c:	e59f363c 	ldr	r3, [pc, #1596]	; b990 <MemoryAllocate+0x98c>
    b350:	e5832000 	str	r2, [r3]
    b354:	e51b3008 	ldr	r3, [fp, #-8]
    b358:	e5d32008 	ldrb	r2, [r3, #8]
    b35c:	e5d31009 	ldrb	r1, [r3, #9]
    b360:	e1a01401 	lsl	r1, r1, #8
    b364:	e1812002 	orr	r2, r1, r2
    b368:	e5d3100a 	ldrb	r1, [r3, #10]
    b36c:	e1a01801 	lsl	r1, r1, #16
    b370:	e1812002 	orr	r2, r1, r2
    b374:	e5d3300b 	ldrb	r3, [r3, #11]
    b378:	e1a03c03 	lsl	r3, r3, #24
    b37c:	e1833002 	orr	r3, r3, r2
    b380:	e1a02003 	mov	r2, r3
    b384:	e51b300c 	ldr	r3, [fp, #-12]
    b388:	e20210ff 	and	r1, r2, #255	; 0xff
    b38c:	e3a00000 	mov	r0, #0
    b390:	e1801001 	orr	r1, r0, r1
    b394:	e5c31008 	strb	r1, [r3, #8]
    b398:	e1a01422 	lsr	r1, r2, #8
    b39c:	e20110ff 	and	r1, r1, #255	; 0xff
    b3a0:	e3a00000 	mov	r0, #0
    b3a4:	e1801001 	orr	r1, r0, r1
    b3a8:	e5c31009 	strb	r1, [r3, #9]
    b3ac:	e1a01822 	lsr	r1, r2, #16
    b3b0:	e20110ff 	and	r1, r1, #255	; 0xff
    b3b4:	e3a00000 	mov	r0, #0
    b3b8:	e1801001 	orr	r1, r0, r1
    b3bc:	e5c3100a 	strb	r1, [r3, #10]
    b3c0:	e1a02c22 	lsr	r2, r2, #24
    b3c4:	e3a01000 	mov	r1, #0
    b3c8:	e1812002 	orr	r2, r1, r2
    b3cc:	e5c3200b 	strb	r2, [r3, #11]
    b3d0:	e51b3008 	ldr	r3, [fp, #-8]
    b3d4:	e55b200c 	ldrb	r2, [fp, #-12]
    b3d8:	e3a01000 	mov	r1, #0
    b3dc:	e1812002 	orr	r2, r1, r2
    b3e0:	e5c32008 	strb	r2, [r3, #8]
    b3e4:	e55b200b 	ldrb	r2, [fp, #-11]
    b3e8:	e3a01000 	mov	r1, #0
    b3ec:	e1812002 	orr	r2, r1, r2
    b3f0:	e5c32009 	strb	r2, [r3, #9]
    b3f4:	e55b200a 	ldrb	r2, [fp, #-10]
    b3f8:	e3a01000 	mov	r1, #0
    b3fc:	e1812002 	orr	r2, r1, r2
    b400:	e5c3200a 	strb	r2, [r3, #10]
    b404:	e55b2009 	ldrb	r2, [fp, #-9]
    b408:	e3a01000 	mov	r1, #0
    b40c:	e1812002 	orr	r2, r1, r2
    b410:	e5c3200b 	strb	r2, [r3, #11]
    b414:	e59f3580 	ldr	r3, [pc, #1408]	; b99c <MemoryAllocate+0x998>
    b418:	e5932000 	ldr	r2, [r3]
    b41c:	e51b3010 	ldr	r3, [fp, #-16]
    b420:	e0823003 	add	r3, r2, r3
    b424:	e59f2570 	ldr	r2, [pc, #1392]	; b99c <MemoryAllocate+0x998>
    b428:	e5823000 	str	r3, [r2]
    b42c:	e51b300c 	ldr	r3, [fp, #-12]
    b430:	e5d32004 	ldrb	r2, [r3, #4]
    b434:	e5d31005 	ldrb	r1, [r3, #5]
    b438:	e1a01401 	lsl	r1, r1, #8
    b43c:	e1812002 	orr	r2, r1, r2
    b440:	e5d31006 	ldrb	r1, [r3, #6]
    b444:	e1a01801 	lsl	r1, r1, #16
    b448:	e1812002 	orr	r2, r1, r2
    b44c:	e5d33007 	ldrb	r3, [r3, #7]
    b450:	e1a03c03 	lsl	r3, r3, #24
    b454:	e1833002 	orr	r3, r3, r2
    b458:	ea000148 	b	b980 <MemoryAllocate+0x97c>
    b45c:	e51b3008 	ldr	r3, [fp, #-8]
    b460:	e5d32008 	ldrb	r2, [r3, #8]
    b464:	e5d31009 	ldrb	r1, [r3, #9]
    b468:	e1a01401 	lsl	r1, r1, #8
    b46c:	e1812002 	orr	r2, r1, r2
    b470:	e5d3100a 	ldrb	r1, [r3, #10]
    b474:	e1a01801 	lsl	r1, r1, #16
    b478:	e1812002 	orr	r2, r1, r2
    b47c:	e5d3300b 	ldrb	r3, [r3, #11]
    b480:	e1a03c03 	lsl	r3, r3, #24
    b484:	e1833002 	orr	r3, r3, r2
    b488:	e50b3008 	str	r3, [fp, #-8]
    b48c:	ea0000cd 	b	b7c8 <MemoryAllocate+0x7c4>
    b490:	e51b3008 	ldr	r3, [fp, #-8]
    b494:	e5d32000 	ldrb	r2, [r3]
    b498:	e5d31001 	ldrb	r1, [r3, #1]
    b49c:	e1a01401 	lsl	r1, r1, #8
    b4a0:	e1812002 	orr	r2, r1, r2
    b4a4:	e5d31002 	ldrb	r1, [r3, #2]
    b4a8:	e1a01801 	lsl	r1, r1, #16
    b4ac:	e1812002 	orr	r2, r1, r2
    b4b0:	e5d33003 	ldrb	r3, [r3, #3]
    b4b4:	e1a03c03 	lsl	r3, r3, #24
    b4b8:	e1833002 	orr	r3, r3, r2
    b4bc:	e2632000 	rsb	r2, r3, #0
    b4c0:	e51b3008 	ldr	r3, [fp, #-8]
    b4c4:	e5d31008 	ldrb	r1, [r3, #8]
    b4c8:	e5d30009 	ldrb	r0, [r3, #9]
    b4cc:	e1a00400 	lsl	r0, r0, #8
    b4d0:	e1801001 	orr	r1, r0, r1
    b4d4:	e5d3000a 	ldrb	r0, [r3, #10]
    b4d8:	e1a00800 	lsl	r0, r0, #16
    b4dc:	e1801001 	orr	r1, r0, r1
    b4e0:	e5d3300b 	ldrb	r3, [r3, #11]
    b4e4:	e1a03c03 	lsl	r3, r3, #24
    b4e8:	e1833001 	orr	r3, r3, r1
    b4ec:	e0633002 	rsb	r3, r3, r2
    b4f0:	e59f24b0 	ldr	r2, [pc, #1200]	; b9a8 <MemoryAllocate+0x9a4>
    b4f4:	e0832002 	add	r2, r3, r2
    b4f8:	e51b3010 	ldr	r3, [fp, #-16]
    b4fc:	e1520003 	cmp	r2, r3
    b500:	3a0000ae 	bcc	b7c0 <MemoryAllocate+0x7bc>
    b504:	e59f3484 	ldr	r3, [pc, #1156]	; b990 <MemoryAllocate+0x98c>
    b508:	e5933000 	ldr	r3, [r3]
    b50c:	e51b2008 	ldr	r2, [fp, #-8]
    b510:	e5d21004 	ldrb	r1, [r2, #4]
    b514:	e5d20005 	ldrb	r0, [r2, #5]
    b518:	e1a00400 	lsl	r0, r0, #8
    b51c:	e1801001 	orr	r1, r0, r1
    b520:	e5d20006 	ldrb	r0, [r2, #6]
    b524:	e1a00800 	lsl	r0, r0, #16
    b528:	e1801001 	orr	r1, r0, r1
    b52c:	e5d22007 	ldrb	r2, [r2, #7]
    b530:	e1a02c02 	lsl	r2, r2, #24
    b534:	e1822001 	orr	r2, r2, r1
    b538:	e1a0c002 	mov	ip, r2
    b53c:	e51b2008 	ldr	r2, [fp, #-8]
    b540:	e5d21000 	ldrb	r1, [r2]
    b544:	e5d20001 	ldrb	r0, [r2, #1]
    b548:	e1a00400 	lsl	r0, r0, #8
    b54c:	e1801001 	orr	r1, r0, r1
    b550:	e5d20002 	ldrb	r0, [r2, #2]
    b554:	e1a00800 	lsl	r0, r0, #16
    b558:	e1801001 	orr	r1, r0, r1
    b55c:	e5d22003 	ldrb	r2, [r2, #3]
    b560:	e1a02c02 	lsl	r2, r2, #24
    b564:	e1822001 	orr	r2, r2, r1
    b568:	e08c2002 	add	r2, ip, r2
    b56c:	e20210ff 	and	r1, r2, #255	; 0xff
    b570:	e3a00000 	mov	r0, #0
    b574:	e1801001 	orr	r1, r0, r1
    b578:	e5c31004 	strb	r1, [r3, #4]
    b57c:	e1a01422 	lsr	r1, r2, #8
    b580:	e20110ff 	and	r1, r1, #255	; 0xff
    b584:	e3a00000 	mov	r0, #0
    b588:	e1801001 	orr	r1, r0, r1
    b58c:	e5c31005 	strb	r1, [r3, #5]
    b590:	e1a01822 	lsr	r1, r2, #16
    b594:	e20110ff 	and	r1, r1, #255	; 0xff
    b598:	e3a00000 	mov	r0, #0
    b59c:	e1801001 	orr	r1, r0, r1
    b5a0:	e5c31006 	strb	r1, [r3, #6]
    b5a4:	e1a02c22 	lsr	r2, r2, #24
    b5a8:	e3a01000 	mov	r1, #0
    b5ac:	e1812002 	orr	r2, r1, r2
    b5b0:	e5c32007 	strb	r2, [r3, #7]
    b5b4:	e59f33d4 	ldr	r3, [pc, #980]	; b990 <MemoryAllocate+0x98c>
    b5b8:	e5933000 	ldr	r3, [r3]
    b5bc:	e55b2010 	ldrb	r2, [fp, #-16]
    b5c0:	e3a01000 	mov	r1, #0
    b5c4:	e1812002 	orr	r2, r1, r2
    b5c8:	e5c32000 	strb	r2, [r3]
    b5cc:	e55b200f 	ldrb	r2, [fp, #-15]
    b5d0:	e3a01000 	mov	r1, #0
    b5d4:	e1812002 	orr	r2, r1, r2
    b5d8:	e5c32001 	strb	r2, [r3, #1]
    b5dc:	e55b200e 	ldrb	r2, [fp, #-14]
    b5e0:	e3a01000 	mov	r1, #0
    b5e4:	e1812002 	orr	r2, r1, r2
    b5e8:	e5c32002 	strb	r2, [r3, #2]
    b5ec:	e55b200d 	ldrb	r2, [fp, #-13]
    b5f0:	e3a01000 	mov	r1, #0
    b5f4:	e1812002 	orr	r2, r1, r2
    b5f8:	e5c32003 	strb	r2, [r3, #3]
    b5fc:	e59f338c 	ldr	r3, [pc, #908]	; b990 <MemoryAllocate+0x98c>
    b600:	e5933000 	ldr	r3, [r3]
    b604:	e50b300c 	str	r3, [fp, #-12]
    b608:	e51b300c 	ldr	r3, [fp, #-12]
    b60c:	e5d32008 	ldrb	r2, [r3, #8]
    b610:	e5d31009 	ldrb	r1, [r3, #9]
    b614:	e1a01401 	lsl	r1, r1, #8
    b618:	e1812002 	orr	r2, r1, r2
    b61c:	e5d3100a 	ldrb	r1, [r3, #10]
    b620:	e1a01801 	lsl	r1, r1, #16
    b624:	e1812002 	orr	r2, r1, r2
    b628:	e5d3300b 	ldrb	r3, [r3, #11]
    b62c:	e1a03c03 	lsl	r3, r3, #24
    b630:	e1833002 	orr	r3, r3, r2
    b634:	e3530000 	cmp	r3, #0
    b638:	1a000010 	bne	b680 <MemoryAllocate+0x67c>
    b63c:	e59f334c 	ldr	r3, [pc, #844]	; b990 <MemoryAllocate+0x98c>
    b640:	e5933000 	ldr	r3, [r3]
    b644:	e283300c 	add	r3, r3, #12
    b648:	e1a02003 	mov	r2, r3
    b64c:	e59f3350 	ldr	r3, [pc, #848]	; b9a4 <MemoryAllocate+0x9a0>
    b650:	e1520003 	cmp	r2, r3
    b654:	2a000005 	bcs	b670 <MemoryAllocate+0x66c>
    b658:	e59f3330 	ldr	r3, [pc, #816]	; b990 <MemoryAllocate+0x98c>
    b65c:	e5933000 	ldr	r3, [r3]
    b660:	e283300c 	add	r3, r3, #12
    b664:	e59f2324 	ldr	r2, [pc, #804]	; b990 <MemoryAllocate+0x98c>
    b668:	e5823000 	str	r3, [r2]
    b66c:	ea000011 	b	b6b8 <MemoryAllocate+0x6b4>
    b670:	e59f3318 	ldr	r3, [pc, #792]	; b990 <MemoryAllocate+0x98c>
    b674:	e3e02000 	mvn	r2, #0
    b678:	e5832000 	str	r2, [r3]
    b67c:	ea00000d 	b	b6b8 <MemoryAllocate+0x6b4>
    b680:	e51b300c 	ldr	r3, [fp, #-12]
    b684:	e5d32008 	ldrb	r2, [r3, #8]
    b688:	e5d31009 	ldrb	r1, [r3, #9]
    b68c:	e1a01401 	lsl	r1, r1, #8
    b690:	e1812002 	orr	r2, r1, r2
    b694:	e5d3100a 	ldrb	r1, [r3, #10]
    b698:	e1a01801 	lsl	r1, r1, #16
    b69c:	e1812002 	orr	r2, r1, r2
    b6a0:	e5d3300b 	ldrb	r3, [r3, #11]
    b6a4:	e1a03c03 	lsl	r3, r3, #24
    b6a8:	e1833002 	orr	r3, r3, r2
    b6ac:	e1a02003 	mov	r2, r3
    b6b0:	e59f32d8 	ldr	r3, [pc, #728]	; b990 <MemoryAllocate+0x98c>
    b6b4:	e5832000 	str	r2, [r3]
    b6b8:	e51b3008 	ldr	r3, [fp, #-8]
    b6bc:	e5d32008 	ldrb	r2, [r3, #8]
    b6c0:	e5d31009 	ldrb	r1, [r3, #9]
    b6c4:	e1a01401 	lsl	r1, r1, #8
    b6c8:	e1812002 	orr	r2, r1, r2
    b6cc:	e5d3100a 	ldrb	r1, [r3, #10]
    b6d0:	e1a01801 	lsl	r1, r1, #16
    b6d4:	e1812002 	orr	r2, r1, r2
    b6d8:	e5d3300b 	ldrb	r3, [r3, #11]
    b6dc:	e1a03c03 	lsl	r3, r3, #24
    b6e0:	e1833002 	orr	r3, r3, r2
    b6e4:	e1a02003 	mov	r2, r3
    b6e8:	e51b300c 	ldr	r3, [fp, #-12]
    b6ec:	e20210ff 	and	r1, r2, #255	; 0xff
    b6f0:	e3a00000 	mov	r0, #0
    b6f4:	e1801001 	orr	r1, r0, r1
    b6f8:	e5c31008 	strb	r1, [r3, #8]
    b6fc:	e1a01422 	lsr	r1, r2, #8
    b700:	e20110ff 	and	r1, r1, #255	; 0xff
    b704:	e3a00000 	mov	r0, #0
    b708:	e1801001 	orr	r1, r0, r1
    b70c:	e5c31009 	strb	r1, [r3, #9]
    b710:	e1a01822 	lsr	r1, r2, #16
    b714:	e20110ff 	and	r1, r1, #255	; 0xff
    b718:	e3a00000 	mov	r0, #0
    b71c:	e1801001 	orr	r1, r0, r1
    b720:	e5c3100a 	strb	r1, [r3, #10]
    b724:	e1a02c22 	lsr	r2, r2, #24
    b728:	e3a01000 	mov	r1, #0
    b72c:	e1812002 	orr	r2, r1, r2
    b730:	e5c3200b 	strb	r2, [r3, #11]
    b734:	e51b3008 	ldr	r3, [fp, #-8]
    b738:	e55b200c 	ldrb	r2, [fp, #-12]
    b73c:	e3a01000 	mov	r1, #0
    b740:	e1812002 	orr	r2, r1, r2
    b744:	e5c32008 	strb	r2, [r3, #8]
    b748:	e55b200b 	ldrb	r2, [fp, #-11]
    b74c:	e3a01000 	mov	r1, #0
    b750:	e1812002 	orr	r2, r1, r2
    b754:	e5c32009 	strb	r2, [r3, #9]
    b758:	e55b200a 	ldrb	r2, [fp, #-10]
    b75c:	e3a01000 	mov	r1, #0
    b760:	e1812002 	orr	r2, r1, r2
    b764:	e5c3200a 	strb	r2, [r3, #10]
    b768:	e55b2009 	ldrb	r2, [fp, #-9]
    b76c:	e3a01000 	mov	r1, #0
    b770:	e1812002 	orr	r2, r1, r2
    b774:	e5c3200b 	strb	r2, [r3, #11]
    b778:	e59f321c 	ldr	r3, [pc, #540]	; b99c <MemoryAllocate+0x998>
    b77c:	e5932000 	ldr	r2, [r3]
    b780:	e51b3010 	ldr	r3, [fp, #-16]
    b784:	e0823003 	add	r3, r2, r3
    b788:	e59f220c 	ldr	r2, [pc, #524]	; b99c <MemoryAllocate+0x998>
    b78c:	e5823000 	str	r3, [r2]
    b790:	e51b300c 	ldr	r3, [fp, #-12]
    b794:	e5d32004 	ldrb	r2, [r3, #4]
    b798:	e5d31005 	ldrb	r1, [r3, #5]
    b79c:	e1a01401 	lsl	r1, r1, #8
    b7a0:	e1812002 	orr	r2, r1, r2
    b7a4:	e5d31006 	ldrb	r1, [r3, #6]
    b7a8:	e1a01801 	lsl	r1, r1, #16
    b7ac:	e1812002 	orr	r2, r1, r2
    b7b0:	e5d33007 	ldrb	r3, [r3, #7]
    b7b4:	e1a03c03 	lsl	r3, r3, #24
    b7b8:	e1833002 	orr	r3, r3, r2
    b7bc:	ea00006f 	b	b980 <MemoryAllocate+0x97c>
    b7c0:	e3a03000 	mov	r3, #0
    b7c4:	ea00006d 	b	b980 <MemoryAllocate+0x97c>
    b7c8:	e51b3008 	ldr	r3, [fp, #-8]
    b7cc:	e3730001 	cmn	r3, #1
    b7d0:	1afffe34 	bne	b0a8 <MemoryAllocate+0xa4>
    b7d4:	e59f31b4 	ldr	r3, [pc, #436]	; b990 <MemoryAllocate+0x98c>
    b7d8:	e5933000 	ldr	r3, [r3]
    b7dc:	e5d32008 	ldrb	r2, [r3, #8]
    b7e0:	e5d31009 	ldrb	r1, [r3, #9]
    b7e4:	e1a01401 	lsl	r1, r1, #8
    b7e8:	e1812002 	orr	r2, r1, r2
    b7ec:	e5d3100a 	ldrb	r1, [r3, #10]
    b7f0:	e1a01801 	lsl	r1, r1, #16
    b7f4:	e1812002 	orr	r2, r1, r2
    b7f8:	e5d3300b 	ldrb	r3, [r3, #11]
    b7fc:	e1a03c03 	lsl	r3, r3, #24
    b800:	e1833002 	orr	r3, r3, r2
    b804:	e50b300c 	str	r3, [fp, #-12]
    b808:	e59f3180 	ldr	r3, [pc, #384]	; b990 <MemoryAllocate+0x98c>
    b80c:	e5933000 	ldr	r3, [r3]
    b810:	e59f2188 	ldr	r2, [pc, #392]	; b9a0 <MemoryAllocate+0x99c>
    b814:	e5823000 	str	r3, [r2]
    b818:	e59f3180 	ldr	r3, [pc, #384]	; b9a0 <MemoryAllocate+0x99c>
    b81c:	e5933000 	ldr	r3, [r3]
    b820:	e3e02000 	mvn	r2, #0
    b824:	e5c32008 	strb	r2, [r3, #8]
    b828:	e3e02000 	mvn	r2, #0
    b82c:	e5c32009 	strb	r2, [r3, #9]
    b830:	e3e02000 	mvn	r2, #0
    b834:	e5c3200a 	strb	r2, [r3, #10]
    b838:	e3e02000 	mvn	r2, #0
    b83c:	e5c3200b 	strb	r2, [r3, #11]
    b840:	e59f3158 	ldr	r3, [pc, #344]	; b9a0 <MemoryAllocate+0x99c>
    b844:	e5933000 	ldr	r3, [r3]
    b848:	e55b2010 	ldrb	r2, [fp, #-16]
    b84c:	e3a01000 	mov	r1, #0
    b850:	e1812002 	orr	r2, r1, r2
    b854:	e5c32000 	strb	r2, [r3]
    b858:	e55b200f 	ldrb	r2, [fp, #-15]
    b85c:	e3a01000 	mov	r1, #0
    b860:	e1812002 	orr	r2, r1, r2
    b864:	e5c32001 	strb	r2, [r3, #1]
    b868:	e55b200e 	ldrb	r2, [fp, #-14]
    b86c:	e3a01000 	mov	r1, #0
    b870:	e1812002 	orr	r2, r1, r2
    b874:	e5c32002 	strb	r2, [r3, #2]
    b878:	e55b200d 	ldrb	r2, [fp, #-13]
    b87c:	e3a01000 	mov	r1, #0
    b880:	e1812002 	orr	r2, r1, r2
    b884:	e5c32003 	strb	r2, [r3, #3]
    b888:	e59f3110 	ldr	r3, [pc, #272]	; b9a0 <MemoryAllocate+0x99c>
    b88c:	e5933000 	ldr	r3, [r3]
    b890:	e59f20fc 	ldr	r2, [pc, #252]	; b994 <MemoryAllocate+0x990>
    b894:	e20210ff 	and	r1, r2, #255	; 0xff
    b898:	e3a00000 	mov	r0, #0
    b89c:	e1801001 	orr	r1, r0, r1
    b8a0:	e5c31004 	strb	r1, [r3, #4]
    b8a4:	e1a01422 	lsr	r1, r2, #8
    b8a8:	e20110ff 	and	r1, r1, #255	; 0xff
    b8ac:	e3a00000 	mov	r0, #0
    b8b0:	e1801001 	orr	r1, r0, r1
    b8b4:	e5c31005 	strb	r1, [r3, #5]
    b8b8:	e1a01822 	lsr	r1, r2, #16
    b8bc:	e20110ff 	and	r1, r1, #255	; 0xff
    b8c0:	e3a00000 	mov	r0, #0
    b8c4:	e1801001 	orr	r1, r0, r1
    b8c8:	e5c31006 	strb	r1, [r3, #6]
    b8cc:	e1a02c22 	lsr	r2, r2, #24
    b8d0:	e3a01000 	mov	r1, #0
    b8d4:	e1812002 	orr	r2, r1, r2
    b8d8:	e5c32007 	strb	r2, [r3, #7]
    b8dc:	e51b300c 	ldr	r3, [fp, #-12]
    b8e0:	e3530000 	cmp	r3, #0
    b8e4:	1a000010 	bne	b92c <MemoryAllocate+0x928>
    b8e8:	e59f30a0 	ldr	r3, [pc, #160]	; b990 <MemoryAllocate+0x98c>
    b8ec:	e5933000 	ldr	r3, [r3]
    b8f0:	e283300c 	add	r3, r3, #12
    b8f4:	e1a02003 	mov	r2, r3
    b8f8:	e59f30a4 	ldr	r3, [pc, #164]	; b9a4 <MemoryAllocate+0x9a0>
    b8fc:	e1520003 	cmp	r2, r3
    b900:	2a000005 	bcs	b91c <MemoryAllocate+0x918>
    b904:	e59f3084 	ldr	r3, [pc, #132]	; b990 <MemoryAllocate+0x98c>
    b908:	e5933000 	ldr	r3, [r3]
    b90c:	e283300c 	add	r3, r3, #12
    b910:	e59f2078 	ldr	r2, [pc, #120]	; b990 <MemoryAllocate+0x98c>
    b914:	e5823000 	str	r3, [r2]
    b918:	ea000006 	b	b938 <MemoryAllocate+0x934>
    b91c:	e59f306c 	ldr	r3, [pc, #108]	; b990 <MemoryAllocate+0x98c>
    b920:	e3e02000 	mvn	r2, #0
    b924:	e5832000 	str	r2, [r3]
    b928:	ea000002 	b	b938 <MemoryAllocate+0x934>
    b92c:	e59f205c 	ldr	r2, [pc, #92]	; b990 <MemoryAllocate+0x98c>
    b930:	e51b300c 	ldr	r3, [fp, #-12]
    b934:	e5823000 	str	r3, [r2]
    b938:	e59f305c 	ldr	r3, [pc, #92]	; b99c <MemoryAllocate+0x998>
    b93c:	e5932000 	ldr	r2, [r3]
    b940:	e51b3010 	ldr	r3, [fp, #-16]
    b944:	e0823003 	add	r3, r2, r3
    b948:	e59f204c 	ldr	r2, [pc, #76]	; b99c <MemoryAllocate+0x998>
    b94c:	e5823000 	str	r3, [r2]
    b950:	e59f3048 	ldr	r3, [pc, #72]	; b9a0 <MemoryAllocate+0x99c>
    b954:	e5933000 	ldr	r3, [r3]
    b958:	e5d32004 	ldrb	r2, [r3, #4]
    b95c:	e5d31005 	ldrb	r1, [r3, #5]
    b960:	e1a01401 	lsl	r1, r1, #8
    b964:	e1812002 	orr	r2, r1, r2
    b968:	e5d31006 	ldrb	r1, [r3, #6]
    b96c:	e1a01801 	lsl	r1, r1, #16
    b970:	e1812002 	orr	r2, r1, r2
    b974:	e5d33007 	ldrb	r3, [r3, #7]
    b978:	e1a03c03 	lsl	r3, r3, #24
    b97c:	e1833002 	orr	r3, r3, r2
    b980:	e1a00003 	mov	r0, r3
    b984:	e24bd004 	sub	sp, fp, #4
    b988:	e8bd4800 	pop	{fp, lr}
    b98c:	e12fff1e 	bx	lr
    b990:	00024b8c 	.word	0x00024b8c
    b994:	00024b98 	.word	0x00024b98
    b998:	00028b98 	.word	0x00028b98
    b99c:	00024b90 	.word	0x00024b90
    b9a0:	00024b00 	.word	0x00024b00
    b9a4:	00029798 	.word	0x00029798
    b9a8:	00028b98 	.word	0x00028b98

0000b9ac <MemoryDeallocate>:
    b9ac:	e52db004 	push	{fp}		; (str fp, [sp, #-4]!)
    b9b0:	e28db000 	add	fp, sp, #0
    b9b4:	e24dd014 	sub	sp, sp, #20
    b9b8:	e50b0010 	str	r0, [fp, #-16]
    b9bc:	e59f3180 	ldr	r3, [pc, #384]	; bb44 <MemoryDeallocate+0x198>
    b9c0:	e50b300c 	str	r3, [fp, #-12]
    b9c4:	e59f3178 	ldr	r3, [pc, #376]	; bb44 <MemoryDeallocate+0x198>
    b9c8:	e5933000 	ldr	r3, [r3]
    b9cc:	e50b3008 	str	r3, [fp, #-8]
    b9d0:	ea000055 	b	bb2c <MemoryDeallocate+0x180>
    b9d4:	e51b3008 	ldr	r3, [fp, #-8]
    b9d8:	e5d32004 	ldrb	r2, [r3, #4]
    b9dc:	e5d31005 	ldrb	r1, [r3, #5]
    b9e0:	e1a01401 	lsl	r1, r1, #8
    b9e4:	e1812002 	orr	r2, r1, r2
    b9e8:	e5d31006 	ldrb	r1, [r3, #6]
    b9ec:	e1a01801 	lsl	r1, r1, #16
    b9f0:	e1812002 	orr	r2, r1, r2
    b9f4:	e5d33007 	ldrb	r3, [r3, #7]
    b9f8:	e1a03c03 	lsl	r3, r3, #24
    b9fc:	e1833002 	orr	r3, r3, r2
    ba00:	e1a02003 	mov	r2, r3
    ba04:	e51b3010 	ldr	r3, [fp, #-16]
    ba08:	e1520003 	cmp	r2, r3
    ba0c:	1a000036 	bne	baec <MemoryDeallocate+0x140>
    ba10:	e59f3130 	ldr	r3, [pc, #304]	; bb48 <MemoryDeallocate+0x19c>
    ba14:	e5932000 	ldr	r2, [r3]
    ba18:	e51b3008 	ldr	r3, [fp, #-8]
    ba1c:	e5d31000 	ldrb	r1, [r3]
    ba20:	e5d30001 	ldrb	r0, [r3, #1]
    ba24:	e1a00400 	lsl	r0, r0, #8
    ba28:	e1801001 	orr	r1, r0, r1
    ba2c:	e5d30002 	ldrb	r0, [r3, #2]
    ba30:	e1a00800 	lsl	r0, r0, #16
    ba34:	e1801001 	orr	r1, r0, r1
    ba38:	e5d33003 	ldrb	r3, [r3, #3]
    ba3c:	e1a03c03 	lsl	r3, r3, #24
    ba40:	e1833001 	orr	r3, r3, r1
    ba44:	e0633002 	rsb	r3, r3, r2
    ba48:	e59f20f8 	ldr	r2, [pc, #248]	; bb48 <MemoryDeallocate+0x19c>
    ba4c:	e5823000 	str	r3, [r2]
    ba50:	e51b3008 	ldr	r3, [fp, #-8]
    ba54:	e5d32008 	ldrb	r2, [r3, #8]
    ba58:	e5d31009 	ldrb	r1, [r3, #9]
    ba5c:	e1a01401 	lsl	r1, r1, #8
    ba60:	e1812002 	orr	r2, r1, r2
    ba64:	e5d3100a 	ldrb	r1, [r3, #10]
    ba68:	e1a01801 	lsl	r1, r1, #16
    ba6c:	e1812002 	orr	r2, r1, r2
    ba70:	e5d3300b 	ldrb	r3, [r3, #11]
    ba74:	e1a03c03 	lsl	r3, r3, #24
    ba78:	e1833002 	orr	r3, r3, r2
    ba7c:	e1a02003 	mov	r2, r3
    ba80:	e51b300c 	ldr	r3, [fp, #-12]
    ba84:	e5832000 	str	r2, [r3]
    ba88:	e59f30bc 	ldr	r3, [pc, #188]	; bb4c <MemoryDeallocate+0x1a0>
    ba8c:	e5932000 	ldr	r2, [r3]
    ba90:	e51b3008 	ldr	r3, [fp, #-8]
    ba94:	e20210ff 	and	r1, r2, #255	; 0xff
    ba98:	e3a00000 	mov	r0, #0
    ba9c:	e1801001 	orr	r1, r0, r1
    baa0:	e5c31008 	strb	r1, [r3, #8]
    baa4:	e1a01422 	lsr	r1, r2, #8
    baa8:	e20110ff 	and	r1, r1, #255	; 0xff
    baac:	e3a00000 	mov	r0, #0
    bab0:	e1801001 	orr	r1, r0, r1
    bab4:	e5c31009 	strb	r1, [r3, #9]
    bab8:	e1a01822 	lsr	r1, r2, #16
    babc:	e20110ff 	and	r1, r1, #255	; 0xff
    bac0:	e3a00000 	mov	r0, #0
    bac4:	e1801001 	orr	r1, r0, r1
    bac8:	e5c3100a 	strb	r1, [r3, #10]
    bacc:	e1a02c22 	lsr	r2, r2, #24
    bad0:	e3a01000 	mov	r1, #0
    bad4:	e1812002 	orr	r2, r1, r2
    bad8:	e5c3200b 	strb	r2, [r3, #11]
    badc:	e59f2068 	ldr	r2, [pc, #104]	; bb4c <MemoryDeallocate+0x1a0>
    bae0:	e51b3008 	ldr	r3, [fp, #-8]
    bae4:	e5823000 	str	r3, [r2]
    bae8:	ea000012 	b	bb38 <MemoryDeallocate+0x18c>
    baec:	e51b3008 	ldr	r3, [fp, #-8]
    baf0:	e5d32008 	ldrb	r2, [r3, #8]
    baf4:	e5d31009 	ldrb	r1, [r3, #9]
    baf8:	e1a01401 	lsl	r1, r1, #8
    bafc:	e1812002 	orr	r2, r1, r2
    bb00:	e5d3100a 	ldrb	r1, [r3, #10]
    bb04:	e1a01801 	lsl	r1, r1, #16
    bb08:	e1812002 	orr	r2, r1, r2
    bb0c:	e5d3300b 	ldrb	r3, [r3, #11]
    bb10:	e1a03c03 	lsl	r3, r3, #24
    bb14:	e1833002 	orr	r3, r3, r2
    bb18:	e50b3008 	str	r3, [fp, #-8]
    bb1c:	e51b300c 	ldr	r3, [fp, #-12]
    bb20:	e5933000 	ldr	r3, [r3]
    bb24:	e2833008 	add	r3, r3, #8
    bb28:	e50b300c 	str	r3, [fp, #-12]
    bb2c:	e51b3008 	ldr	r3, [fp, #-8]
    bb30:	e3730001 	cmn	r3, #1
    bb34:	1affffa6 	bne	b9d4 <MemoryDeallocate+0x28>
    bb38:	e24bd000 	sub	sp, fp, #0
    bb3c:	e49db004 	pop	{fp}		; (ldr fp, [sp], #4)
    bb40:	e12fff1e 	bx	lr
    bb44:	00024b00 	.word	0x00024b00
    bb48:	00024b90 	.word	0x00024b90
    bb4c:	00024b8c 	.word	0x00024b8c

0000bb50 <MemoryCopy>:
    bb50:	e52db004 	push	{fp}		; (str fp, [sp, #-4]!)
    bb54:	e28db000 	add	fp, sp, #0
    bb58:	e24dd01c 	sub	sp, sp, #28
    bb5c:	e50b0010 	str	r0, [fp, #-16]
    bb60:	e50b1014 	str	r1, [fp, #-20]	; 0xffffffec
    bb64:	e50b2018 	str	r2, [fp, #-24]	; 0xffffffe8
    bb68:	e51b3018 	ldr	r3, [fp, #-24]	; 0xffffffe8
    bb6c:	e3530000 	cmp	r3, #0
    bb70:	0a00002f 	beq	bc34 <MemoryCopy+0xe4>
    bb74:	e51b3010 	ldr	r3, [fp, #-16]
    bb78:	e50b3008 	str	r3, [fp, #-8]
    bb7c:	e51b3014 	ldr	r3, [fp, #-20]	; 0xffffffec
    bb80:	e50b300c 	str	r3, [fp, #-12]
    bb84:	e51b200c 	ldr	r2, [fp, #-12]
    bb88:	e51b3008 	ldr	r3, [fp, #-8]
    bb8c:	e1520003 	cmp	r2, r3
    bb90:	2a00000e 	bcs	bbd0 <MemoryCopy+0x80>
    bb94:	ea000007 	b	bbb8 <MemoryCopy+0x68>
    bb98:	e51b3008 	ldr	r3, [fp, #-8]
    bb9c:	e2832001 	add	r2, r3, #1
    bba0:	e50b2008 	str	r2, [fp, #-8]
    bba4:	e51b200c 	ldr	r2, [fp, #-12]
    bba8:	e2821001 	add	r1, r2, #1
    bbac:	e50b100c 	str	r1, [fp, #-12]
    bbb0:	e5d22000 	ldrb	r2, [r2]
    bbb4:	e5c32000 	strb	r2, [r3]
    bbb8:	e51b3018 	ldr	r3, [fp, #-24]	; 0xffffffe8
    bbbc:	e2432001 	sub	r2, r3, #1
    bbc0:	e50b2018 	str	r2, [fp, #-24]	; 0xffffffe8
    bbc4:	e3530000 	cmp	r3, #0
    bbc8:	1afffff2 	bne	bb98 <MemoryCopy+0x48>
    bbcc:	ea000019 	b	bc38 <MemoryCopy+0xe8>
    bbd0:	e51b2008 	ldr	r2, [fp, #-8]
    bbd4:	e51b3018 	ldr	r3, [fp, #-24]	; 0xffffffe8
    bbd8:	e0823003 	add	r3, r2, r3
    bbdc:	e50b3008 	str	r3, [fp, #-8]
    bbe0:	e51b200c 	ldr	r2, [fp, #-12]
    bbe4:	e51b3018 	ldr	r3, [fp, #-24]	; 0xffffffe8
    bbe8:	e0823003 	add	r3, r2, r3
    bbec:	e50b300c 	str	r3, [fp, #-12]
    bbf0:	ea000009 	b	bc1c <MemoryCopy+0xcc>
    bbf4:	e51b3008 	ldr	r3, [fp, #-8]
    bbf8:	e2433001 	sub	r3, r3, #1
    bbfc:	e50b3008 	str	r3, [fp, #-8]
    bc00:	e51b300c 	ldr	r3, [fp, #-12]
    bc04:	e2433001 	sub	r3, r3, #1
    bc08:	e50b300c 	str	r3, [fp, #-12]
    bc0c:	e51b300c 	ldr	r3, [fp, #-12]
    bc10:	e5d32000 	ldrb	r2, [r3]
    bc14:	e51b3008 	ldr	r3, [fp, #-8]
    bc18:	e5c32000 	strb	r2, [r3]
    bc1c:	e51b3018 	ldr	r3, [fp, #-24]	; 0xffffffe8
    bc20:	e2432001 	sub	r2, r3, #1
    bc24:	e50b2018 	str	r2, [fp, #-24]	; 0xffffffe8
    bc28:	e3530000 	cmp	r3, #0
    bc2c:	1afffff0 	bne	bbf4 <MemoryCopy+0xa4>
    bc30:	ea000000 	b	bc38 <MemoryCopy+0xe8>
    bc34:	e1a00000 	nop			; (mov r0, r0)
    bc38:	e24bd000 	sub	sp, fp, #0
    bc3c:	e49db004 	pop	{fp}		; (ldr fp, [sp], #4)
    bc40:	e12fff1e 	bx	lr

0000bc44 <PlatformLoad>:
    bc44:	e52db004 	push	{fp}		; (str fp, [sp, #-4]!)
    bc48:	e28db000 	add	fp, sp, #0
    bc4c:	e59f3020 	ldr	r3, [pc, #32]	; bc74 <PlatformLoad+0x30>
    bc50:	e3e02000 	mvn	r2, #0
    bc54:	e5832000 	str	r2, [r3]
    bc58:	e59f3018 	ldr	r3, [pc, #24]	; bc78 <PlatformLoad+0x34>
    bc5c:	e3a02000 	mov	r2, #0
    bc60:	e5832000 	str	r2, [r3]
    bc64:	e1a00000 	nop			; (mov r0, r0)
    bc68:	e24bd000 	sub	sp, fp, #0
    bc6c:	e49db004 	pop	{fp}		; (ldr fp, [sp], #4)
    bc70:	e12fff1e 	bx	lr
    bc74:	00024b00 	.word	0x00024b00
    bc78:	00024b8c 	.word	0x00024b8c

0000bc7c <SizeFromNumber>:
    bc7c:	e52db004 	push	{fp}		; (str fp, [sp, #-4]!)
    bc80:	e28db000 	add	fp, sp, #0
    bc84:	e24dd00c 	sub	sp, sp, #12
    bc88:	e50b0008 	str	r0, [fp, #-8]
    bc8c:	e51b3008 	ldr	r3, [fp, #-8]
    bc90:	e3530008 	cmp	r3, #8
    bc94:	8a000001 	bhi	bca0 <SizeFromNumber+0x24>
    bc98:	e3a03000 	mov	r3, #0
    bc9c:	ea00000a 	b	bccc <SizeFromNumber+0x50>
    bca0:	e51b3008 	ldr	r3, [fp, #-8]
    bca4:	e3530010 	cmp	r3, #16
    bca8:	8a000001 	bhi	bcb4 <SizeFromNumber+0x38>
    bcac:	e3a03001 	mov	r3, #1
    bcb0:	ea000005 	b	bccc <SizeFromNumber+0x50>
    bcb4:	e51b3008 	ldr	r3, [fp, #-8]
    bcb8:	e3530020 	cmp	r3, #32
    bcbc:	8a000001 	bhi	bcc8 <SizeFromNumber+0x4c>
    bcc0:	e3a03002 	mov	r3, #2
    bcc4:	ea000000 	b	bccc <SizeFromNumber+0x50>
    bcc8:	e3a03003 	mov	r3, #3
    bccc:	e1a00003 	mov	r0, r3
    bcd0:	e24bd000 	sub	sp, fp, #0
    bcd4:	e49db004 	pop	{fp}		; (ldr fp, [sp], #4)
    bcd8:	e12fff1e 	bx	lr

0000bcdc <UsbGetRootHub>:
    bcdc:	e52db004 	push	{fp}		; (str fp, [sp, #-4]!)
    bce0:	e28db000 	add	fp, sp, #0
    bce4:	e59f3010 	ldr	r3, [pc, #16]	; bcfc <UsbGetRootHub+0x20>
    bce8:	e5933000 	ldr	r3, [r3]
    bcec:	e1a00003 	mov	r0, r3
    bcf0:	e24bd000 	sub	sp, fp, #0
    bcf4:	e49db004 	pop	{fp}		; (ldr fp, [sp], #4)
    bcf8:	e12fff1e 	bx	lr
    bcfc:	000297d8 	.word	0x000297d8

0000bd00 <UsbLoad>:
    bd00:	e52db004 	push	{fp}		; (str fp, [sp, #-4]!)
    bd04:	e28db000 	add	fp, sp, #0
    bd08:	e24dd00c 	sub	sp, sp, #12
    bd0c:	e3a03000 	mov	r3, #0
    bd10:	e50b3008 	str	r3, [fp, #-8]
    bd14:	ea000006 	b	bd34 <UsbLoad+0x34>
    bd18:	e59f2064 	ldr	r2, [pc, #100]	; bd84 <UsbLoad+0x84>
    bd1c:	e51b3008 	ldr	r3, [fp, #-8]
    bd20:	e3a01000 	mov	r1, #0
    bd24:	e7821103 	str	r1, [r2, r3, lsl #2]
    bd28:	e51b3008 	ldr	r3, [fp, #-8]
    bd2c:	e2833001 	add	r3, r3, #1
    bd30:	e50b3008 	str	r3, [fp, #-8]
    bd34:	e51b3008 	ldr	r3, [fp, #-8]
    bd38:	e353001f 	cmp	r3, #31
    bd3c:	9afffff5 	bls	bd18 <UsbLoad+0x18>
    bd40:	e3a03000 	mov	r3, #0
    bd44:	e50b300c 	str	r3, [fp, #-12]
    bd48:	ea000006 	b	bd68 <UsbLoad+0x68>
    bd4c:	e59f2034 	ldr	r2, [pc, #52]	; bd88 <UsbLoad+0x88>
    bd50:	e51b300c 	ldr	r3, [fp, #-12]
    bd54:	e3a01000 	mov	r1, #0
    bd58:	e7821103 	str	r1, [r2, r3, lsl #2]
    bd5c:	e51b300c 	ldr	r3, [fp, #-12]
    bd60:	e2833001 	add	r3, r3, #1
    bd64:	e50b300c 	str	r3, [fp, #-12]
    bd68:	e51b300c 	ldr	r3, [fp, #-12]
    bd6c:	e353000f 	cmp	r3, #15
    bd70:	9afffff5 	bls	bd4c <UsbLoad+0x4c>
    bd74:	e1a00000 	nop			; (mov r0, r0)
    bd78:	e24bd000 	sub	sp, fp, #0
    bd7c:	e49db004 	pop	{fp}		; (ldr fp, [sp], #4)
    bd80:	e12fff1e 	bx	lr
    bd84:	000297d8 	.word	0x000297d8
    bd88:	00029798 	.word	0x00029798

0000bd8c <UsbInitialise>:
    bd8c:	e92d4800 	push	{fp, lr}
    bd90:	e28db004 	add	fp, sp, #4
    bd94:	e24dd008 	sub	sp, sp, #8
    bd98:	eb00068c 	bl	d7d0 <ConfigurationLoad>
    bd9c:	e3a03000 	mov	r3, #0
    bda0:	e54b3005 	strb	r3, [fp, #-5]
    bda4:	eb002c38 	bl	16e8c <HcdInitialise>
    bda8:	e1a03000 	mov	r3, r0
    bdac:	e54b3005 	strb	r3, [fp, #-5]
    bdb0:	e15b30d5 	ldrsb	r3, [fp, #-5]
    bdb4:	e3530000 	cmp	r3, #0
    bdb8:	1a000013 	bne	be0c <UsbInitialise+0x80>
    bdbc:	eb002ce5 	bl	17158 <HcdStart>
    bdc0:	e1a03000 	mov	r3, r0
    bdc4:	e54b3005 	strb	r3, [fp, #-5]
    bdc8:	e15b30d5 	ldrsb	r3, [fp, #-5]
    bdcc:	e3530000 	cmp	r3, #0
    bdd0:	1a00000a 	bne	be00 <UsbInitialise+0x74>
    bdd4:	eb000642 	bl	d6e4 <UsbAttachRootHub>
    bdd8:	e1a03000 	mov	r3, r0
    bddc:	e54b3005 	strb	r3, [fp, #-5]
    bde0:	e15b30d5 	ldrsb	r3, [fp, #-5]
    bde4:	e3530000 	cmp	r3, #0
    bde8:	1a000001 	bne	bdf4 <UsbInitialise+0x68>
    bdec:	e15b30d5 	ldrsb	r3, [fp, #-5]
    bdf0:	ea000007 	b	be14 <UsbInitialise+0x88>
    bdf4:	e1a00000 	nop			; (mov r0, r0)
    bdf8:	eb002f58 	bl	17b60 <HcdStop>
    bdfc:	ea000000 	b	be04 <UsbInitialise+0x78>
    be00:	e1a00000 	nop			; (mov r0, r0)
    be04:	eb002f65 	bl	17ba0 <HcdDeinitialise>
    be08:	ea000000 	b	be10 <UsbInitialise+0x84>
    be0c:	e1a00000 	nop			; (mov r0, r0)
    be10:	e15b30d5 	ldrsb	r3, [fp, #-5]
    be14:	e1a00003 	mov	r0, r3
    be18:	e24bd004 	sub	sp, fp, #4
    be1c:	e8bd4800 	pop	{fp, lr}
    be20:	e12fff1e 	bx	lr

0000be24 <UsbControlMessage>:
    be24:	e92d4800 	push	{fp, lr}
    be28:	e28db004 	add	fp, sp, #4
    be2c:	e24dd020 	sub	sp, sp, #32
    be30:	e50b0010 	str	r0, [fp, #-16]
    be34:	e50b1014 	str	r1, [fp, #-20]	; 0xffffffec
    be38:	e50b2018 	str	r2, [fp, #-24]	; 0xffffffe8
    be3c:	e50b301c 	str	r3, [fp, #-28]	; 0xffffffe4
    be40:	e59b3004 	ldr	r3, [fp, #4]
    be44:	e58d3000 	str	r3, [sp]
    be48:	e51b301c 	ldr	r3, [fp, #-28]	; 0xffffffe4
    be4c:	e51b2018 	ldr	r2, [fp, #-24]	; 0xffffffe8
    be50:	e51b1014 	ldr	r1, [fp, #-20]	; 0xffffffec
    be54:	e51b0010 	ldr	r0, [fp, #-16]
    be58:	eb002acd 	bl	16994 <HcdSumbitControlMessage>
    be5c:	e1a03000 	mov	r3, r0
    be60:	e54b3005 	strb	r3, [fp, #-5]
    be64:	e15b30d5 	ldrsb	r3, [fp, #-5]
    be68:	e3530000 	cmp	r3, #0
    be6c:	0a000003 	beq	be80 <UsbControlMessage+0x5c>
    be70:	e15b30d5 	ldrsb	r3, [fp, #-5]
    be74:	ea000031 	b	bf40 <UsbControlMessage+0x11c>
    be78:	e3a00ffa 	mov	r0, #1000	; 0x3e8
    be7c:	eb00326c 	bl	18834 <MicroDelay>
    be80:	e59b3008 	ldr	r3, [fp, #8]
    be84:	e2432001 	sub	r2, r3, #1
    be88:	e58b2008 	str	r2, [fp, #8]
    be8c:	e3530000 	cmp	r3, #0
    be90:	0a000003 	beq	bea4 <UsbControlMessage+0x80>
    be94:	e51b3010 	ldr	r3, [fp, #-16]
    be98:	e5933008 	ldr	r3, [r3, #8]
    be9c:	e3530000 	cmp	r3, #0
    bea0:	bafffff4 	blt	be78 <UsbControlMessage+0x54>
    bea4:	e51b3010 	ldr	r3, [fp, #-16]
    bea8:	e5933008 	ldr	r3, [r3, #8]
    beac:	e3530000 	cmp	r3, #0
    beb0:	aa000001 	bge	bebc <UsbControlMessage+0x98>
    beb4:	e3e03007 	mvn	r3, #7
    beb8:	ea000020 	b	bf40 <UsbControlMessage+0x11c>
    bebc:	e51b3010 	ldr	r3, [fp, #-16]
    bec0:	e5933008 	ldr	r3, [r3, #8]
    bec4:	e3c33102 	bic	r3, r3, #-2147483648	; 0x80000000
    bec8:	e3530000 	cmp	r3, #0
    becc:	0a00001a 	beq	bf3c <UsbControlMessage+0x118>
    bed0:	e51b3010 	ldr	r3, [fp, #-16]
    bed4:	e593340c 	ldr	r3, [r3, #1036]	; 0x40c
    bed8:	e3530000 	cmp	r3, #0
    bedc:	0a000014 	beq	bf34 <UsbControlMessage+0x110>
    bee0:	e51b3010 	ldr	r3, [fp, #-16]
    bee4:	e593340c 	ldr	r3, [r3, #1036]	; 0x40c
    bee8:	e5933020 	ldr	r3, [r3, #32]
    beec:	e3530000 	cmp	r3, #0
    bef0:	0a00000f 	beq	bf34 <UsbControlMessage+0x110>
    bef4:	e51b3010 	ldr	r3, [fp, #-16]
    bef8:	e593340c 	ldr	r3, [r3, #1036]	; 0x40c
    befc:	e5933020 	ldr	r3, [r3, #32]
    bf00:	e51b2010 	ldr	r2, [fp, #-16]
    bf04:	e592240c 	ldr	r2, [r2, #1036]	; 0x40c
    bf08:	e51b1010 	ldr	r1, [fp, #-16]
    bf0c:	e1a00002 	mov	r0, r2
    bf10:	e1a0e00f 	mov	lr, pc
    bf14:	e12fff13 	bx	r3
    bf18:	e1a03000 	mov	r3, r0
    bf1c:	e54b3005 	strb	r3, [fp, #-5]
    bf20:	e15b30d5 	ldrsb	r3, [fp, #-5]
    bf24:	e3530000 	cmp	r3, #0
    bf28:	0a000001 	beq	bf34 <UsbControlMessage+0x110>
    bf2c:	e3e03008 	mvn	r3, #8
    bf30:	ea000002 	b	bf40 <UsbControlMessage+0x11c>
    bf34:	e3e03003 	mvn	r3, #3
    bf38:	e54b3005 	strb	r3, [fp, #-5]
    bf3c:	e15b30d5 	ldrsb	r3, [fp, #-5]
    bf40:	e1a00003 	mov	r0, r3
    bf44:	e24bd004 	sub	sp, fp, #4
    bf48:	e8bd4800 	pop	{fp, lr}
    bf4c:	e12fff1e 	bx	lr

0000bf50 <UsbGetDescriptor>:
    bf50:	e92d4800 	push	{fp, lr}
    bf54:	e28db004 	add	fp, sp, #4
    bf58:	e24dd020 	sub	sp, sp, #32
    bf5c:	e50b0018 	str	r0, [fp, #-24]	; 0xffffffe8
    bf60:	e1a00001 	mov	r0, r1
    bf64:	e1a01002 	mov	r1, r2
    bf68:	e1a02000 	mov	r2, r0
    bf6c:	e54b2019 	strb	r2, [fp, #-25]	; 0xffffffe7
    bf70:	e1a02001 	mov	r2, r1
    bf74:	e54b201a 	strb	r2, [fp, #-26]	; 0xffffffe6
    bf78:	e14b31bc 	strh	r3, [fp, #-28]	; 0xffffffe4
    bf7c:	e3a03000 	mov	r3, #0
    bf80:	e50b3014 	str	r3, [fp, #-20]	; 0xffffffec
    bf84:	e51b3018 	ldr	r3, [fp, #-24]	; 0xffffffe8
    bf88:	e5d3302b 	ldrb	r3, [r3, #43]	; 0x2b
    bf8c:	e20330ff 	and	r3, r3, #255	; 0xff
    bf90:	e1a00003 	mov	r0, r3
    bf94:	ebffff38 	bl	bc7c <SizeFromNumber>
    bf98:	e1a03000 	mov	r3, r0
    bf9c:	e2033003 	and	r3, r3, #3
    bfa0:	e20320ff 	and	r2, r3, #255	; 0xff
    bfa4:	e55b3014 	ldrb	r3, [fp, #-20]	; 0xffffffec
    bfa8:	e2022003 	and	r2, r2, #3
    bfac:	e3c33003 	bic	r3, r3, #3
    bfb0:	e1823003 	orr	r3, r2, r3
    bfb4:	e54b3014 	strb	r3, [fp, #-20]	; 0xffffffec
    bfb8:	e51b3018 	ldr	r3, [fp, #-24]	; 0xffffffe8
    bfbc:	e5d33004 	ldrb	r3, [r3, #4]
    bfc0:	e2033003 	and	r3, r3, #3
    bfc4:	e20330ff 	and	r3, r3, #255	; 0xff
    bfc8:	e55b2014 	ldrb	r2, [fp, #-20]	; 0xffffffec
    bfcc:	e2033003 	and	r3, r3, #3
    bfd0:	e3c2200c 	bic	r2, r2, #12
    bfd4:	e1a03103 	lsl	r3, r3, #2
    bfd8:	e1833002 	orr	r3, r3, r2
    bfdc:	e1a02003 	mov	r2, r3
    bfe0:	e54b2014 	strb	r2, [fp, #-20]	; 0xffffffec
    bfe4:	e51b3018 	ldr	r3, [fp, #-24]	; 0xffffffe8
    bfe8:	e5933000 	ldr	r3, [r3]
    bfec:	e20330ff 	and	r3, r3, #255	; 0xff
    bff0:	e54b3013 	strb	r3, [fp, #-19]	; 0xffffffed
    bff4:	e55b3012 	ldrb	r3, [fp, #-18]	; 0xffffffee
    bff8:	e3833004 	orr	r3, r3, #4
    bffc:	e54b3012 	strb	r3, [fp, #-18]	; 0xffffffee
    c000:	e5db3010 	ldrb	r3, [fp, #16]
    c004:	e1e03c83 	mvn	r3, r3, lsl #25
    c008:	e1e03ca3 	mvn	r3, r3, lsr #25
    c00c:	e20330ff 	and	r3, r3, #255	; 0xff
    c010:	e54b3010 	strb	r3, [fp, #-16]
    c014:	e3a03006 	mov	r3, #6
    c018:	e54b300f 	strb	r3, [fp, #-15]
    c01c:	e55b3019 	ldrb	r3, [fp, #-25]	; 0xffffffe7
    c020:	e1a03403 	lsl	r3, r3, #8
    c024:	e1a03803 	lsl	r3, r3, #16
    c028:	e1a02843 	asr	r2, r3, #16
    c02c:	e55b301a 	ldrb	r3, [fp, #-26]	; 0xffffffe6
    c030:	e1a03803 	lsl	r3, r3, #16
    c034:	e1a03843 	asr	r3, r3, #16
    c038:	e1823003 	orr	r3, r2, r3
    c03c:	e1a03803 	lsl	r3, r3, #16
    c040:	e1a03843 	asr	r3, r3, #16
    c044:	e1a03803 	lsl	r3, r3, #16
    c048:	e1a03823 	lsr	r3, r3, #16
    c04c:	e14b30be 	strh	r3, [fp, #-14]
    c050:	e15b31bc 	ldrh	r3, [fp, #-28]	; 0xffffffe4
    c054:	e14b30bc 	strh	r3, [fp, #-12]
    c058:	e59b3008 	ldr	r3, [fp, #8]
    c05c:	e1a03803 	lsl	r3, r3, #16
    c060:	e1a03823 	lsr	r3, r3, #16
    c064:	e14b30ba 	strh	r3, [fp, #-10]
    c068:	e3a0300a 	mov	r3, #10
    c06c:	e58d3004 	str	r3, [sp, #4]
    c070:	e24b3010 	sub	r3, fp, #16
    c074:	e58d3000 	str	r3, [sp]
    c078:	e59b3008 	ldr	r3, [fp, #8]
    c07c:	e59b2004 	ldr	r2, [fp, #4]
    c080:	e51b1014 	ldr	r1, [fp, #-20]	; 0xffffffec
    c084:	e51b0018 	ldr	r0, [fp, #-24]	; 0xffffffe8
    c088:	ebffff65 	bl	be24 <UsbControlMessage>
    c08c:	e1a03000 	mov	r3, r0
    c090:	e54b3005 	strb	r3, [fp, #-5]
    c094:	e15b30d5 	ldrsb	r3, [fp, #-5]
    c098:	e3530000 	cmp	r3, #0
    c09c:	0a000001 	beq	c0a8 <UsbGetDescriptor+0x158>
    c0a0:	e15b30d5 	ldrsb	r3, [fp, #-5]
    c0a4:	ea000007 	b	c0c8 <UsbGetDescriptor+0x178>
    c0a8:	e51b3018 	ldr	r3, [fp, #-24]	; 0xffffffe8
    c0ac:	e5932418 	ldr	r2, [r3, #1048]	; 0x418
    c0b0:	e59b300c 	ldr	r3, [fp, #12]
    c0b4:	e1520003 	cmp	r2, r3
    c0b8:	2a000001 	bcs	c0c4 <UsbGetDescriptor+0x174>
    c0bc:	e3e03003 	mvn	r3, #3
    c0c0:	ea000000 	b	c0c8 <UsbGetDescriptor+0x178>
    c0c4:	e3a03000 	mov	r3, #0
    c0c8:	e1a00003 	mov	r0, r3
    c0cc:	e24bd004 	sub	sp, fp, #4
    c0d0:	e8bd4800 	pop	{fp, lr}
    c0d4:	e12fff1e 	bx	lr

0000c0d8 <UsbGetString>:
    c0d8:	e92d4800 	push	{fp, lr}
    c0dc:	e28db004 	add	fp, sp, #4
    c0e0:	e24dd028 	sub	sp, sp, #40	; 0x28
    c0e4:	e50b0010 	str	r0, [fp, #-16]
    c0e8:	e50b3018 	str	r3, [fp, #-24]	; 0xffffffe8
    c0ec:	e1a03001 	mov	r3, r1
    c0f0:	e54b3011 	strb	r3, [fp, #-17]	; 0xffffffef
    c0f4:	e14b21b4 	strh	r2, [fp, #-20]	; 0xffffffec
    c0f8:	e3a03000 	mov	r3, #0
    c0fc:	e50b300c 	str	r3, [fp, #-12]
    c100:	ea000015 	b	c15c <UsbGetString+0x84>
    c104:	e15b11b4 	ldrh	r1, [fp, #-20]	; 0xffffffec
    c108:	e55b2011 	ldrb	r2, [fp, #-17]	; 0xffffffef
    c10c:	e3a03000 	mov	r3, #0
    c110:	e58d300c 	str	r3, [sp, #12]
    c114:	e59b3004 	ldr	r3, [fp, #4]
    c118:	e58d3008 	str	r3, [sp, #8]
    c11c:	e59b3004 	ldr	r3, [fp, #4]
    c120:	e58d3004 	str	r3, [sp, #4]
    c124:	e51b3018 	ldr	r3, [fp, #-24]	; 0xffffffe8
    c128:	e58d3000 	str	r3, [sp]
    c12c:	e1a03001 	mov	r3, r1
    c130:	e3a01003 	mov	r1, #3
    c134:	e51b0010 	ldr	r0, [fp, #-16]
    c138:	ebffff84 	bl	bf50 <UsbGetDescriptor>
    c13c:	e1a03000 	mov	r3, r0
    c140:	e54b3005 	strb	r3, [fp, #-5]
    c144:	e15b30d5 	ldrsb	r3, [fp, #-5]
    c148:	e3530000 	cmp	r3, #0
    c14c:	0a000006 	beq	c16c <UsbGetString+0x94>
    c150:	e51b300c 	ldr	r3, [fp, #-12]
    c154:	e2833001 	add	r3, r3, #1
    c158:	e50b300c 	str	r3, [fp, #-12]
    c15c:	e51b300c 	ldr	r3, [fp, #-12]
    c160:	e3530002 	cmp	r3, #2
    c164:	9affffe6 	bls	c104 <UsbGetString+0x2c>
    c168:	ea000000 	b	c170 <UsbGetString+0x98>
    c16c:	e1a00000 	nop			; (mov r0, r0)
    c170:	e15b30d5 	ldrsb	r3, [fp, #-5]
    c174:	e1a00003 	mov	r0, r3
    c178:	e24bd004 	sub	sp, fp, #4
    c17c:	e8bd4800 	pop	{fp, lr}
    c180:	e12fff1e 	bx	lr

0000c184 <UsbReadStringLang>:
    c184:	e92d4800 	push	{fp, lr}
    c188:	e28db004 	add	fp, sp, #4
    c18c:	e24dd030 	sub	sp, sp, #48	; 0x30
    c190:	e50b0020 	str	r0, [fp, #-32]	; 0xffffffe0
    c194:	e50b3028 	str	r3, [fp, #-40]	; 0xffffffd8
    c198:	e1a03001 	mov	r3, r1
    c19c:	e54b3021 	strb	r3, [fp, #-33]	; 0xffffffdf
    c1a0:	e14b22b4 	strh	r2, [fp, #-36]	; 0xffffffdc
    c1a4:	e3a03002 	mov	r3, #2
    c1a8:	e50b300c 	str	r3, [fp, #-12]
    c1ac:	e59b3004 	ldr	r3, [fp, #4]
    c1b0:	e50b3010 	str	r3, [fp, #-16]
    c1b4:	e51b2010 	ldr	r2, [fp, #-16]
    c1b8:	e51b300c 	ldr	r3, [fp, #-12]
    c1bc:	e1520003 	cmp	r2, r3
    c1c0:	31a03002 	movcc	r3, r2
    c1c4:	21a03003 	movcs	r3, r3
    c1c8:	e15b22b4 	ldrh	r2, [fp, #-36]	; 0xffffffdc
    c1cc:	e55b1021 	ldrb	r1, [fp, #-33]	; 0xffffffdf
    c1d0:	e58d3000 	str	r3, [sp]
    c1d4:	e51b3028 	ldr	r3, [fp, #-40]	; 0xffffffd8
    c1d8:	e51b0020 	ldr	r0, [fp, #-32]	; 0xffffffe0
    c1dc:	ebffffbd 	bl	c0d8 <UsbGetString>
    c1e0:	e1a03000 	mov	r3, r0
    c1e4:	e54b3005 	strb	r3, [fp, #-5]
    c1e8:	e15b30d5 	ldrsb	r3, [fp, #-5]
    c1ec:	e3530000 	cmp	r3, #0
    c1f0:	1a000016 	bne	c250 <UsbReadStringLang+0xcc>
    c1f4:	e51b3020 	ldr	r3, [fp, #-32]	; 0xffffffe0
    c1f8:	e5932418 	ldr	r2, [r3, #1048]	; 0x418
    c1fc:	e59b3004 	ldr	r3, [fp, #4]
    c200:	e1520003 	cmp	r2, r3
    c204:	0a000011 	beq	c250 <UsbReadStringLang+0xcc>
    c208:	e51b3028 	ldr	r3, [fp, #-40]	; 0xffffffd8
    c20c:	e5d33000 	ldrb	r3, [r3]
    c210:	e50b3014 	str	r3, [fp, #-20]	; 0xffffffec
    c214:	e59b3004 	ldr	r3, [fp, #4]
    c218:	e50b3018 	str	r3, [fp, #-24]	; 0xffffffe8
    c21c:	e51b2018 	ldr	r2, [fp, #-24]	; 0xffffffe8
    c220:	e51b3014 	ldr	r3, [fp, #-20]	; 0xffffffec
    c224:	e1520003 	cmp	r2, r3
    c228:	31a03002 	movcc	r3, r2
    c22c:	21a03003 	movcs	r3, r3
    c230:	e15b22b4 	ldrh	r2, [fp, #-36]	; 0xffffffdc
    c234:	e55b1021 	ldrb	r1, [fp, #-33]	; 0xffffffdf
    c238:	e58d3000 	str	r3, [sp]
    c23c:	e51b3028 	ldr	r3, [fp, #-40]	; 0xffffffd8
    c240:	e51b0020 	ldr	r0, [fp, #-32]	; 0xffffffe0
    c244:	ebffffa3 	bl	c0d8 <UsbGetString>
    c248:	e1a03000 	mov	r3, r0
    c24c:	e54b3005 	strb	r3, [fp, #-5]
    c250:	e15b30d5 	ldrsb	r3, [fp, #-5]
    c254:	e1a00003 	mov	r0, r3
    c258:	e24bd004 	sub	sp, fp, #4
    c25c:	e8bd4800 	pop	{fp, lr}
    c260:	e12fff1e 	bx	lr

0000c264 <UsbReadString>:
    c264:	e92d4800 	push	{fp, lr}
    c268:	e28db004 	add	fp, sp, #4
    c26c:	e24dd030 	sub	sp, sp, #48	; 0x30
    c270:	e50b0020 	str	r0, [fp, #-32]	; 0xffffffe0
    c274:	e50b2028 	str	r2, [fp, #-40]	; 0xffffffd8
    c278:	e50b302c 	str	r3, [fp, #-44]	; 0xffffffd4
    c27c:	e1a03001 	mov	r3, r1
    c280:	e54b3021 	strb	r3, [fp, #-33]	; 0xffffffdf
    c284:	e51b3028 	ldr	r3, [fp, #-40]	; 0xffffffd8
    c288:	e3530000 	cmp	r3, #0
    c28c:	0a000002 	beq	c29c <UsbReadString+0x38>
    c290:	e55b3021 	ldrb	r3, [fp, #-33]	; 0xffffffdf
    c294:	e3530000 	cmp	r3, #0
    c298:	1a000001 	bne	c2a4 <UsbReadString+0x40>
    c29c:	e3e03001 	mvn	r3, #1
    c2a0:	ea00006b 	b	c454 <UsbReadString+0x1f0>
    c2a4:	e24b2018 	sub	r2, fp, #24
    c2a8:	e3a03004 	mov	r3, #4
    c2ac:	e58d3000 	str	r3, [sp]
    c2b0:	e1a03002 	mov	r3, r2
    c2b4:	e3a02000 	mov	r2, #0
    c2b8:	e3a01000 	mov	r1, #0
    c2bc:	e51b0020 	ldr	r0, [fp, #-32]	; 0xffffffe0
    c2c0:	ebffffaf 	bl	c184 <UsbReadStringLang>
    c2c4:	e1a03000 	mov	r3, r0
    c2c8:	e54b3009 	strb	r3, [fp, #-9]
    c2cc:	e15b30d9 	ldrsb	r3, [fp, #-9]
    c2d0:	e3530000 	cmp	r3, #0
    c2d4:	0a000001 	beq	c2e0 <UsbReadString+0x7c>
    c2d8:	e15b30d9 	ldrsb	r3, [fp, #-9]
    c2dc:	ea00005c 	b	c454 <UsbReadString+0x1f0>
    c2e0:	e51b3020 	ldr	r3, [fp, #-32]	; 0xffffffe0
    c2e4:	e5933418 	ldr	r3, [r3, #1048]	; 0x418
    c2e8:	e3530003 	cmp	r3, #3
    c2ec:	8a000001 	bhi	c2f8 <UsbReadString+0x94>
    c2f0:	e3e03003 	mvn	r3, #3
    c2f4:	ea000056 	b	c454 <UsbReadString+0x1f0>
    c2f8:	e51b3028 	ldr	r3, [fp, #-40]	; 0xffffffd8
    c2fc:	e50b3010 	str	r3, [fp, #-16]
    c300:	e51b3010 	ldr	r3, [fp, #-16]
    c304:	e3530000 	cmp	r3, #0
    c308:	1a000001 	bne	c314 <UsbReadString+0xb0>
    c30c:	e3e03006 	mvn	r3, #6
    c310:	ea00004f 	b	c454 <UsbReadString+0x1f0>
    c314:	e15b21b6 	ldrh	r2, [fp, #-22]	; 0xffffffea
    c318:	e55b1021 	ldrb	r1, [fp, #-33]	; 0xffffffdf
    c31c:	e51b302c 	ldr	r3, [fp, #-44]	; 0xffffffd4
    c320:	e58d3000 	str	r3, [sp]
    c324:	e51b3010 	ldr	r3, [fp, #-16]
    c328:	e51b0020 	ldr	r0, [fp, #-32]	; 0xffffffe0
    c32c:	ebffff94 	bl	c184 <UsbReadStringLang>
    c330:	e1a03000 	mov	r3, r0
    c334:	e54b3009 	strb	r3, [fp, #-9]
    c338:	e15b30d9 	ldrsb	r3, [fp, #-9]
    c33c:	e3530000 	cmp	r3, #0
    c340:	0a000001 	beq	c34c <UsbReadString+0xe8>
    c344:	e15b30d9 	ldrsb	r3, [fp, #-9]
    c348:	ea000041 	b	c454 <UsbReadString+0x1f0>
    c34c:	e51b3010 	ldr	r3, [fp, #-16]
    c350:	e5d33000 	ldrb	r3, [r3]
    c354:	e54b3011 	strb	r3, [fp, #-17]	; 0xffffffef
    c358:	e3a03000 	mov	r3, #0
    c35c:	e50b3008 	str	r3, [fp, #-8]
    c360:	ea000023 	b	c3f4 <UsbReadString+0x190>
    c364:	e51b2010 	ldr	r2, [fp, #-16]
    c368:	e51b3008 	ldr	r3, [fp, #-8]
    c36c:	e1a03083 	lsl	r3, r3, #1
    c370:	e0823003 	add	r3, r2, r3
    c374:	e5d32002 	ldrb	r2, [r3, #2]
    c378:	e5d33003 	ldrb	r3, [r3, #3]
    c37c:	e1a03403 	lsl	r3, r3, #8
    c380:	e1833002 	orr	r3, r3, r2
    c384:	e1a03803 	lsl	r3, r3, #16
    c388:	e1a03823 	lsr	r3, r3, #16
    c38c:	e35300ff 	cmp	r3, #255	; 0xff
    c390:	9a000005 	bls	c3ac <UsbReadString+0x148>
    c394:	e51b2028 	ldr	r2, [fp, #-40]	; 0xffffffd8
    c398:	e51b3008 	ldr	r3, [fp, #-8]
    c39c:	e0823003 	add	r3, r2, r3
    c3a0:	e3a0203f 	mov	r2, #63	; 0x3f
    c3a4:	e5c32000 	strb	r2, [r3]
    c3a8:	ea00000e 	b	c3e8 <UsbReadString+0x184>
    c3ac:	e51b2028 	ldr	r2, [fp, #-40]	; 0xffffffd8
    c3b0:	e51b3008 	ldr	r3, [fp, #-8]
    c3b4:	e0822003 	add	r2, r2, r3
    c3b8:	e51b1010 	ldr	r1, [fp, #-16]
    c3bc:	e51b3008 	ldr	r3, [fp, #-8]
    c3c0:	e1a03083 	lsl	r3, r3, #1
    c3c4:	e0813003 	add	r3, r1, r3
    c3c8:	e5d31002 	ldrb	r1, [r3, #2]
    c3cc:	e5d33003 	ldrb	r3, [r3, #3]
    c3d0:	e1a03403 	lsl	r3, r3, #8
    c3d4:	e1833001 	orr	r3, r3, r1
    c3d8:	e1a03803 	lsl	r3, r3, #16
    c3dc:	e1a03823 	lsr	r3, r3, #16
    c3e0:	e20330ff 	and	r3, r3, #255	; 0xff
    c3e4:	e5c23000 	strb	r3, [r2]
    c3e8:	e51b3008 	ldr	r3, [fp, #-8]
    c3ec:	e2833001 	add	r3, r3, #1
    c3f0:	e50b3008 	str	r3, [fp, #-8]
    c3f4:	e51b302c 	ldr	r3, [fp, #-44]	; 0xffffffd4
    c3f8:	e2432001 	sub	r2, r3, #1
    c3fc:	e51b3008 	ldr	r3, [fp, #-8]
    c400:	e1520003 	cmp	r2, r3
    c404:	9a000006 	bls	c424 <UsbReadString+0x1c0>
    c408:	e55b3011 	ldrb	r3, [fp, #-17]	; 0xffffffef
    c40c:	e2433002 	sub	r3, r3, #2
    c410:	e1a030c3 	asr	r3, r3, #1
    c414:	e1a02003 	mov	r2, r3
    c418:	e51b3008 	ldr	r3, [fp, #-8]
    c41c:	e1520003 	cmp	r2, r3
    c420:	8affffcf 	bhi	c364 <UsbReadString+0x100>
    c424:	e51b2008 	ldr	r2, [fp, #-8]
    c428:	e51b302c 	ldr	r3, [fp, #-44]	; 0xffffffd4
    c42c:	e1520003 	cmp	r2, r3
    c430:	2a000006 	bcs	c450 <UsbReadString+0x1ec>
    c434:	e51b3008 	ldr	r3, [fp, #-8]
    c438:	e2832001 	add	r2, r3, #1
    c43c:	e50b2008 	str	r2, [fp, #-8]
    c440:	e51b2028 	ldr	r2, [fp, #-40]	; 0xffffffd8
    c444:	e0823003 	add	r3, r2, r3
    c448:	e3a02000 	mov	r2, #0
    c44c:	e5c32000 	strb	r2, [r3]
    c450:	e15b30d9 	ldrsb	r3, [fp, #-9]
    c454:	e1a00003 	mov	r0, r3
    c458:	e24bd004 	sub	sp, fp, #4
    c45c:	e8bd4800 	pop	{fp, lr}
    c460:	e12fff1e 	bx	lr

0000c464 <UsbReadDeviceDescriptor>:
    c464:	e92d4800 	push	{fp, lr}
    c468:	e28db004 	add	fp, sp, #4
    c46c:	e24dd020 	sub	sp, sp, #32
    c470:	e50b0010 	str	r0, [fp, #-16]
    c474:	e51b3010 	ldr	r3, [fp, #-16]
    c478:	e5d33004 	ldrb	r3, [r3, #4]
    c47c:	e3530002 	cmp	r3, #2
    c480:	1a00002d 	bne	c53c <UsbReadDeviceDescriptor+0xd8>
    c484:	e51b3010 	ldr	r3, [fp, #-16]
    c488:	e3a02008 	mov	r2, #8
    c48c:	e5c3202b 	strb	r2, [r3, #43]	; 0x2b
    c490:	e51b3010 	ldr	r3, [fp, #-16]
    c494:	e2833024 	add	r3, r3, #36	; 0x24
    c498:	e3a02000 	mov	r2, #0
    c49c:	e58d200c 	str	r2, [sp, #12]
    c4a0:	e3a02008 	mov	r2, #8
    c4a4:	e58d2008 	str	r2, [sp, #8]
    c4a8:	e3a02012 	mov	r2, #18
    c4ac:	e58d2004 	str	r2, [sp, #4]
    c4b0:	e58d3000 	str	r3, [sp]
    c4b4:	e3a03000 	mov	r3, #0
    c4b8:	e3a02000 	mov	r2, #0
    c4bc:	e3a01001 	mov	r1, #1
    c4c0:	e51b0010 	ldr	r0, [fp, #-16]
    c4c4:	ebfffea1 	bl	bf50 <UsbGetDescriptor>
    c4c8:	e1a03000 	mov	r3, r0
    c4cc:	e54b3005 	strb	r3, [fp, #-5]
    c4d0:	e15b30d5 	ldrsb	r3, [fp, #-5]
    c4d4:	e3530000 	cmp	r3, #0
    c4d8:	0a000001 	beq	c4e4 <UsbReadDeviceDescriptor+0x80>
    c4dc:	e15b30d5 	ldrsb	r3, [fp, #-5]
    c4e0:	ea000059 	b	c64c <UsbReadDeviceDescriptor+0x1e8>
    c4e4:	e51b3010 	ldr	r3, [fp, #-16]
    c4e8:	e5933418 	ldr	r3, [r3, #1048]	; 0x418
    c4ec:	e3530012 	cmp	r3, #18
    c4f0:	1a000001 	bne	c4fc <UsbReadDeviceDescriptor+0x98>
    c4f4:	e15b30d5 	ldrsb	r3, [fp, #-5]
    c4f8:	ea000053 	b	c64c <UsbReadDeviceDescriptor+0x1e8>
    c4fc:	e51b3010 	ldr	r3, [fp, #-16]
    c500:	e2833024 	add	r3, r3, #36	; 0x24
    c504:	e3a02000 	mov	r2, #0
    c508:	e58d200c 	str	r2, [sp, #12]
    c50c:	e3a02012 	mov	r2, #18
    c510:	e58d2008 	str	r2, [sp, #8]
    c514:	e3a02012 	mov	r2, #18
    c518:	e58d2004 	str	r2, [sp, #4]
    c51c:	e58d3000 	str	r3, [sp]
    c520:	e3a03000 	mov	r3, #0
    c524:	e3a02000 	mov	r2, #0
    c528:	e3a01001 	mov	r1, #1
    c52c:	e51b0010 	ldr	r0, [fp, #-16]
    c530:	ebfffe86 	bl	bf50 <UsbGetDescriptor>
    c534:	e1a03000 	mov	r3, r0
    c538:	ea000043 	b	c64c <UsbReadDeviceDescriptor+0x1e8>
    c53c:	e51b3010 	ldr	r3, [fp, #-16]
    c540:	e5d33004 	ldrb	r3, [r3, #4]
    c544:	e3530001 	cmp	r3, #1
    c548:	1a00002d 	bne	c604 <UsbReadDeviceDescriptor+0x1a0>
    c54c:	e51b3010 	ldr	r3, [fp, #-16]
    c550:	e3a02040 	mov	r2, #64	; 0x40
    c554:	e5c3202b 	strb	r2, [r3, #43]	; 0x2b
    c558:	e51b3010 	ldr	r3, [fp, #-16]
    c55c:	e2833024 	add	r3, r3, #36	; 0x24
    c560:	e3a02000 	mov	r2, #0
    c564:	e58d200c 	str	r2, [sp, #12]
    c568:	e3a02008 	mov	r2, #8
    c56c:	e58d2008 	str	r2, [sp, #8]
    c570:	e3a02012 	mov	r2, #18
    c574:	e58d2004 	str	r2, [sp, #4]
    c578:	e58d3000 	str	r3, [sp]
    c57c:	e3a03000 	mov	r3, #0
    c580:	e3a02000 	mov	r2, #0
    c584:	e3a01001 	mov	r1, #1
    c588:	e51b0010 	ldr	r0, [fp, #-16]
    c58c:	ebfffe6f 	bl	bf50 <UsbGetDescriptor>
    c590:	e1a03000 	mov	r3, r0
    c594:	e54b3005 	strb	r3, [fp, #-5]
    c598:	e15b30d5 	ldrsb	r3, [fp, #-5]
    c59c:	e3530000 	cmp	r3, #0
    c5a0:	0a000001 	beq	c5ac <UsbReadDeviceDescriptor+0x148>
    c5a4:	e15b30d5 	ldrsb	r3, [fp, #-5]
    c5a8:	ea000027 	b	c64c <UsbReadDeviceDescriptor+0x1e8>
    c5ac:	e51b3010 	ldr	r3, [fp, #-16]
    c5b0:	e5933418 	ldr	r3, [r3, #1048]	; 0x418
    c5b4:	e3530012 	cmp	r3, #18
    c5b8:	1a000001 	bne	c5c4 <UsbReadDeviceDescriptor+0x160>
    c5bc:	e15b30d5 	ldrsb	r3, [fp, #-5]
    c5c0:	ea000021 	b	c64c <UsbReadDeviceDescriptor+0x1e8>
    c5c4:	e51b3010 	ldr	r3, [fp, #-16]
    c5c8:	e2833024 	add	r3, r3, #36	; 0x24
    c5cc:	e3a02000 	mov	r2, #0
    c5d0:	e58d200c 	str	r2, [sp, #12]
    c5d4:	e3a02012 	mov	r2, #18
    c5d8:	e58d2008 	str	r2, [sp, #8]
    c5dc:	e3a02012 	mov	r2, #18
    c5e0:	e58d2004 	str	r2, [sp, #4]
    c5e4:	e58d3000 	str	r3, [sp]
    c5e8:	e3a03000 	mov	r3, #0
    c5ec:	e3a02000 	mov	r2, #0
    c5f0:	e3a01001 	mov	r1, #1
    c5f4:	e51b0010 	ldr	r0, [fp, #-16]
    c5f8:	ebfffe54 	bl	bf50 <UsbGetDescriptor>
    c5fc:	e1a03000 	mov	r3, r0
    c600:	ea000011 	b	c64c <UsbReadDeviceDescriptor+0x1e8>
    c604:	e51b3010 	ldr	r3, [fp, #-16]
    c608:	e3a02040 	mov	r2, #64	; 0x40
    c60c:	e5c3202b 	strb	r2, [r3, #43]	; 0x2b
    c610:	e51b3010 	ldr	r3, [fp, #-16]
    c614:	e2833024 	add	r3, r3, #36	; 0x24
    c618:	e3a02000 	mov	r2, #0
    c61c:	e58d200c 	str	r2, [sp, #12]
    c620:	e3a02012 	mov	r2, #18
    c624:	e58d2008 	str	r2, [sp, #8]
    c628:	e3a02012 	mov	r2, #18
    c62c:	e58d2004 	str	r2, [sp, #4]
    c630:	e58d3000 	str	r3, [sp]
    c634:	e3a03000 	mov	r3, #0
    c638:	e3a02000 	mov	r2, #0
    c63c:	e3a01001 	mov	r1, #1
    c640:	e51b0010 	ldr	r0, [fp, #-16]
    c644:	ebfffe41 	bl	bf50 <UsbGetDescriptor>
    c648:	e1a03000 	mov	r3, r0
    c64c:	e1a00003 	mov	r0, r3
    c650:	e24bd004 	sub	sp, fp, #4
    c654:	e8bd4800 	pop	{fp, lr}
    c658:	e12fff1e 	bx	lr

0000c65c <UsbSetAddress>:
    c65c:	e92d4800 	push	{fp, lr}
    c660:	e28db004 	add	fp, sp, #4
    c664:	e24dd020 	sub	sp, sp, #32
    c668:	e50b0018 	str	r0, [fp, #-24]	; 0xffffffe8
    c66c:	e1a03001 	mov	r3, r1
    c670:	e54b3019 	strb	r3, [fp, #-25]	; 0xffffffe7
    c674:	e51b3018 	ldr	r3, [fp, #-24]	; 0xffffffe8
    c678:	e5d33005 	ldrb	r3, [r3, #5]
    c67c:	e3530002 	cmp	r3, #2
    c680:	0a000001 	beq	c68c <UsbSetAddress+0x30>
    c684:	e3e03003 	mvn	r3, #3
    c688:	ea00003c 	b	c780 <UsbSetAddress+0x124>
    c68c:	e3a03000 	mov	r3, #0
    c690:	e50b3014 	str	r3, [fp, #-20]	; 0xffffffec
    c694:	e51b3018 	ldr	r3, [fp, #-24]	; 0xffffffe8
    c698:	e5d3302b 	ldrb	r3, [r3, #43]	; 0x2b
    c69c:	e20330ff 	and	r3, r3, #255	; 0xff
    c6a0:	e1a00003 	mov	r0, r3
    c6a4:	ebfffd74 	bl	bc7c <SizeFromNumber>
    c6a8:	e1a03000 	mov	r3, r0
    c6ac:	e2033003 	and	r3, r3, #3
    c6b0:	e20320ff 	and	r2, r3, #255	; 0xff
    c6b4:	e55b3014 	ldrb	r3, [fp, #-20]	; 0xffffffec
    c6b8:	e2022003 	and	r2, r2, #3
    c6bc:	e3c33003 	bic	r3, r3, #3
    c6c0:	e1823003 	orr	r3, r2, r3
    c6c4:	e54b3014 	strb	r3, [fp, #-20]	; 0xffffffec
    c6c8:	e51b3018 	ldr	r3, [fp, #-24]	; 0xffffffe8
    c6cc:	e5d33004 	ldrb	r3, [r3, #4]
    c6d0:	e2033003 	and	r3, r3, #3
    c6d4:	e20330ff 	and	r3, r3, #255	; 0xff
    c6d8:	e55b2014 	ldrb	r2, [fp, #-20]	; 0xffffffec
    c6dc:	e2033003 	and	r3, r3, #3
    c6e0:	e3c2200c 	bic	r2, r2, #12
    c6e4:	e1a03103 	lsl	r3, r3, #2
    c6e8:	e1833002 	orr	r3, r3, r2
    c6ec:	e1a02003 	mov	r2, r3
    c6f0:	e54b2014 	strb	r2, [fp, #-20]	; 0xffffffec
    c6f4:	e24b3010 	sub	r3, fp, #16
    c6f8:	e3a02000 	mov	r2, #0
    c6fc:	e5832000 	str	r2, [r3]
    c700:	e5832004 	str	r2, [r3, #4]
    c704:	e3a03005 	mov	r3, #5
    c708:	e54b300f 	strb	r3, [fp, #-15]
    c70c:	e55b3019 	ldrb	r3, [fp, #-25]	; 0xffffffe7
    c710:	e1a03803 	lsl	r3, r3, #16
    c714:	e1a03823 	lsr	r3, r3, #16
    c718:	e14b30be 	strh	r3, [fp, #-14]
    c71c:	e3a0300a 	mov	r3, #10
    c720:	e58d3004 	str	r3, [sp, #4]
    c724:	e24b3010 	sub	r3, fp, #16
    c728:	e58d3000 	str	r3, [sp]
    c72c:	e3a03000 	mov	r3, #0
    c730:	e3a02000 	mov	r2, #0
    c734:	e51b1014 	ldr	r1, [fp, #-20]	; 0xffffffec
    c738:	e51b0018 	ldr	r0, [fp, #-24]	; 0xffffffe8
    c73c:	ebfffdb8 	bl	be24 <UsbControlMessage>
    c740:	e1a03000 	mov	r3, r0
    c744:	e54b3005 	strb	r3, [fp, #-5]
    c748:	e15b30d5 	ldrsb	r3, [fp, #-5]
    c74c:	e3530000 	cmp	r3, #0
    c750:	0a000001 	beq	c75c <UsbSetAddress+0x100>
    c754:	e15b30d5 	ldrsb	r3, [fp, #-5]
    c758:	ea000008 	b	c780 <UsbSetAddress+0x124>
    c75c:	e59f002c 	ldr	r0, [pc, #44]	; c790 <UsbSetAddress+0x134>
    c760:	eb003033 	bl	18834 <MicroDelay>
    c764:	e55b2019 	ldrb	r2, [fp, #-25]	; 0xffffffe7
    c768:	e51b3018 	ldr	r3, [fp, #-24]	; 0xffffffe8
    c76c:	e5832000 	str	r2, [r3]
    c770:	e51b3018 	ldr	r3, [fp, #-24]	; 0xffffffe8
    c774:	e3a02003 	mov	r2, #3
    c778:	e5c32005 	strb	r2, [r3, #5]
    c77c:	e3a03000 	mov	r3, #0
    c780:	e1a00003 	mov	r0, r3
    c784:	e24bd004 	sub	sp, fp, #4
    c788:	e8bd4800 	pop	{fp, lr}
    c78c:	e12fff1e 	bx	lr
    c790:	00002710 	.word	0x00002710

0000c794 <UsbSetConfiguration>:
    c794:	e92d4800 	push	{fp, lr}
    c798:	e28db004 	add	fp, sp, #4
    c79c:	e24dd020 	sub	sp, sp, #32
    c7a0:	e50b0018 	str	r0, [fp, #-24]	; 0xffffffe8
    c7a4:	e1a03001 	mov	r3, r1
    c7a8:	e54b3019 	strb	r3, [fp, #-25]	; 0xffffffe7
    c7ac:	e51b3018 	ldr	r3, [fp, #-24]	; 0xffffffe8
    c7b0:	e5d33005 	ldrb	r3, [r3, #5]
    c7b4:	e3530003 	cmp	r3, #3
    c7b8:	0a000001 	beq	c7c4 <UsbSetConfiguration+0x30>
    c7bc:	e3e03003 	mvn	r3, #3
    c7c0:	ea00003e 	b	c8c0 <UsbSetConfiguration+0x12c>
    c7c4:	e3a03000 	mov	r3, #0
    c7c8:	e50b3014 	str	r3, [fp, #-20]	; 0xffffffec
    c7cc:	e51b3018 	ldr	r3, [fp, #-24]	; 0xffffffe8
    c7d0:	e5d3302b 	ldrb	r3, [r3, #43]	; 0x2b
    c7d4:	e20330ff 	and	r3, r3, #255	; 0xff
    c7d8:	e1a00003 	mov	r0, r3
    c7dc:	ebfffd26 	bl	bc7c <SizeFromNumber>
    c7e0:	e1a03000 	mov	r3, r0
    c7e4:	e2033003 	and	r3, r3, #3
    c7e8:	e20320ff 	and	r2, r3, #255	; 0xff
    c7ec:	e55b3014 	ldrb	r3, [fp, #-20]	; 0xffffffec
    c7f0:	e2022003 	and	r2, r2, #3
    c7f4:	e3c33003 	bic	r3, r3, #3
    c7f8:	e1823003 	orr	r3, r2, r3
    c7fc:	e54b3014 	strb	r3, [fp, #-20]	; 0xffffffec
    c800:	e51b3018 	ldr	r3, [fp, #-24]	; 0xffffffe8
    c804:	e5d33004 	ldrb	r3, [r3, #4]
    c808:	e2033003 	and	r3, r3, #3
    c80c:	e20330ff 	and	r3, r3, #255	; 0xff
    c810:	e55b2014 	ldrb	r2, [fp, #-20]	; 0xffffffec
    c814:	e2033003 	and	r3, r3, #3
    c818:	e3c2200c 	bic	r2, r2, #12
    c81c:	e1a03103 	lsl	r3, r3, #2
    c820:	e1833002 	orr	r3, r3, r2
    c824:	e1a02003 	mov	r2, r3
    c828:	e54b2014 	strb	r2, [fp, #-20]	; 0xffffffec
    c82c:	e51b3018 	ldr	r3, [fp, #-24]	; 0xffffffe8
    c830:	e5933000 	ldr	r3, [r3]
    c834:	e20330ff 	and	r3, r3, #255	; 0xff
    c838:	e54b3013 	strb	r3, [fp, #-19]	; 0xffffffed
    c83c:	e24b3010 	sub	r3, fp, #16
    c840:	e3a02000 	mov	r2, #0
    c844:	e5832000 	str	r2, [r3]
    c848:	e5832004 	str	r2, [r3, #4]
    c84c:	e3a03009 	mov	r3, #9
    c850:	e54b300f 	strb	r3, [fp, #-15]
    c854:	e55b3019 	ldrb	r3, [fp, #-25]	; 0xffffffe7
    c858:	e1a03803 	lsl	r3, r3, #16
    c85c:	e1a03823 	lsr	r3, r3, #16
    c860:	e14b30be 	strh	r3, [fp, #-14]
    c864:	e3a0300a 	mov	r3, #10
    c868:	e58d3004 	str	r3, [sp, #4]
    c86c:	e24b3010 	sub	r3, fp, #16
    c870:	e58d3000 	str	r3, [sp]
    c874:	e3a03000 	mov	r3, #0
    c878:	e3a02000 	mov	r2, #0
    c87c:	e51b1014 	ldr	r1, [fp, #-20]	; 0xffffffec
    c880:	e51b0018 	ldr	r0, [fp, #-24]	; 0xffffffe8
    c884:	ebfffd66 	bl	be24 <UsbControlMessage>
    c888:	e1a03000 	mov	r3, r0
    c88c:	e54b3005 	strb	r3, [fp, #-5]
    c890:	e15b30d5 	ldrsb	r3, [fp, #-5]
    c894:	e3530000 	cmp	r3, #0
    c898:	0a000001 	beq	c8a4 <UsbSetConfiguration+0x110>
    c89c:	e15b30d5 	ldrsb	r3, [fp, #-5]
    c8a0:	ea000006 	b	c8c0 <UsbSetConfiguration+0x12c>
    c8a4:	e51b3018 	ldr	r3, [fp, #-24]	; 0xffffffe8
    c8a8:	e55b2019 	ldrb	r2, [fp, #-25]	; 0xffffffe7
    c8ac:	e5c32006 	strb	r2, [r3, #6]
    c8b0:	e51b3018 	ldr	r3, [fp, #-24]	; 0xffffffe8
    c8b4:	e3a02004 	mov	r2, #4
    c8b8:	e5c32005 	strb	r2, [r3, #5]
    c8bc:	e3a03000 	mov	r3, #0
    c8c0:	e1a00003 	mov	r0, r3
    c8c4:	e24bd004 	sub	sp, fp, #4
    c8c8:	e8bd4800 	pop	{fp, lr}
    c8cc:	e12fff1e 	bx	lr

0000c8d0 <UsbConfigure>:
    c8d0:	e92d4800 	push	{fp, lr}
    c8d4:	e28db004 	add	fp, sp, #4
    c8d8:	e24dd038 	sub	sp, sp, #56	; 0x38
    c8dc:	e50b0028 	str	r0, [fp, #-40]	; 0xffffffd8
    c8e0:	e1a03001 	mov	r3, r1
    c8e4:	e54b3029 	strb	r3, [fp, #-41]	; 0xffffffd7
    c8e8:	e51b3028 	ldr	r3, [fp, #-40]	; 0xffffffd8
    c8ec:	e5d33005 	ldrb	r3, [r3, #5]
    c8f0:	e3530003 	cmp	r3, #3
    c8f4:	0a000001 	beq	c900 <UsbConfigure+0x30>
    c8f8:	e3e03003 	mvn	r3, #3
    c8fc:	ea0000cb 	b	cc30 <UsbConfigure+0x360>
    c900:	e51b3028 	ldr	r3, [fp, #-40]	; 0xffffffd8
    c904:	e2833038 	add	r3, r3, #56	; 0x38
    c908:	e55b1029 	ldrb	r1, [fp, #-41]	; 0xffffffd7
    c90c:	e3a02000 	mov	r2, #0
    c910:	e58d200c 	str	r2, [sp, #12]
    c914:	e3a02009 	mov	r2, #9
    c918:	e58d2008 	str	r2, [sp, #8]
    c91c:	e3a02009 	mov	r2, #9
    c920:	e58d2004 	str	r2, [sp, #4]
    c924:	e58d3000 	str	r3, [sp]
    c928:	e3a03000 	mov	r3, #0
    c92c:	e1a02001 	mov	r2, r1
    c930:	e3a01002 	mov	r1, #2
    c934:	e51b0028 	ldr	r0, [fp, #-40]	; 0xffffffd8
    c938:	ebfffd84 	bl	bf50 <UsbGetDescriptor>
    c93c:	e1a03000 	mov	r3, r0
    c940:	e54b3005 	strb	r3, [fp, #-5]
    c944:	e15b30d5 	ldrsb	r3, [fp, #-5]
    c948:	e3530000 	cmp	r3, #0
    c94c:	0a000001 	beq	c958 <UsbConfigure+0x88>
    c950:	e15b30d5 	ldrsb	r3, [fp, #-5]
    c954:	ea0000b5 	b	cc30 <UsbConfigure+0x360>
    c958:	e51b3028 	ldr	r3, [fp, #-40]	; 0xffffffd8
    c95c:	e1d333ba 	ldrh	r3, [r3, #58]	; 0x3a
    c960:	e1a03803 	lsl	r3, r3, #16
    c964:	e1a03823 	lsr	r3, r3, #16
    c968:	e1a00003 	mov	r0, r3
    c96c:	ebfff9a4 	bl	b004 <MemoryAllocate>
    c970:	e50b001c 	str	r0, [fp, #-28]	; 0xffffffe4
    c974:	e51b301c 	ldr	r3, [fp, #-28]	; 0xffffffe4
    c978:	e3530000 	cmp	r3, #0
    c97c:	1a000001 	bne	c988 <UsbConfigure+0xb8>
    c980:	e3e03006 	mvn	r3, #6
    c984:	ea0000a9 	b	cc30 <UsbConfigure+0x360>
    c988:	e51b3028 	ldr	r3, [fp, #-40]	; 0xffffffd8
    c98c:	e1d333ba 	ldrh	r3, [r3, #58]	; 0x3a
    c990:	e1a03803 	lsl	r3, r3, #16
    c994:	e1a03823 	lsr	r3, r3, #16
    c998:	e1a01003 	mov	r1, r3
    c99c:	e51b3028 	ldr	r3, [fp, #-40]	; 0xffffffd8
    c9a0:	e1d333ba 	ldrh	r3, [r3, #58]	; 0x3a
    c9a4:	e1a03803 	lsl	r3, r3, #16
    c9a8:	e1a03823 	lsr	r3, r3, #16
    c9ac:	e1a00003 	mov	r0, r3
    c9b0:	e55b2029 	ldrb	r2, [fp, #-41]	; 0xffffffd7
    c9b4:	e3a03000 	mov	r3, #0
    c9b8:	e58d300c 	str	r3, [sp, #12]
    c9bc:	e58d0008 	str	r0, [sp, #8]
    c9c0:	e58d1004 	str	r1, [sp, #4]
    c9c4:	e51b301c 	ldr	r3, [fp, #-28]	; 0xffffffe4
    c9c8:	e58d3000 	str	r3, [sp]
    c9cc:	e3a03000 	mov	r3, #0
    c9d0:	e3a01002 	mov	r1, #2
    c9d4:	e51b0028 	ldr	r0, [fp, #-40]	; 0xffffffd8
    c9d8:	ebfffd5c 	bl	bf50 <UsbGetDescriptor>
    c9dc:	e1a03000 	mov	r3, r0
    c9e0:	e54b3005 	strb	r3, [fp, #-5]
    c9e4:	e15b30d5 	ldrsb	r3, [fp, #-5]
    c9e8:	e3530000 	cmp	r3, #0
    c9ec:	1a000089 	bne	cc18 <UsbConfigure+0x348>
    c9f0:	e51b3028 	ldr	r3, [fp, #-40]	; 0xffffffd8
    c9f4:	e55b2029 	ldrb	r2, [fp, #-41]	; 0xffffffd7
    c9f8:	e5c32006 	strb	r2, [r3, #6]
    c9fc:	e51b3028 	ldr	r3, [fp, #-40]	; 0xffffffd8
    ca00:	e5d3303d 	ldrb	r3, [r3, #61]	; 0x3d
    ca04:	e54b3029 	strb	r3, [fp, #-41]	; 0xffffffd7
    ca08:	e51b301c 	ldr	r3, [fp, #-28]	; 0xffffffe4
    ca0c:	e50b300c 	str	r3, [fp, #-12]
    ca10:	e3a03008 	mov	r3, #8
    ca14:	e50b3010 	str	r3, [fp, #-16]
    ca18:	e3a03010 	mov	r3, #16
    ca1c:	e50b3014 	str	r3, [fp, #-20]	; 0xffffffec
    ca20:	e3a03000 	mov	r3, #0
    ca24:	e54b3015 	strb	r3, [fp, #-21]	; 0xffffffeb
    ca28:	e51b300c 	ldr	r3, [fp, #-12]
    ca2c:	e5d33000 	ldrb	r3, [r3]
    ca30:	e1a02003 	mov	r2, r3
    ca34:	e51b300c 	ldr	r3, [fp, #-12]
    ca38:	e0833002 	add	r3, r3, r2
    ca3c:	e50b300c 	str	r3, [fp, #-12]
    ca40:	ea00005b 	b	cbb4 <UsbConfigure+0x2e4>
    ca44:	e51b300c 	ldr	r3, [fp, #-12]
    ca48:	e5d33001 	ldrb	r3, [r3, #1]
    ca4c:	e3530004 	cmp	r3, #4
    ca50:	0a000002 	beq	ca60 <UsbConfigure+0x190>
    ca54:	e3530005 	cmp	r3, #5
    ca58:	0a00001f 	beq	cadc <UsbConfigure+0x20c>
    ca5c:	ea000048 	b	cb84 <UsbConfigure+0x2b4>
    ca60:	e51b300c 	ldr	r3, [fp, #-12]
    ca64:	e50b3020 	str	r3, [fp, #-32]	; 0xffffffe0
    ca68:	e51b3020 	ldr	r3, [fp, #-32]	; 0xffffffe0
    ca6c:	e5d33002 	ldrb	r3, [r3, #2]
    ca70:	e1a02003 	mov	r2, r3
    ca74:	e51b3010 	ldr	r3, [fp, #-16]
    ca78:	e1520003 	cmp	r2, r3
    ca7c:	0a000013 	beq	cad0 <UsbConfigure+0x200>
    ca80:	e51b3020 	ldr	r3, [fp, #-32]	; 0xffffffe0
    ca84:	e5d33002 	ldrb	r3, [r3, #2]
    ca88:	e50b3010 	str	r3, [fp, #-16]
    ca8c:	e51b2010 	ldr	r2, [fp, #-16]
    ca90:	e1a03002 	mov	r3, r2
    ca94:	e1a03183 	lsl	r3, r3, #3
    ca98:	e0833002 	add	r3, r3, r2
    ca9c:	e2833040 	add	r3, r3, #64	; 0x40
    caa0:	e51b2028 	ldr	r2, [fp, #-40]	; 0xffffffd8
    caa4:	e0823003 	add	r3, r2, r3
    caa8:	e2833004 	add	r3, r3, #4
    caac:	e3a02009 	mov	r2, #9
    cab0:	e51b1020 	ldr	r1, [fp, #-32]	; 0xffffffe0
    cab4:	e1a00003 	mov	r0, r3
    cab8:	ebfffc24 	bl	bb50 <MemoryCopy>
    cabc:	e3a03000 	mov	r3, #0
    cac0:	e50b3014 	str	r3, [fp, #-20]	; 0xffffffec
    cac4:	e3a03000 	mov	r3, #0
    cac8:	e54b3015 	strb	r3, [fp, #-21]	; 0xffffffeb
    cacc:	ea000032 	b	cb9c <UsbConfigure+0x2cc>
    cad0:	e3a03001 	mov	r3, #1
    cad4:	e54b3015 	strb	r3, [fp, #-21]	; 0xffffffeb
    cad8:	ea00002f 	b	cb9c <UsbConfigure+0x2cc>
    cadc:	e55b3015 	ldrb	r3, [fp, #-21]	; 0xffffffeb
    cae0:	e3530000 	cmp	r3, #0
    cae4:	1a00002b 	bne	cb98 <UsbConfigure+0x2c8>
    cae8:	e51b3010 	ldr	r3, [fp, #-16]
    caec:	e3530008 	cmp	r3, #8
    caf0:	0a000029 	beq	cb9c <UsbConfigure+0x2cc>
    caf4:	e51b1028 	ldr	r1, [fp, #-40]	; 0xffffffd8
    caf8:	e51b2010 	ldr	r2, [fp, #-16]
    cafc:	e1a03002 	mov	r3, r2
    cb00:	e1a03183 	lsl	r3, r3, #3
    cb04:	e0833002 	add	r3, r3, r2
    cb08:	e0813003 	add	r3, r1, r3
    cb0c:	e2833048 	add	r3, r3, #72	; 0x48
    cb10:	e5d33000 	ldrb	r3, [r3]
    cb14:	e20330ff 	and	r3, r3, #255	; 0xff
    cb18:	e1a02003 	mov	r2, r3
    cb1c:	e51b3014 	ldr	r3, [fp, #-20]	; 0xffffffec
    cb20:	e1520003 	cmp	r2, r3
    cb24:	9a00001c 	bls	cb9c <UsbConfigure+0x2cc>
    cb28:	e51b300c 	ldr	r3, [fp, #-12]
    cb2c:	e50b3024 	str	r3, [fp, #-36]	; 0xffffffdc
    cb30:	e51b3014 	ldr	r3, [fp, #-20]	; 0xffffffec
    cb34:	e2832001 	add	r2, r3, #1
    cb38:	e50b2014 	str	r2, [fp, #-20]	; 0xffffffec
    cb3c:	e1a02003 	mov	r2, r3
    cb40:	e1a02182 	lsl	r2, r2, #3
    cb44:	e0632002 	rsb	r2, r3, r2
    cb48:	e51b1010 	ldr	r1, [fp, #-16]
    cb4c:	e1a03001 	mov	r3, r1
    cb50:	e1a03183 	lsl	r3, r3, #3
    cb54:	e0613003 	rsb	r3, r1, r3
    cb58:	e1a03203 	lsl	r3, r3, #4
    cb5c:	e0823003 	add	r3, r2, r3
    cb60:	e2833088 	add	r3, r3, #136	; 0x88
    cb64:	e51b2028 	ldr	r2, [fp, #-40]	; 0xffffffd8
    cb68:	e0823003 	add	r3, r2, r3
    cb6c:	e2833004 	add	r3, r3, #4
    cb70:	e3a02007 	mov	r2, #7
    cb74:	e51b1024 	ldr	r1, [fp, #-36]	; 0xffffffdc
    cb78:	e1a00003 	mov	r0, r3
    cb7c:	ebfffbf3 	bl	bb50 <MemoryCopy>
    cb80:	ea000005 	b	cb9c <UsbConfigure+0x2cc>
    cb84:	e51b300c 	ldr	r3, [fp, #-12]
    cb88:	e5d33000 	ldrb	r3, [r3]
    cb8c:	e3530000 	cmp	r3, #0
    cb90:	0a000011 	beq	cbdc <UsbConfigure+0x30c>
    cb94:	ea000000 	b	cb9c <UsbConfigure+0x2cc>
    cb98:	e1a00000 	nop			; (mov r0, r0)
    cb9c:	e51b300c 	ldr	r3, [fp, #-12]
    cba0:	e5d33000 	ldrb	r3, [r3]
    cba4:	e1a02003 	mov	r2, r3
    cba8:	e51b300c 	ldr	r3, [fp, #-12]
    cbac:	e0833002 	add	r3, r3, r2
    cbb0:	e50b300c 	str	r3, [fp, #-12]
    cbb4:	e51b200c 	ldr	r2, [fp, #-12]
    cbb8:	e51b301c 	ldr	r3, [fp, #-28]	; 0xffffffe4
    cbbc:	e0633002 	rsb	r3, r3, r2
    cbc0:	e51b2028 	ldr	r2, [fp, #-40]	; 0xffffffd8
    cbc4:	e1d223ba 	ldrh	r2, [r2, #58]	; 0x3a
    cbc8:	e1a02802 	lsl	r2, r2, #16
    cbcc:	e1a02822 	lsr	r2, r2, #16
    cbd0:	e1530002 	cmp	r3, r2
    cbd4:	3affff9a 	bcc	ca44 <UsbConfigure+0x174>
    cbd8:	ea000000 	b	cbe0 <UsbConfigure+0x310>
    cbdc:	e1a00000 	nop			; (mov r0, r0)
    cbe0:	e55b3029 	ldrb	r3, [fp, #-41]	; 0xffffffd7
    cbe4:	e1a01003 	mov	r1, r3
    cbe8:	e51b0028 	ldr	r0, [fp, #-40]	; 0xffffffd8
    cbec:	ebfffee8 	bl	c794 <UsbSetConfiguration>
    cbf0:	e1a03000 	mov	r3, r0
    cbf4:	e54b3005 	strb	r3, [fp, #-5]
    cbf8:	e15b30d5 	ldrsb	r3, [fp, #-5]
    cbfc:	e3530000 	cmp	r3, #0
    cc00:	1a000006 	bne	cc20 <UsbConfigure+0x350>
    cc04:	e51b3028 	ldr	r3, [fp, #-40]	; 0xffffffd8
    cc08:	e51b201c 	ldr	r2, [fp, #-28]	; 0xffffffe4
    cc0c:	e5832410 	str	r2, [r3, #1040]	; 0x410
    cc10:	e3a03000 	mov	r3, #0
    cc14:	ea000005 	b	cc30 <UsbConfigure+0x360>
    cc18:	e1a00000 	nop			; (mov r0, r0)
    cc1c:	ea000000 	b	cc24 <UsbConfigure+0x354>
    cc20:	e1a00000 	nop			; (mov r0, r0)
    cc24:	e51b001c 	ldr	r0, [fp, #-28]	; 0xffffffe4
    cc28:	ebfffb5f 	bl	b9ac <MemoryDeallocate>
    cc2c:	e15b30d5 	ldrsb	r3, [fp, #-5]
    cc30:	e1a00003 	mov	r0, r3
    cc34:	e24bd004 	sub	sp, fp, #4
    cc38:	e8bd4800 	pop	{fp, lr}
    cc3c:	e12fff1e 	bx	lr

0000cc40 <UsbGetDescription>:
    cc40:	e52db004 	push	{fp}		; (str fp, [sp, #-4]!)
    cc44:	e28db000 	add	fp, sp, #0
    cc48:	e24dd00c 	sub	sp, sp, #12
    cc4c:	e50b0008 	str	r0, [fp, #-8]
    cc50:	e51b3008 	ldr	r3, [fp, #-8]
    cc54:	e5d33005 	ldrb	r3, [r3, #5]
    cc58:	e3530000 	cmp	r3, #0
    cc5c:	1a000001 	bne	cc68 <UsbGetDescription+0x28>
    cc60:	e59f338c 	ldr	r3, [pc, #908]	; cff4 <UsbGetDescription+0x3b4>
    cc64:	ea0000de 	b	cfe4 <UsbGetDescription+0x3a4>
    cc68:	e51b3008 	ldr	r3, [fp, #-8]
    cc6c:	e5d33005 	ldrb	r3, [r3, #5]
    cc70:	e3530001 	cmp	r3, #1
    cc74:	1a000001 	bne	cc80 <UsbGetDescription+0x40>
    cc78:	e59f3378 	ldr	r3, [pc, #888]	; cff8 <UsbGetDescription+0x3b8>
    cc7c:	ea0000d8 	b	cfe4 <UsbGetDescription+0x3a4>
    cc80:	e59f3374 	ldr	r3, [pc, #884]	; cffc <UsbGetDescription+0x3bc>
    cc84:	e5932000 	ldr	r2, [r3]
    cc88:	e51b3008 	ldr	r3, [fp, #-8]
    cc8c:	e1520003 	cmp	r2, r3
    cc90:	1a000001 	bne	cc9c <UsbGetDescription+0x5c>
    cc94:	e59f3364 	ldr	r3, [pc, #868]	; d000 <UsbGetDescription+0x3c0>
    cc98:	ea0000d1 	b	cfe4 <UsbGetDescription+0x3a4>
    cc9c:	e51b3008 	ldr	r3, [fp, #-8]
    cca0:	e5d33028 	ldrb	r3, [r3, #40]	; 0x28
    cca4:	e20330ff 	and	r3, r3, #255	; 0xff
    cca8:	e3530009 	cmp	r3, #9
    ccac:	0a000004 	beq	ccc4 <UsbGetDescription+0x84>
    ccb0:	e35300ff 	cmp	r3, #255	; 0xff
    ccb4:	0a000024 	beq	cd4c <UsbGetDescription+0x10c>
    ccb8:	e3530000 	cmp	r3, #0
    ccbc:	0a000031 	beq	cd88 <UsbGetDescription+0x148>
    ccc0:	ea0000c6 	b	cfe0 <UsbGetDescription+0x3a0>
    ccc4:	e51b3008 	ldr	r3, [fp, #-8]
    ccc8:	e1d332b6 	ldrh	r3, [r3, #38]	; 0x26
    cccc:	e1a03803 	lsl	r3, r3, #16
    ccd0:	e1a03823 	lsr	r3, r3, #16
    ccd4:	e3530e21 	cmp	r3, #528	; 0x210
    ccd8:	1a000001 	bne	cce4 <UsbGetDescription+0xa4>
    ccdc:	e59f3320 	ldr	r3, [pc, #800]	; d004 <UsbGetDescription+0x3c4>
    cce0:	ea0000bf 	b	cfe4 <UsbGetDescription+0x3a4>
    cce4:	e51b3008 	ldr	r3, [fp, #-8]
    cce8:	e1d332b6 	ldrh	r3, [r3, #38]	; 0x26
    ccec:	e1a03803 	lsl	r3, r3, #16
    ccf0:	e1a03823 	lsr	r3, r3, #16
    ccf4:	e3530c02 	cmp	r3, #512	; 0x200
    ccf8:	1a000001 	bne	cd04 <UsbGetDescription+0xc4>
    ccfc:	e59f3304 	ldr	r3, [pc, #772]	; d008 <UsbGetDescription+0x3c8>
    cd00:	ea0000b7 	b	cfe4 <UsbGetDescription+0x3a4>
    cd04:	e51b3008 	ldr	r3, [fp, #-8]
    cd08:	e1d332b6 	ldrh	r3, [r3, #38]	; 0x26
    cd0c:	e1a03803 	lsl	r3, r3, #16
    cd10:	e1a03823 	lsr	r3, r3, #16
    cd14:	e3530e11 	cmp	r3, #272	; 0x110
    cd18:	1a000001 	bne	cd24 <UsbGetDescription+0xe4>
    cd1c:	e59f32e8 	ldr	r3, [pc, #744]	; d00c <UsbGetDescription+0x3cc>
    cd20:	ea0000af 	b	cfe4 <UsbGetDescription+0x3a4>
    cd24:	e51b3008 	ldr	r3, [fp, #-8]
    cd28:	e1d332b6 	ldrh	r3, [r3, #38]	; 0x26
    cd2c:	e1a03803 	lsl	r3, r3, #16
    cd30:	e1a03823 	lsr	r3, r3, #16
    cd34:	e3530c01 	cmp	r3, #256	; 0x100
    cd38:	1a000001 	bne	cd44 <UsbGetDescription+0x104>
    cd3c:	e59f32cc 	ldr	r3, [pc, #716]	; d010 <UsbGetDescription+0x3d0>
    cd40:	ea0000a7 	b	cfe4 <UsbGetDescription+0x3a4>
    cd44:	e59f32c8 	ldr	r3, [pc, #712]	; d014 <UsbGetDescription+0x3d4>
    cd48:	ea0000a5 	b	cfe4 <UsbGetDescription+0x3a4>
    cd4c:	e51b3008 	ldr	r3, [fp, #-8]
    cd50:	e1d332bc 	ldrh	r3, [r3, #44]	; 0x2c
    cd54:	e1a03803 	lsl	r3, r3, #16
    cd58:	e1a03823 	lsr	r3, r3, #16
    cd5c:	e59f22b4 	ldr	r2, [pc, #692]	; d018 <UsbGetDescription+0x3d8>
    cd60:	e1530002 	cmp	r3, r2
    cd64:	1a000007 	bne	cd88 <UsbGetDescription+0x148>
    cd68:	e51b3008 	ldr	r3, [fp, #-8]
    cd6c:	e1d332be 	ldrh	r3, [r3, #46]	; 0x2e
    cd70:	e1a03803 	lsl	r3, r3, #16
    cd74:	e1a03823 	lsr	r3, r3, #16
    cd78:	e3530b3b 	cmp	r3, #60416	; 0xec00
    cd7c:	1a000001 	bne	cd88 <UsbGetDescription+0x148>
    cd80:	e59f3294 	ldr	r3, [pc, #660]	; d01c <UsbGetDescription+0x3dc>
    cd84:	ea000096 	b	cfe4 <UsbGetDescription+0x3a4>
    cd88:	e51b3008 	ldr	r3, [fp, #-8]
    cd8c:	e5d33005 	ldrb	r3, [r3, #5]
    cd90:	e3530004 	cmp	r3, #4
    cd94:	1a000088 	bne	cfbc <UsbGetDescription+0x37c>
    cd98:	e51b3008 	ldr	r3, [fp, #-8]
    cd9c:	e5d33049 	ldrb	r3, [r3, #73]	; 0x49
    cda0:	e20330ff 	and	r3, r3, #255	; 0xff
    cda4:	e353000a 	cmp	r3, #10
    cda8:	0a00006d 	beq	cf64 <UsbGetDescription+0x324>
    cdac:	e353000a 	cmp	r3, #10
    cdb0:	ca000013 	bgt	ce04 <UsbGetDescription+0x1c4>
    cdb4:	e3530005 	cmp	r3, #5
    cdb8:	0a00003f 	beq	cebc <UsbGetDescription+0x27c>
    cdbc:	e3530005 	cmp	r3, #5
    cdc0:	ca000006 	bgt	cde0 <UsbGetDescription+0x1a0>
    cdc4:	e3530002 	cmp	r3, #2
    cdc8:	0a00002b 	beq	ce7c <UsbGetDescription+0x23c>
    cdcc:	e3530003 	cmp	r3, #3
    cdd0:	0a00002b 	beq	ce84 <UsbGetDescription+0x244>
    cdd4:	e3530001 	cmp	r3, #1
    cdd8:	0a000025 	beq	ce74 <UsbGetDescription+0x234>
    cddc:	ea000074 	b	cfb4 <UsbGetDescription+0x374>
    cde0:	e3530007 	cmp	r3, #7
    cde4:	0a000038 	beq	cecc <UsbGetDescription+0x28c>
    cde8:	e3530007 	cmp	r3, #7
    cdec:	ba000034 	blt	cec4 <UsbGetDescription+0x284>
    cdf0:	e3530008 	cmp	r3, #8
    cdf4:	0a000036 	beq	ced4 <UsbGetDescription+0x294>
    cdf8:	e3530009 	cmp	r3, #9
    cdfc:	0a000036 	beq	cedc <UsbGetDescription+0x29c>
    ce00:	ea00006b 	b	cfb4 <UsbGetDescription+0x374>
    ce04:	e3530010 	cmp	r3, #16
    ce08:	0a00005f 	beq	cf8c <UsbGetDescription+0x34c>
    ce0c:	e3530010 	cmp	r3, #16
    ce10:	ca00000b 	bgt	ce44 <UsbGetDescription+0x204>
    ce14:	e353000d 	cmp	r3, #13
    ce18:	0a000055 	beq	cf74 <UsbGetDescription+0x334>
    ce1c:	e353000d 	cmp	r3, #13
    ce20:	ca000002 	bgt	ce30 <UsbGetDescription+0x1f0>
    ce24:	e353000b 	cmp	r3, #11
    ce28:	0a00004f 	beq	cf6c <UsbGetDescription+0x32c>
    ce2c:	ea000060 	b	cfb4 <UsbGetDescription+0x374>
    ce30:	e353000e 	cmp	r3, #14
    ce34:	0a000050 	beq	cf7c <UsbGetDescription+0x33c>
    ce38:	e353000f 	cmp	r3, #15
    ce3c:	0a000050 	beq	cf84 <UsbGetDescription+0x344>
    ce40:	ea00005b 	b	cfb4 <UsbGetDescription+0x374>
    ce44:	e35300e0 	cmp	r3, #224	; 0xe0
    ce48:	0a000053 	beq	cf9c <UsbGetDescription+0x35c>
    ce4c:	e35300e0 	cmp	r3, #224	; 0xe0
    ce50:	ca000002 	bgt	ce60 <UsbGetDescription+0x220>
    ce54:	e35300dc 	cmp	r3, #220	; 0xdc
    ce58:	0a00004d 	beq	cf94 <UsbGetDescription+0x354>
    ce5c:	ea000054 	b	cfb4 <UsbGetDescription+0x374>
    ce60:	e35300ef 	cmp	r3, #239	; 0xef
    ce64:	0a00004e 	beq	cfa4 <UsbGetDescription+0x364>
    ce68:	e35300ff 	cmp	r3, #255	; 0xff
    ce6c:	0a00004e 	beq	cfac <UsbGetDescription+0x36c>
    ce70:	ea00004f 	b	cfb4 <UsbGetDescription+0x374>
    ce74:	e59f31a4 	ldr	r3, [pc, #420]	; d020 <UsbGetDescription+0x3e0>
    ce78:	ea000059 	b	cfe4 <UsbGetDescription+0x3a4>
    ce7c:	e59f31a0 	ldr	r3, [pc, #416]	; d024 <UsbGetDescription+0x3e4>
    ce80:	ea000057 	b	cfe4 <UsbGetDescription+0x3a4>
    ce84:	e51b3008 	ldr	r3, [fp, #-8]
    ce88:	e5d3304b 	ldrb	r3, [r3, #75]	; 0x4b
    ce8c:	e20330ff 	and	r3, r3, #255	; 0xff
    ce90:	e3530001 	cmp	r3, #1
    ce94:	0a000002 	beq	cea4 <UsbGetDescription+0x264>
    ce98:	e3530002 	cmp	r3, #2
    ce9c:	0a000002 	beq	ceac <UsbGetDescription+0x26c>
    cea0:	ea000003 	b	ceb4 <UsbGetDescription+0x274>
    cea4:	e59f317c 	ldr	r3, [pc, #380]	; d028 <UsbGetDescription+0x3e8>
    cea8:	ea00004d 	b	cfe4 <UsbGetDescription+0x3a4>
    ceac:	e59f3178 	ldr	r3, [pc, #376]	; d02c <UsbGetDescription+0x3ec>
    ceb0:	ea00004b 	b	cfe4 <UsbGetDescription+0x3a4>
    ceb4:	e59f3174 	ldr	r3, [pc, #372]	; d030 <UsbGetDescription+0x3f0>
    ceb8:	ea000049 	b	cfe4 <UsbGetDescription+0x3a4>
    cebc:	e59f3170 	ldr	r3, [pc, #368]	; d034 <UsbGetDescription+0x3f4>
    cec0:	ea000047 	b	cfe4 <UsbGetDescription+0x3a4>
    cec4:	e59f316c 	ldr	r3, [pc, #364]	; d038 <UsbGetDescription+0x3f8>
    cec8:	ea000045 	b	cfe4 <UsbGetDescription+0x3a4>
    cecc:	e59f3168 	ldr	r3, [pc, #360]	; d03c <UsbGetDescription+0x3fc>
    ced0:	ea000043 	b	cfe4 <UsbGetDescription+0x3a4>
    ced4:	e59f3164 	ldr	r3, [pc, #356]	; d040 <UsbGetDescription+0x400>
    ced8:	ea000041 	b	cfe4 <UsbGetDescription+0x3a4>
    cedc:	e51b3008 	ldr	r3, [fp, #-8]
    cee0:	e1d332b6 	ldrh	r3, [r3, #38]	; 0x26
    cee4:	e1a03803 	lsl	r3, r3, #16
    cee8:	e1a03823 	lsr	r3, r3, #16
    ceec:	e3530e21 	cmp	r3, #528	; 0x210
    cef0:	1a000001 	bne	cefc <UsbGetDescription+0x2bc>
    cef4:	e59f3108 	ldr	r3, [pc, #264]	; d004 <UsbGetDescription+0x3c4>
    cef8:	ea000039 	b	cfe4 <UsbGetDescription+0x3a4>
    cefc:	e51b3008 	ldr	r3, [fp, #-8]
    cf00:	e1d332b6 	ldrh	r3, [r3, #38]	; 0x26
    cf04:	e1a03803 	lsl	r3, r3, #16
    cf08:	e1a03823 	lsr	r3, r3, #16
    cf0c:	e3530c02 	cmp	r3, #512	; 0x200
    cf10:	1a000001 	bne	cf1c <UsbGetDescription+0x2dc>
    cf14:	e59f30ec 	ldr	r3, [pc, #236]	; d008 <UsbGetDescription+0x3c8>
    cf18:	ea000031 	b	cfe4 <UsbGetDescription+0x3a4>
    cf1c:	e51b3008 	ldr	r3, [fp, #-8]
    cf20:	e1d332b6 	ldrh	r3, [r3, #38]	; 0x26
    cf24:	e1a03803 	lsl	r3, r3, #16
    cf28:	e1a03823 	lsr	r3, r3, #16
    cf2c:	e3530e11 	cmp	r3, #272	; 0x110
    cf30:	1a000001 	bne	cf3c <UsbGetDescription+0x2fc>
    cf34:	e59f30d0 	ldr	r3, [pc, #208]	; d00c <UsbGetDescription+0x3cc>
    cf38:	ea000029 	b	cfe4 <UsbGetDescription+0x3a4>
    cf3c:	e51b3008 	ldr	r3, [fp, #-8]
    cf40:	e1d332b6 	ldrh	r3, [r3, #38]	; 0x26
    cf44:	e1a03803 	lsl	r3, r3, #16
    cf48:	e1a03823 	lsr	r3, r3, #16
    cf4c:	e3530c01 	cmp	r3, #256	; 0x100
    cf50:	1a000001 	bne	cf5c <UsbGetDescription+0x31c>
    cf54:	e59f30b4 	ldr	r3, [pc, #180]	; d010 <UsbGetDescription+0x3d0>
    cf58:	ea000021 	b	cfe4 <UsbGetDescription+0x3a4>
    cf5c:	e59f30b0 	ldr	r3, [pc, #176]	; d014 <UsbGetDescription+0x3d4>
    cf60:	ea00001f 	b	cfe4 <UsbGetDescription+0x3a4>
    cf64:	e59f30d8 	ldr	r3, [pc, #216]	; d044 <UsbGetDescription+0x404>
    cf68:	ea00001d 	b	cfe4 <UsbGetDescription+0x3a4>
    cf6c:	e59f30d4 	ldr	r3, [pc, #212]	; d048 <UsbGetDescription+0x408>
    cf70:	ea00001b 	b	cfe4 <UsbGetDescription+0x3a4>
    cf74:	e59f30d0 	ldr	r3, [pc, #208]	; d04c <UsbGetDescription+0x40c>
    cf78:	ea000019 	b	cfe4 <UsbGetDescription+0x3a4>
    cf7c:	e59f30cc 	ldr	r3, [pc, #204]	; d050 <UsbGetDescription+0x410>
    cf80:	ea000017 	b	cfe4 <UsbGetDescription+0x3a4>
    cf84:	e59f30c8 	ldr	r3, [pc, #200]	; d054 <UsbGetDescription+0x414>
    cf88:	ea000015 	b	cfe4 <UsbGetDescription+0x3a4>
    cf8c:	e59f30c4 	ldr	r3, [pc, #196]	; d058 <UsbGetDescription+0x418>
    cf90:	ea000013 	b	cfe4 <UsbGetDescription+0x3a4>
    cf94:	e59f30c0 	ldr	r3, [pc, #192]	; d05c <UsbGetDescription+0x41c>
    cf98:	ea000011 	b	cfe4 <UsbGetDescription+0x3a4>
    cf9c:	e59f30bc 	ldr	r3, [pc, #188]	; d060 <UsbGetDescription+0x420>
    cfa0:	ea00000f 	b	cfe4 <UsbGetDescription+0x3a4>
    cfa4:	e59f30b8 	ldr	r3, [pc, #184]	; d064 <UsbGetDescription+0x424>
    cfa8:	ea00000d 	b	cfe4 <UsbGetDescription+0x3a4>
    cfac:	e59f30b4 	ldr	r3, [pc, #180]	; d068 <UsbGetDescription+0x428>
    cfb0:	ea00000b 	b	cfe4 <UsbGetDescription+0x3a4>
    cfb4:	e59f30b0 	ldr	r3, [pc, #176]	; d06c <UsbGetDescription+0x42c>
    cfb8:	ea000009 	b	cfe4 <UsbGetDescription+0x3a4>
    cfbc:	e51b3008 	ldr	r3, [fp, #-8]
    cfc0:	e5d33028 	ldrb	r3, [r3, #40]	; 0x28
    cfc4:	e20330ff 	and	r3, r3, #255	; 0xff
    cfc8:	e35300ff 	cmp	r3, #255	; 0xff
    cfcc:	1a000001 	bne	cfd8 <UsbGetDescription+0x398>
    cfd0:	e59f3090 	ldr	r3, [pc, #144]	; d068 <UsbGetDescription+0x428>
    cfd4:	ea000002 	b	cfe4 <UsbGetDescription+0x3a4>
    cfd8:	e59f3090 	ldr	r3, [pc, #144]	; d070 <UsbGetDescription+0x430>
    cfdc:	ea000000 	b	cfe4 <UsbGetDescription+0x3a4>
    cfe0:	e59f3084 	ldr	r3, [pc, #132]	; d06c <UsbGetDescription+0x42c>
    cfe4:	e1a00003 	mov	r0, r3
    cfe8:	e24bd000 	sub	sp, fp, #0
    cfec:	e49db004 	pop	{fp}		; (ldr fp, [sp], #4)
    cff0:	e12fff1e 	bx	lr
    cff4:	00018ac8 	.word	0x00018ac8
    cff8:	00018ae0 	.word	0x00018ae0
    cffc:	000297d8 	.word	0x000297d8
    d000:	00018afc 	.word	0x00018afc
    d004:	00018b0c 	.word	0x00018b0c
    d008:	00018b1c 	.word	0x00018b1c
    d00c:	00018b2c 	.word	0x00018b2c
    d010:	00018b3c 	.word	0x00018b3c
    d014:	00018b4c 	.word	0x00018b4c
    d018:	00000424 	.word	0x00000424
    d01c:	00018b58 	.word	0x00018b58
    d020:	00018b68 	.word	0x00018b68
    d024:	00018b7c 	.word	0x00018b7c
    d028:	00018b8c 	.word	0x00018b8c
    d02c:	00018b9c 	.word	0x00018b9c
    d030:	00018ba8 	.word	0x00018ba8
    d034:	00018bb4 	.word	0x00018bb4
    d038:	00018bcc 	.word	0x00018bcc
    d03c:	00018be0 	.word	0x00018be0
    d040:	00018bf0 	.word	0x00018bf0
    d044:	00018c0c 	.word	0x00018c0c
    d048:	00018c24 	.word	0x00018c24
    d04c:	00018c34 	.word	0x00018c34
    d050:	00018c50 	.word	0x00018c50
    d054:	00018c64 	.word	0x00018c64
    d058:	00018c7c 	.word	0x00018c7c
    d05c:	00018c8c 	.word	0x00018c8c
    d060:	00018ca4 	.word	0x00018ca4
    d064:	00018cc0 	.word	0x00018cc0
    d068:	00018cdc 	.word	0x00018cdc
    d06c:	00018cf0 	.word	0x00018cf0
    d070:	00018d00 	.word	0x00018d00

0000d074 <UsbAttachDevice>:
    d074:	e92d4800 	push	{fp, lr}
    d078:	e28db004 	add	fp, sp, #4
    d07c:	e24dd010 	sub	sp, sp, #16
    d080:	e50b0010 	str	r0, [fp, #-16]
    d084:	e51b3010 	ldr	r3, [fp, #-16]
    d088:	e5933000 	ldr	r3, [r3]
    d08c:	e54b3009 	strb	r3, [fp, #-9]
    d090:	e51b3010 	ldr	r3, [fp, #-16]
    d094:	e3a02000 	mov	r2, #0
    d098:	e5832000 	str	r2, [r3]
    d09c:	e51b0010 	ldr	r0, [fp, #-16]
    d0a0:	ebfffcef 	bl	c464 <UsbReadDeviceDescriptor>
    d0a4:	e1a03000 	mov	r3, r0
    d0a8:	e54b300a 	strb	r3, [fp, #-10]
    d0ac:	e15b30da 	ldrsb	r3, [fp, #-10]
    d0b0:	e3530000 	cmp	r3, #0
    d0b4:	0a000004 	beq	d0cc <UsbAttachDevice+0x58>
    d0b8:	e55b2009 	ldrb	r2, [fp, #-9]
    d0bc:	e51b3010 	ldr	r3, [fp, #-16]
    d0c0:	e5832000 	str	r2, [r3]
    d0c4:	e15b30da 	ldrsb	r3, [fp, #-10]
    d0c8:	ea0000c8 	b	d3f0 <UsbAttachDevice+0x37c>
    d0cc:	e51b3010 	ldr	r3, [fp, #-16]
    d0d0:	e3a02002 	mov	r2, #2
    d0d4:	e5c32005 	strb	r2, [r3, #5]
    d0d8:	e51b3010 	ldr	r3, [fp, #-16]
    d0dc:	e593340c 	ldr	r3, [r3, #1036]	; 0x40c
    d0e0:	e3530000 	cmp	r3, #0
    d0e4:	0a000017 	beq	d148 <UsbAttachDevice+0xd4>
    d0e8:	e51b3010 	ldr	r3, [fp, #-16]
    d0ec:	e593340c 	ldr	r3, [r3, #1036]	; 0x40c
    d0f0:	e593301c 	ldr	r3, [r3, #28]
    d0f4:	e3530000 	cmp	r3, #0
    d0f8:	0a000012 	beq	d148 <UsbAttachDevice+0xd4>
    d0fc:	e51b3010 	ldr	r3, [fp, #-16]
    d100:	e593340c 	ldr	r3, [r3, #1036]	; 0x40c
    d104:	e593301c 	ldr	r3, [r3, #28]
    d108:	e51b2010 	ldr	r2, [fp, #-16]
    d10c:	e592240c 	ldr	r2, [r2, #1036]	; 0x40c
    d110:	e51b1010 	ldr	r1, [fp, #-16]
    d114:	e1a00002 	mov	r0, r2
    d118:	e1a0e00f 	mov	lr, pc
    d11c:	e12fff13 	bx	r3
    d120:	e1a03000 	mov	r3, r0
    d124:	e54b300a 	strb	r3, [fp, #-10]
    d128:	e15b30da 	ldrsb	r3, [fp, #-10]
    d12c:	e3530000 	cmp	r3, #0
    d130:	0a000004 	beq	d148 <UsbAttachDevice+0xd4>
    d134:	e55b2009 	ldrb	r2, [fp, #-9]
    d138:	e51b3010 	ldr	r3, [fp, #-16]
    d13c:	e5832000 	str	r2, [r3]
    d140:	e15b30da 	ldrsb	r3, [fp, #-10]
    d144:	ea0000a9 	b	d3f0 <UsbAttachDevice+0x37c>
    d148:	e55b3009 	ldrb	r3, [fp, #-9]
    d14c:	e1a01003 	mov	r1, r3
    d150:	e51b0010 	ldr	r0, [fp, #-16]
    d154:	ebfffd40 	bl	c65c <UsbSetAddress>
    d158:	e1a03000 	mov	r3, r0
    d15c:	e54b300a 	strb	r3, [fp, #-10]
    d160:	e15b30da 	ldrsb	r3, [fp, #-10]
    d164:	e3530000 	cmp	r3, #0
    d168:	0a000004 	beq	d180 <UsbAttachDevice+0x10c>
    d16c:	e55b2009 	ldrb	r2, [fp, #-9]
    d170:	e51b3010 	ldr	r3, [fp, #-16]
    d174:	e5832000 	str	r2, [r3]
    d178:	e15b30da 	ldrsb	r3, [fp, #-10]
    d17c:	ea00009b 	b	d3f0 <UsbAttachDevice+0x37c>
    d180:	e55b2009 	ldrb	r2, [fp, #-9]
    d184:	e51b3010 	ldr	r3, [fp, #-16]
    d188:	e5832000 	str	r2, [r3]
    d18c:	e51b0010 	ldr	r0, [fp, #-16]
    d190:	ebfffcb3 	bl	c464 <UsbReadDeviceDescriptor>
    d194:	e1a03000 	mov	r3, r0
    d198:	e54b300a 	strb	r3, [fp, #-10]
    d19c:	e15b30da 	ldrsb	r3, [fp, #-10]
    d1a0:	e3530000 	cmp	r3, #0
    d1a4:	0a000001 	beq	d1b0 <UsbAttachDevice+0x13c>
    d1a8:	e15b30da 	ldrsb	r3, [fp, #-10]
    d1ac:	ea00008f 	b	d3f0 <UsbAttachDevice+0x37c>
    d1b0:	e3a03000 	mov	r3, #0
    d1b4:	e50b3008 	str	r3, [fp, #-8]
    d1b8:	e51b3010 	ldr	r3, [fp, #-16]
    d1bc:	e5d33033 	ldrb	r3, [r3, #51]	; 0x33
    d1c0:	e20330ff 	and	r3, r3, #255	; 0xff
    d1c4:	e3530000 	cmp	r3, #0
    d1c8:	0a000011 	beq	d214 <UsbAttachDevice+0x1a0>
    d1cc:	e51b3008 	ldr	r3, [fp, #-8]
    d1d0:	e3530000 	cmp	r3, #0
    d1d4:	1a000002 	bne	d1e4 <UsbAttachDevice+0x170>
    d1d8:	e3a00c01 	mov	r0, #256	; 0x100
    d1dc:	ebfff788 	bl	b004 <MemoryAllocate>
    d1e0:	e50b0008 	str	r0, [fp, #-8]
    d1e4:	e51b3008 	ldr	r3, [fp, #-8]
    d1e8:	e3530000 	cmp	r3, #0
    d1ec:	0a000008 	beq	d214 <UsbAttachDevice+0x1a0>
    d1f0:	e51b3010 	ldr	r3, [fp, #-16]
    d1f4:	e5d33033 	ldrb	r3, [r3, #51]	; 0x33
    d1f8:	e20310ff 	and	r1, r3, #255	; 0xff
    d1fc:	e3a03c01 	mov	r3, #256	; 0x100
    d200:	e51b2008 	ldr	r2, [fp, #-8]
    d204:	e51b0010 	ldr	r0, [fp, #-16]
    d208:	ebfffc15 	bl	c264 <UsbReadString>
    d20c:	e1a03000 	mov	r3, r0
    d210:	e54b300a 	strb	r3, [fp, #-10]
    d214:	e51b3010 	ldr	r3, [fp, #-16]
    d218:	e5d33032 	ldrb	r3, [r3, #50]	; 0x32
    d21c:	e20330ff 	and	r3, r3, #255	; 0xff
    d220:	e3530000 	cmp	r3, #0
    d224:	0a000011 	beq	d270 <UsbAttachDevice+0x1fc>
    d228:	e51b3008 	ldr	r3, [fp, #-8]
    d22c:	e3530000 	cmp	r3, #0
    d230:	1a000002 	bne	d240 <UsbAttachDevice+0x1cc>
    d234:	e3a00c01 	mov	r0, #256	; 0x100
    d238:	ebfff771 	bl	b004 <MemoryAllocate>
    d23c:	e50b0008 	str	r0, [fp, #-8]
    d240:	e51b3008 	ldr	r3, [fp, #-8]
    d244:	e3530000 	cmp	r3, #0
    d248:	0a000008 	beq	d270 <UsbAttachDevice+0x1fc>
    d24c:	e51b3010 	ldr	r3, [fp, #-16]
    d250:	e5d33032 	ldrb	r3, [r3, #50]	; 0x32
    d254:	e20310ff 	and	r1, r3, #255	; 0xff
    d258:	e3a03c01 	mov	r3, #256	; 0x100
    d25c:	e51b2008 	ldr	r2, [fp, #-8]
    d260:	e51b0010 	ldr	r0, [fp, #-16]
    d264:	ebfffbfe 	bl	c264 <UsbReadString>
    d268:	e1a03000 	mov	r3, r0
    d26c:	e54b300a 	strb	r3, [fp, #-10]
    d270:	e51b3010 	ldr	r3, [fp, #-16]
    d274:	e5d33034 	ldrb	r3, [r3, #52]	; 0x34
    d278:	e20330ff 	and	r3, r3, #255	; 0xff
    d27c:	e3530000 	cmp	r3, #0
    d280:	0a000011 	beq	d2cc <UsbAttachDevice+0x258>
    d284:	e51b3008 	ldr	r3, [fp, #-8]
    d288:	e3530000 	cmp	r3, #0
    d28c:	1a000002 	bne	d29c <UsbAttachDevice+0x228>
    d290:	e3a00c01 	mov	r0, #256	; 0x100
    d294:	ebfff75a 	bl	b004 <MemoryAllocate>
    d298:	e50b0008 	str	r0, [fp, #-8]
    d29c:	e51b3008 	ldr	r3, [fp, #-8]
    d2a0:	e3530000 	cmp	r3, #0
    d2a4:	0a000008 	beq	d2cc <UsbAttachDevice+0x258>
    d2a8:	e51b3010 	ldr	r3, [fp, #-16]
    d2ac:	e5d33034 	ldrb	r3, [r3, #52]	; 0x34
    d2b0:	e20310ff 	and	r1, r3, #255	; 0xff
    d2b4:	e3a03c01 	mov	r3, #256	; 0x100
    d2b8:	e51b2008 	ldr	r2, [fp, #-8]
    d2bc:	e51b0010 	ldr	r0, [fp, #-16]
    d2c0:	ebfffbe7 	bl	c264 <UsbReadString>
    d2c4:	e1a03000 	mov	r3, r0
    d2c8:	e54b300a 	strb	r3, [fp, #-10]
    d2cc:	e51b3008 	ldr	r3, [fp, #-8]
    d2d0:	e3530000 	cmp	r3, #0
    d2d4:	0a000003 	beq	d2e8 <UsbAttachDevice+0x274>
    d2d8:	e51b0008 	ldr	r0, [fp, #-8]
    d2dc:	ebfff9b2 	bl	b9ac <MemoryDeallocate>
    d2e0:	e3a03000 	mov	r3, #0
    d2e4:	e50b3008 	str	r3, [fp, #-8]
    d2e8:	e3a01000 	mov	r1, #0
    d2ec:	e51b0010 	ldr	r0, [fp, #-16]
    d2f0:	ebfffd76 	bl	c8d0 <UsbConfigure>
    d2f4:	e1a03000 	mov	r3, r0
    d2f8:	e54b300a 	strb	r3, [fp, #-10]
    d2fc:	e15b30da 	ldrsb	r3, [fp, #-10]
    d300:	e3530000 	cmp	r3, #0
    d304:	0a000001 	beq	d310 <UsbAttachDevice+0x29c>
    d308:	e3a03000 	mov	r3, #0
    d30c:	ea000037 	b	d3f0 <UsbAttachDevice+0x37c>
    d310:	e51b3010 	ldr	r3, [fp, #-16]
    d314:	e5d3303e 	ldrb	r3, [r3, #62]	; 0x3e
    d318:	e20330ff 	and	r3, r3, #255	; 0xff
    d31c:	e3530000 	cmp	r3, #0
    d320:	0a000011 	beq	d36c <UsbAttachDevice+0x2f8>
    d324:	e51b3008 	ldr	r3, [fp, #-8]
    d328:	e3530000 	cmp	r3, #0
    d32c:	1a000002 	bne	d33c <UsbAttachDevice+0x2c8>
    d330:	e3a00c01 	mov	r0, #256	; 0x100
    d334:	ebfff732 	bl	b004 <MemoryAllocate>
    d338:	e50b0008 	str	r0, [fp, #-8]
    d33c:	e51b3008 	ldr	r3, [fp, #-8]
    d340:	e3530000 	cmp	r3, #0
    d344:	0a000008 	beq	d36c <UsbAttachDevice+0x2f8>
    d348:	e51b3010 	ldr	r3, [fp, #-16]
    d34c:	e5d3303e 	ldrb	r3, [r3, #62]	; 0x3e
    d350:	e20310ff 	and	r1, r3, #255	; 0xff
    d354:	e3a03c01 	mov	r3, #256	; 0x100
    d358:	e51b2008 	ldr	r2, [fp, #-8]
    d35c:	e51b0010 	ldr	r0, [fp, #-16]
    d360:	ebfffbbf 	bl	c264 <UsbReadString>
    d364:	e1a03000 	mov	r3, r0
    d368:	e54b300a 	strb	r3, [fp, #-10]
    d36c:	e51b3008 	ldr	r3, [fp, #-8]
    d370:	e3530000 	cmp	r3, #0
    d374:	0a000003 	beq	d388 <UsbAttachDevice+0x314>
    d378:	e51b0008 	ldr	r0, [fp, #-8]
    d37c:	ebfff98a 	bl	b9ac <MemoryDeallocate>
    d380:	e3a03000 	mov	r3, #0
    d384:	e50b3008 	str	r3, [fp, #-8]
    d388:	e51b3010 	ldr	r3, [fp, #-16]
    d38c:	e5d33049 	ldrb	r3, [r3, #73]	; 0x49
    d390:	e20330ff 	and	r3, r3, #255	; 0xff
    d394:	e353000f 	cmp	r3, #15
    d398:	8a000013 	bhi	d3ec <UsbAttachDevice+0x378>
    d39c:	e51b3010 	ldr	r3, [fp, #-16]
    d3a0:	e5d33049 	ldrb	r3, [r3, #73]	; 0x49
    d3a4:	e20330ff 	and	r3, r3, #255	; 0xff
    d3a8:	e1a02003 	mov	r2, r3
    d3ac:	e59f304c 	ldr	r3, [pc, #76]	; d400 <UsbAttachDevice+0x38c>
    d3b0:	e7933102 	ldr	r3, [r3, r2, lsl #2]
    d3b4:	e3530000 	cmp	r3, #0
    d3b8:	0a00000b 	beq	d3ec <UsbAttachDevice+0x378>
    d3bc:	e51b3010 	ldr	r3, [fp, #-16]
    d3c0:	e5d33049 	ldrb	r3, [r3, #73]	; 0x49
    d3c4:	e20330ff 	and	r3, r3, #255	; 0xff
    d3c8:	e1a02003 	mov	r2, r3
    d3cc:	e59f302c 	ldr	r3, [pc, #44]	; d400 <UsbAttachDevice+0x38c>
    d3d0:	e7933102 	ldr	r3, [r3, r2, lsl #2]
    d3d4:	e3a01000 	mov	r1, #0
    d3d8:	e51b0010 	ldr	r0, [fp, #-16]
    d3dc:	e1a0e00f 	mov	lr, pc
    d3e0:	e12fff13 	bx	r3
    d3e4:	e1a03000 	mov	r3, r0
    d3e8:	e54b300a 	strb	r3, [fp, #-10]
    d3ec:	e3a03000 	mov	r3, #0
    d3f0:	e1a00003 	mov	r0, r3
    d3f4:	e24bd004 	sub	sp, fp, #4
    d3f8:	e8bd4800 	pop	{fp, lr}
    d3fc:	e12fff1e 	bx	lr
    d400:	00029798 	.word	0x00029798

0000d404 <UsbAllocateDevice>:
    d404:	e92d4800 	push	{fp, lr}
    d408:	e28db004 	add	fp, sp, #4
    d40c:	e24dd010 	sub	sp, sp, #16
    d410:	e50b0010 	str	r0, [fp, #-16]
    d414:	e59f016c 	ldr	r0, [pc, #364]	; d588 <UsbAllocateDevice+0x184>
    d418:	ebfff6f9 	bl	b004 <MemoryAllocate>
    d41c:	e1a02000 	mov	r2, r0
    d420:	e51b3010 	ldr	r3, [fp, #-16]
    d424:	e5832000 	str	r2, [r3]
    d428:	e51b3010 	ldr	r3, [fp, #-16]
    d42c:	e5933000 	ldr	r3, [r3]
    d430:	e3530000 	cmp	r3, #0
    d434:	1a000001 	bne	d440 <UsbAllocateDevice+0x3c>
    d438:	e3e03006 	mvn	r3, #6
    d43c:	ea00004d 	b	d578 <UsbAllocateDevice+0x174>
    d440:	e3a03000 	mov	r3, #0
    d444:	e50b3008 	str	r3, [fp, #-8]
    d448:	ea000012 	b	d498 <UsbAllocateDevice+0x94>
    d44c:	e59f2138 	ldr	r2, [pc, #312]	; d58c <UsbAllocateDevice+0x188>
    d450:	e51b3008 	ldr	r3, [fp, #-8]
    d454:	e7923103 	ldr	r3, [r2, r3, lsl #2]
    d458:	e3530000 	cmp	r3, #0
    d45c:	1a00000a 	bne	d48c <UsbAllocateDevice+0x88>
    d460:	e51b3010 	ldr	r3, [fp, #-16]
    d464:	e5932000 	ldr	r2, [r3]
    d468:	e59f111c 	ldr	r1, [pc, #284]	; d58c <UsbAllocateDevice+0x188>
    d46c:	e51b3008 	ldr	r3, [fp, #-8]
    d470:	e7812103 	str	r2, [r1, r3, lsl #2]
    d474:	e51b3010 	ldr	r3, [fp, #-16]
    d478:	e5933000 	ldr	r3, [r3]
    d47c:	e51b2008 	ldr	r2, [fp, #-8]
    d480:	e2822001 	add	r2, r2, #1
    d484:	e5832000 	str	r2, [r3]
    d488:	ea000005 	b	d4a4 <UsbAllocateDevice+0xa0>
    d48c:	e51b3008 	ldr	r3, [fp, #-8]
    d490:	e2833001 	add	r3, r3, #1
    d494:	e50b3008 	str	r3, [fp, #-8]
    d498:	e51b3008 	ldr	r3, [fp, #-8]
    d49c:	e353001f 	cmp	r3, #31
    d4a0:	9affffe9 	bls	d44c <UsbAllocateDevice+0x48>
    d4a4:	e51b3010 	ldr	r3, [fp, #-16]
    d4a8:	e5933000 	ldr	r3, [r3]
    d4ac:	e3a02000 	mov	r2, #0
    d4b0:	e5c32005 	strb	r2, [r3, #5]
    d4b4:	e51b3010 	ldr	r3, [fp, #-16]
    d4b8:	e5933000 	ldr	r3, [r3]
    d4bc:	e3a02000 	mov	r2, #0
    d4c0:	e5832008 	str	r2, [r3, #8]
    d4c4:	e51b3010 	ldr	r3, [fp, #-16]
    d4c8:	e5933000 	ldr	r3, [r3]
    d4cc:	e3a02000 	mov	r2, #0
    d4d0:	e5c32007 	strb	r2, [r3, #7]
    d4d4:	e51b3010 	ldr	r3, [fp, #-16]
    d4d8:	e5933000 	ldr	r3, [r3]
    d4dc:	e3a02000 	mov	r2, #0
    d4e0:	e583240c 	str	r2, [r3, #1036]	; 0x40c
    d4e4:	e51b3010 	ldr	r3, [fp, #-16]
    d4e8:	e5933000 	ldr	r3, [r3]
    d4ec:	e3a02000 	mov	r2, #0
    d4f0:	e5832414 	str	r2, [r3, #1044]	; 0x414
    d4f4:	e51b3010 	ldr	r3, [fp, #-16]
    d4f8:	e5933000 	ldr	r3, [r3]
    d4fc:	e3a02000 	mov	r2, #0
    d500:	e5832410 	str	r2, [r3, #1040]	; 0x410
    d504:	e51b3010 	ldr	r3, [fp, #-16]
    d508:	e5933000 	ldr	r3, [r3]
    d50c:	e3e02000 	mvn	r2, #0
    d510:	e5c32006 	strb	r2, [r3, #6]
    d514:	e51b3010 	ldr	r3, [fp, #-16]
    d518:	e5933000 	ldr	r3, [r3]
    d51c:	e3a02000 	mov	r2, #0
    d520:	e5832010 	str	r2, [r3, #16]
    d524:	e51b3010 	ldr	r3, [fp, #-16]
    d528:	e5933000 	ldr	r3, [r3]
    d52c:	e3a02000 	mov	r2, #0
    d530:	e583200c 	str	r2, [r3, #12]
    d534:	e51b3010 	ldr	r3, [fp, #-16]
    d538:	e5933000 	ldr	r3, [r3]
    d53c:	e3a02000 	mov	r2, #0
    d540:	e5832020 	str	r2, [r3, #32]
    d544:	e51b3010 	ldr	r3, [fp, #-16]
    d548:	e5933000 	ldr	r3, [r3]
    d54c:	e3a02000 	mov	r2, #0
    d550:	e5832014 	str	r2, [r3, #20]
    d554:	e51b3010 	ldr	r3, [fp, #-16]
    d558:	e5933000 	ldr	r3, [r3]
    d55c:	e3a02000 	mov	r2, #0
    d560:	e5832018 	str	r2, [r3, #24]
    d564:	e51b3010 	ldr	r3, [fp, #-16]
    d568:	e5933000 	ldr	r3, [r3]
    d56c:	e3a02000 	mov	r2, #0
    d570:	e583201c 	str	r2, [r3, #28]
    d574:	e3a03000 	mov	r3, #0
    d578:	e1a00003 	mov	r0, r3
    d57c:	e24bd004 	sub	sp, fp, #4
    d580:	e8bd4800 	pop	{fp, lr}
    d584:	e12fff1e 	bx	lr
    d588:	0000041c 	.word	0x0000041c
    d58c:	000297d8 	.word	0x000297d8

0000d590 <UsbDeallocateDevice>:
    d590:	e92d4800 	push	{fp, lr}
    d594:	e28db004 	add	fp, sp, #4
    d598:	e24dd008 	sub	sp, sp, #8
    d59c:	e50b0008 	str	r0, [fp, #-8]
    d5a0:	e51b3008 	ldr	r3, [fp, #-8]
    d5a4:	e593300c 	ldr	r3, [r3, #12]
    d5a8:	e3530000 	cmp	r3, #0
    d5ac:	0a000004 	beq	d5c4 <UsbDeallocateDevice+0x34>
    d5b0:	e51b3008 	ldr	r3, [fp, #-8]
    d5b4:	e593300c 	ldr	r3, [r3, #12]
    d5b8:	e51b0008 	ldr	r0, [fp, #-8]
    d5bc:	e1a0e00f 	mov	lr, pc
    d5c0:	e12fff13 	bx	r3
    d5c4:	e51b3008 	ldr	r3, [fp, #-8]
    d5c8:	e5933010 	ldr	r3, [r3, #16]
    d5cc:	e3530000 	cmp	r3, #0
    d5d0:	0a000004 	beq	d5e8 <UsbDeallocateDevice+0x58>
    d5d4:	e51b3008 	ldr	r3, [fp, #-8]
    d5d8:	e5933010 	ldr	r3, [r3, #16]
    d5dc:	e51b0008 	ldr	r0, [fp, #-8]
    d5e0:	e1a0e00f 	mov	lr, pc
    d5e4:	e12fff13 	bx	r3
    d5e8:	e51b3008 	ldr	r3, [fp, #-8]
    d5ec:	e593340c 	ldr	r3, [r3, #1036]	; 0x40c
    d5f0:	e3530000 	cmp	r3, #0
    d5f4:	0a00000d 	beq	d630 <UsbDeallocateDevice+0xa0>
    d5f8:	e51b3008 	ldr	r3, [fp, #-8]
    d5fc:	e593340c 	ldr	r3, [r3, #1036]	; 0x40c
    d600:	e5933018 	ldr	r3, [r3, #24]
    d604:	e3530000 	cmp	r3, #0
    d608:	0a000008 	beq	d630 <UsbDeallocateDevice+0xa0>
    d60c:	e51b3008 	ldr	r3, [fp, #-8]
    d610:	e593340c 	ldr	r3, [r3, #1036]	; 0x40c
    d614:	e5933018 	ldr	r3, [r3, #24]
    d618:	e51b2008 	ldr	r2, [fp, #-8]
    d61c:	e592240c 	ldr	r2, [r2, #1036]	; 0x40c
    d620:	e51b1008 	ldr	r1, [fp, #-8]
    d624:	e1a00002 	mov	r0, r2
    d628:	e1a0e00f 	mov	lr, pc
    d62c:	e12fff13 	bx	r3
    d630:	e51b3008 	ldr	r3, [fp, #-8]
    d634:	e5d33005 	ldrb	r3, [r3, #5]
    d638:	e3530003 	cmp	r3, #3
    d63c:	0a000003 	beq	d650 <UsbDeallocateDevice+0xc0>
    d640:	e51b3008 	ldr	r3, [fp, #-8]
    d644:	e5d33005 	ldrb	r3, [r3, #5]
    d648:	e3530004 	cmp	r3, #4
    d64c:	1a000015 	bne	d6a8 <UsbDeallocateDevice+0x118>
    d650:	e51b3008 	ldr	r3, [fp, #-8]
    d654:	e5933000 	ldr	r3, [r3]
    d658:	e3530000 	cmp	r3, #0
    d65c:	0a000011 	beq	d6a8 <UsbDeallocateDevice+0x118>
    d660:	e51b3008 	ldr	r3, [fp, #-8]
    d664:	e5933000 	ldr	r3, [r3]
    d668:	e3530020 	cmp	r3, #32
    d66c:	8a00000d 	bhi	d6a8 <UsbDeallocateDevice+0x118>
    d670:	e51b3008 	ldr	r3, [fp, #-8]
    d674:	e5933000 	ldr	r3, [r3]
    d678:	e2433001 	sub	r3, r3, #1
    d67c:	e59f205c 	ldr	r2, [pc, #92]	; d6e0 <UsbDeallocateDevice+0x150>
    d680:	e7922103 	ldr	r2, [r2, r3, lsl #2]
    d684:	e51b3008 	ldr	r3, [fp, #-8]
    d688:	e1520003 	cmp	r2, r3
    d68c:	1a000005 	bne	d6a8 <UsbDeallocateDevice+0x118>
    d690:	e51b3008 	ldr	r3, [fp, #-8]
    d694:	e5933000 	ldr	r3, [r3]
    d698:	e2433001 	sub	r3, r3, #1
    d69c:	e59f203c 	ldr	r2, [pc, #60]	; d6e0 <UsbDeallocateDevice+0x150>
    d6a0:	e3a01000 	mov	r1, #0
    d6a4:	e7821103 	str	r1, [r2, r3, lsl #2]
    d6a8:	e51b3008 	ldr	r3, [fp, #-8]
    d6ac:	e5933410 	ldr	r3, [r3, #1040]	; 0x410
    d6b0:	e3530000 	cmp	r3, #0
    d6b4:	0a000003 	beq	d6c8 <UsbDeallocateDevice+0x138>
    d6b8:	e51b3008 	ldr	r3, [fp, #-8]
    d6bc:	e5933410 	ldr	r3, [r3, #1040]	; 0x410
    d6c0:	e1a00003 	mov	r0, r3
    d6c4:	ebfff8b8 	bl	b9ac <MemoryDeallocate>
    d6c8:	e51b0008 	ldr	r0, [fp, #-8]
    d6cc:	ebfff8b6 	bl	b9ac <MemoryDeallocate>
    d6d0:	e1a00000 	nop			; (mov r0, r0)
    d6d4:	e24bd004 	sub	sp, fp, #4
    d6d8:	e8bd4800 	pop	{fp, lr}
    d6dc:	e12fff1e 	bx	lr
    d6e0:	000297d8 	.word	0x000297d8

0000d6e4 <UsbAttachRootHub>:
    d6e4:	e92d4800 	push	{fp, lr}
    d6e8:	e28db004 	add	fp, sp, #4
    d6ec:	e24dd008 	sub	sp, sp, #8
    d6f0:	e59f3074 	ldr	r3, [pc, #116]	; d76c <UsbAttachRootHub+0x88>
    d6f4:	e5933000 	ldr	r3, [r3]
    d6f8:	e3530000 	cmp	r3, #0
    d6fc:	0a000003 	beq	d710 <UsbAttachRootHub+0x2c>
    d700:	e59f3064 	ldr	r3, [pc, #100]	; d76c <UsbAttachRootHub+0x88>
    d704:	e5933000 	ldr	r3, [r3]
    d708:	e1a00003 	mov	r0, r3
    d70c:	ebffff9f 	bl	d590 <UsbDeallocateDevice>
    d710:	e24b300c 	sub	r3, fp, #12
    d714:	e1a00003 	mov	r0, r3
    d718:	ebffff39 	bl	d404 <UsbAllocateDevice>
    d71c:	e1a03000 	mov	r3, r0
    d720:	e54b3005 	strb	r3, [fp, #-5]
    d724:	e15b30d5 	ldrsb	r3, [fp, #-5]
    d728:	e3530000 	cmp	r3, #0
    d72c:	0a000001 	beq	d738 <UsbAttachRootHub+0x54>
    d730:	e15b30d5 	ldrsb	r3, [fp, #-5]
    d734:	ea000008 	b	d75c <UsbAttachRootHub+0x78>
    d738:	e59f302c 	ldr	r3, [pc, #44]	; d76c <UsbAttachRootHub+0x88>
    d73c:	e5933000 	ldr	r3, [r3]
    d740:	e3a02001 	mov	r2, #1
    d744:	e5c32005 	strb	r2, [r3, #5]
    d748:	e59f301c 	ldr	r3, [pc, #28]	; d76c <UsbAttachRootHub+0x88>
    d74c:	e5933000 	ldr	r3, [r3]
    d750:	e1a00003 	mov	r0, r3
    d754:	ebfffe46 	bl	d074 <UsbAttachDevice>
    d758:	e1a03000 	mov	r3, r0
    d75c:	e1a00003 	mov	r0, r3
    d760:	e24bd004 	sub	sp, fp, #4
    d764:	e8bd4800 	pop	{fp, lr}
    d768:	e12fff1e 	bx	lr
    d76c:	000297d8 	.word	0x000297d8

0000d770 <UsbCheckForChange>:
    d770:	e92d4800 	push	{fp, lr}
    d774:	e28db004 	add	fp, sp, #4
    d778:	e59f304c 	ldr	r3, [pc, #76]	; d7cc <UsbCheckForChange+0x5c>
    d77c:	e5933000 	ldr	r3, [r3]
    d780:	e3530000 	cmp	r3, #0
    d784:	0a00000c 	beq	d7bc <UsbCheckForChange+0x4c>
    d788:	e59f303c 	ldr	r3, [pc, #60]	; d7cc <UsbCheckForChange+0x5c>
    d78c:	e5933000 	ldr	r3, [r3]
    d790:	e5933014 	ldr	r3, [r3, #20]
    d794:	e3530000 	cmp	r3, #0
    d798:	0a000007 	beq	d7bc <UsbCheckForChange+0x4c>
    d79c:	e59f3028 	ldr	r3, [pc, #40]	; d7cc <UsbCheckForChange+0x5c>
    d7a0:	e5933000 	ldr	r3, [r3]
    d7a4:	e5933014 	ldr	r3, [r3, #20]
    d7a8:	e59f201c 	ldr	r2, [pc, #28]	; d7cc <UsbCheckForChange+0x5c>
    d7ac:	e5922000 	ldr	r2, [r2]
    d7b0:	e1a00002 	mov	r0, r2
    d7b4:	e1a0e00f 	mov	lr, pc
    d7b8:	e12fff13 	bx	r3
    d7bc:	e1a00000 	nop			; (mov r0, r0)
    d7c0:	e24bd004 	sub	sp, fp, #4
    d7c4:	e8bd4800 	pop	{fp, lr}
    d7c8:	e12fff1e 	bx	lr
    d7cc:	000297d8 	.word	0x000297d8

0000d7d0 <ConfigurationLoad>:
    d7d0:	e92d4800 	push	{fp, lr}
    d7d4:	e28db004 	add	fp, sp, #4
    d7d8:	ebfff919 	bl	bc44 <PlatformLoad>
    d7dc:	ebfff947 	bl	bd00 <UsbLoad>
    d7e0:	eb000858 	bl	f948 <HidLoad>
    d7e4:	eb00001d 	bl	d860 <HubLoad>
    d7e8:	ebffed6d 	bl	8da4 <KbdLoad>
    d7ec:	eb00188c 	bl	13a24 <MouseLoad>
    d7f0:	e1a00000 	nop			; (mov r0, r0)
    d7f4:	e24bd004 	sub	sp, fp, #4
    d7f8:	e8bd4800 	pop	{fp, lr}
    d7fc:	e12fff1e 	bx	lr

0000d800 <SizeFromNumber>:
    d800:	e52db004 	push	{fp}		; (str fp, [sp, #-4]!)
    d804:	e28db000 	add	fp, sp, #0
    d808:	e24dd00c 	sub	sp, sp, #12
    d80c:	e50b0008 	str	r0, [fp, #-8]
    d810:	e51b3008 	ldr	r3, [fp, #-8]
    d814:	e3530008 	cmp	r3, #8
    d818:	8a000001 	bhi	d824 <SizeFromNumber+0x24>
    d81c:	e3a03000 	mov	r3, #0
    d820:	ea00000a 	b	d850 <SizeFromNumber+0x50>
    d824:	e51b3008 	ldr	r3, [fp, #-8]
    d828:	e3530010 	cmp	r3, #16
    d82c:	8a000001 	bhi	d838 <SizeFromNumber+0x38>
    d830:	e3a03001 	mov	r3, #1
    d834:	ea000005 	b	d850 <SizeFromNumber+0x50>
    d838:	e51b3008 	ldr	r3, [fp, #-8]
    d83c:	e3530020 	cmp	r3, #32
    d840:	8a000001 	bhi	d84c <SizeFromNumber+0x4c>
    d844:	e3a03002 	mov	r3, #2
    d848:	ea000000 	b	d850 <SizeFromNumber+0x50>
    d84c:	e3a03003 	mov	r3, #3
    d850:	e1a00003 	mov	r0, r3
    d854:	e24bd000 	sub	sp, fp, #0
    d858:	e49db004 	pop	{fp}		; (ldr fp, [sp], #4)
    d85c:	e12fff1e 	bx	lr

0000d860 <HubLoad>:
    d860:	e52db004 	push	{fp}		; (str fp, [sp, #-4]!)
    d864:	e28db000 	add	fp, sp, #0
    d868:	e59f3014 	ldr	r3, [pc, #20]	; d884 <HubLoad+0x24>
    d86c:	e59f2014 	ldr	r2, [pc, #20]	; d888 <HubLoad+0x28>
    d870:	e5832024 	str	r2, [r3, #36]	; 0x24
    d874:	e1a00000 	nop			; (mov r0, r0)
    d878:	e24bd000 	sub	sp, fp, #0
    d87c:	e49db004 	pop	{fp}		; (ldr fp, [sp], #4)
    d880:	e12fff1e 	bx	lr
    d884:	00029798 	.word	0x00029798
    d888:	0000f3fc 	.word	0x0000f3fc

0000d88c <HubReadDescriptor>:
    d88c:	e92d4810 	push	{r4, fp, lr}
    d890:	e28db008 	add	fp, sp, #8
    d894:	e24dd024 	sub	sp, sp, #36	; 0x24
    d898:	e50b0018 	str	r0, [fp, #-24]	; 0xffffffe8
    d89c:	e3a03020 	mov	r3, #32
    d8a0:	e58d300c 	str	r3, [sp, #12]
    d8a4:	e3a03002 	mov	r3, #2
    d8a8:	e58d3008 	str	r3, [sp, #8]
    d8ac:	e3a03002 	mov	r3, #2
    d8b0:	e58d3004 	str	r3, [sp, #4]
    d8b4:	e24b3010 	sub	r3, fp, #16
    d8b8:	e58d3000 	str	r3, [sp]
    d8bc:	e3a03000 	mov	r3, #0
    d8c0:	e3a02000 	mov	r2, #0
    d8c4:	e3a01029 	mov	r1, #41	; 0x29
    d8c8:	e51b0018 	ldr	r0, [fp, #-24]	; 0xffffffe8
    d8cc:	ebfff99f 	bl	bf50 <UsbGetDescriptor>
    d8d0:	e1a03000 	mov	r3, r0
    d8d4:	e54b300d 	strb	r3, [fp, #-13]
    d8d8:	e15b30dd 	ldrsb	r3, [fp, #-13]
    d8dc:	e3530000 	cmp	r3, #0
    d8e0:	0a000001 	beq	d8ec <HubReadDescriptor+0x60>
    d8e4:	e15b30dd 	ldrsb	r3, [fp, #-13]
    d8e8:	ea000056 	b	da48 <HubReadDescriptor+0x1bc>
    d8ec:	e51b3018 	ldr	r3, [fp, #-24]	; 0xffffffe8
    d8f0:	e5933414 	ldr	r3, [r3, #1044]	; 0x414
    d8f4:	e5d3200c 	ldrb	r2, [r3, #12]
    d8f8:	e5d3100d 	ldrb	r1, [r3, #13]
    d8fc:	e1a01401 	lsl	r1, r1, #8
    d900:	e1812002 	orr	r2, r1, r2
    d904:	e5d3100e 	ldrb	r1, [r3, #14]
    d908:	e1a01801 	lsl	r1, r1, #16
    d90c:	e1812002 	orr	r2, r1, r2
    d910:	e5d3300f 	ldrb	r3, [r3, #15]
    d914:	e1a03c03 	lsl	r3, r3, #24
    d918:	e1833002 	orr	r3, r3, r2
    d91c:	e3530000 	cmp	r3, #0
    d920:	1a000025 	bne	d9bc <HubReadDescriptor+0x130>
    d924:	e51b3018 	ldr	r3, [fp, #-24]	; 0xffffffe8
    d928:	e5934414 	ldr	r4, [r3, #1044]	; 0x414
    d92c:	e55b3010 	ldrb	r3, [fp, #-16]
    d930:	e1a00003 	mov	r0, r3
    d934:	ebfff5b2 	bl	b004 <MemoryAllocate>
    d938:	e1a03000 	mov	r3, r0
    d93c:	e20320ff 	and	r2, r3, #255	; 0xff
    d940:	e3a01000 	mov	r1, #0
    d944:	e1812002 	orr	r2, r1, r2
    d948:	e5c4200c 	strb	r2, [r4, #12]
    d94c:	e1a02423 	lsr	r2, r3, #8
    d950:	e20220ff 	and	r2, r2, #255	; 0xff
    d954:	e3a01000 	mov	r1, #0
    d958:	e1812002 	orr	r2, r1, r2
    d95c:	e5c4200d 	strb	r2, [r4, #13]
    d960:	e1a02823 	lsr	r2, r3, #16
    d964:	e20220ff 	and	r2, r2, #255	; 0xff
    d968:	e3a01000 	mov	r1, #0
    d96c:	e1812002 	orr	r2, r1, r2
    d970:	e5c4200e 	strb	r2, [r4, #14]
    d974:	e1a03c23 	lsr	r3, r3, #24
    d978:	e3a02000 	mov	r2, #0
    d97c:	e1823003 	orr	r3, r2, r3
    d980:	e5c4300f 	strb	r3, [r4, #15]
    d984:	e5d4300c 	ldrb	r3, [r4, #12]
    d988:	e5d4200d 	ldrb	r2, [r4, #13]
    d98c:	e1a02402 	lsl	r2, r2, #8
    d990:	e1823003 	orr	r3, r2, r3
    d994:	e5d4200e 	ldrb	r2, [r4, #14]
    d998:	e1a02802 	lsl	r2, r2, #16
    d99c:	e1823003 	orr	r3, r2, r3
    d9a0:	e5d4200f 	ldrb	r2, [r4, #15]
    d9a4:	e1a02c02 	lsl	r2, r2, #24
    d9a8:	e1823003 	orr	r3, r2, r3
    d9ac:	e3530000 	cmp	r3, #0
    d9b0:	1a000001 	bne	d9bc <HubReadDescriptor+0x130>
    d9b4:	e3e03006 	mvn	r3, #6
    d9b8:	ea000022 	b	da48 <HubReadDescriptor+0x1bc>
    d9bc:	e51b3018 	ldr	r3, [fp, #-24]	; 0xffffffe8
    d9c0:	e5933414 	ldr	r3, [r3, #1044]	; 0x414
    d9c4:	e5d3200c 	ldrb	r2, [r3, #12]
    d9c8:	e5d3100d 	ldrb	r1, [r3, #13]
    d9cc:	e1a01401 	lsl	r1, r1, #8
    d9d0:	e1812002 	orr	r2, r1, r2
    d9d4:	e5d3100e 	ldrb	r1, [r3, #14]
    d9d8:	e1a01801 	lsl	r1, r1, #16
    d9dc:	e1812002 	orr	r2, r1, r2
    d9e0:	e5d3300f 	ldrb	r3, [r3, #15]
    d9e4:	e1a03c03 	lsl	r3, r3, #24
    d9e8:	e1833002 	orr	r3, r3, r2
    d9ec:	e1a02003 	mov	r2, r3
    d9f0:	e55b3010 	ldrb	r3, [fp, #-16]
    d9f4:	e1a01003 	mov	r1, r3
    d9f8:	e55b3010 	ldrb	r3, [fp, #-16]
    d9fc:	e1a00003 	mov	r0, r3
    da00:	e3a03020 	mov	r3, #32
    da04:	e58d300c 	str	r3, [sp, #12]
    da08:	e58d0008 	str	r0, [sp, #8]
    da0c:	e58d1004 	str	r1, [sp, #4]
    da10:	e58d2000 	str	r2, [sp]
    da14:	e3a03000 	mov	r3, #0
    da18:	e3a02000 	mov	r2, #0
    da1c:	e3a01029 	mov	r1, #41	; 0x29
    da20:	e51b0018 	ldr	r0, [fp, #-24]	; 0xffffffe8
    da24:	ebfff949 	bl	bf50 <UsbGetDescriptor>
    da28:	e1a03000 	mov	r3, r0
    da2c:	e54b300d 	strb	r3, [fp, #-13]
    da30:	e15b30dd 	ldrsb	r3, [fp, #-13]
    da34:	e3530000 	cmp	r3, #0
    da38:	0a000001 	beq	da44 <HubReadDescriptor+0x1b8>
    da3c:	e15b30dd 	ldrsb	r3, [fp, #-13]
    da40:	ea000000 	b	da48 <HubReadDescriptor+0x1bc>
    da44:	e3a03000 	mov	r3, #0
    da48:	e1a00003 	mov	r0, r3
    da4c:	e24bd008 	sub	sp, fp, #8
    da50:	e8bd4810 	pop	{r4, fp, lr}
    da54:	e12fff1e 	bx	lr

0000da58 <HubGetStatus>:
    da58:	e92d4800 	push	{fp, lr}
    da5c:	e28db004 	add	fp, sp, #4
    da60:	e24dd020 	sub	sp, sp, #32
    da64:	e50b0018 	str	r0, [fp, #-24]	; 0xffffffe8
    da68:	e3a03000 	mov	r3, #0
    da6c:	e50b3014 	str	r3, [fp, #-20]	; 0xffffffec
    da70:	e51b3018 	ldr	r3, [fp, #-24]	; 0xffffffe8
    da74:	e5d3302b 	ldrb	r3, [r3, #43]	; 0x2b
    da78:	e20330ff 	and	r3, r3, #255	; 0xff
    da7c:	e1a00003 	mov	r0, r3
    da80:	ebffff5e 	bl	d800 <SizeFromNumber>
    da84:	e1a03000 	mov	r3, r0
    da88:	e2033003 	and	r3, r3, #3
    da8c:	e20320ff 	and	r2, r3, #255	; 0xff
    da90:	e55b3014 	ldrb	r3, [fp, #-20]	; 0xffffffec
    da94:	e2022003 	and	r2, r2, #3
    da98:	e3c33003 	bic	r3, r3, #3
    da9c:	e1823003 	orr	r3, r2, r3
    daa0:	e54b3014 	strb	r3, [fp, #-20]	; 0xffffffec
    daa4:	e51b3018 	ldr	r3, [fp, #-24]	; 0xffffffe8
    daa8:	e5d33004 	ldrb	r3, [r3, #4]
    daac:	e2033003 	and	r3, r3, #3
    dab0:	e20330ff 	and	r3, r3, #255	; 0xff
    dab4:	e55b2014 	ldrb	r2, [fp, #-20]	; 0xffffffec
    dab8:	e2033003 	and	r3, r3, #3
    dabc:	e3c2200c 	bic	r2, r2, #12
    dac0:	e1a03103 	lsl	r3, r3, #2
    dac4:	e1833002 	orr	r3, r3, r2
    dac8:	e1a02003 	mov	r2, r3
    dacc:	e54b2014 	strb	r2, [fp, #-20]	; 0xffffffec
    dad0:	e51b3018 	ldr	r3, [fp, #-24]	; 0xffffffe8
    dad4:	e5933000 	ldr	r3, [r3]
    dad8:	e20330ff 	and	r3, r3, #255	; 0xff
    dadc:	e54b3013 	strb	r3, [fp, #-19]	; 0xffffffed
    dae0:	e55b3012 	ldrb	r3, [fp, #-18]	; 0xffffffee
    dae4:	e3833004 	orr	r3, r3, #4
    dae8:	e54b3012 	strb	r3, [fp, #-18]	; 0xffffffee
    daec:	e51b3018 	ldr	r3, [fp, #-24]	; 0xffffffe8
    daf0:	e5933414 	ldr	r3, [r3, #1044]	; 0x414
    daf4:	e2831008 	add	r1, r3, #8
    daf8:	e24b3010 	sub	r3, fp, #16
    dafc:	e3a02000 	mov	r2, #0
    db00:	e5832000 	str	r2, [r3]
    db04:	e5832004 	str	r2, [r3, #4]
    db08:	e3e0305f 	mvn	r3, #95	; 0x5f
    db0c:	e54b3010 	strb	r3, [fp, #-16]
    db10:	e3a03004 	mov	r3, #4
    db14:	e14b30ba 	strh	r3, [fp, #-10]
    db18:	e3a0300a 	mov	r3, #10
    db1c:	e58d3004 	str	r3, [sp, #4]
    db20:	e24b3010 	sub	r3, fp, #16
    db24:	e58d3000 	str	r3, [sp]
    db28:	e3a03004 	mov	r3, #4
    db2c:	e1a02001 	mov	r2, r1
    db30:	e51b1014 	ldr	r1, [fp, #-20]	; 0xffffffec
    db34:	e51b0018 	ldr	r0, [fp, #-24]	; 0xffffffe8
    db38:	ebfff8b9 	bl	be24 <UsbControlMessage>
    db3c:	e1a03000 	mov	r3, r0
    db40:	e54b3005 	strb	r3, [fp, #-5]
    db44:	e15b30d5 	ldrsb	r3, [fp, #-5]
    db48:	e3530000 	cmp	r3, #0
    db4c:	0a000001 	beq	db58 <HubGetStatus+0x100>
    db50:	e15b30d5 	ldrsb	r3, [fp, #-5]
    db54:	ea000006 	b	db74 <HubGetStatus+0x11c>
    db58:	e51b3018 	ldr	r3, [fp, #-24]	; 0xffffffe8
    db5c:	e5933418 	ldr	r3, [r3, #1048]	; 0x418
    db60:	e3530003 	cmp	r3, #3
    db64:	8a000001 	bhi	db70 <HubGetStatus+0x118>
    db68:	e3e03003 	mvn	r3, #3
    db6c:	ea000000 	b	db74 <HubGetStatus+0x11c>
    db70:	e3a03000 	mov	r3, #0
    db74:	e1a00003 	mov	r0, r3
    db78:	e24bd004 	sub	sp, fp, #4
    db7c:	e8bd4800 	pop	{fp, lr}
    db80:	e12fff1e 	bx	lr

0000db84 <HubPortGetStatus>:
    db84:	e92d4800 	push	{fp, lr}
    db88:	e28db004 	add	fp, sp, #4
    db8c:	e24dd020 	sub	sp, sp, #32
    db90:	e50b0018 	str	r0, [fp, #-24]	; 0xffffffe8
    db94:	e1a03001 	mov	r3, r1
    db98:	e54b3019 	strb	r3, [fp, #-25]	; 0xffffffe7
    db9c:	e3a03000 	mov	r3, #0
    dba0:	e50b3014 	str	r3, [fp, #-20]	; 0xffffffec
    dba4:	e51b3018 	ldr	r3, [fp, #-24]	; 0xffffffe8
    dba8:	e5d3302b 	ldrb	r3, [r3, #43]	; 0x2b
    dbac:	e20330ff 	and	r3, r3, #255	; 0xff
    dbb0:	e1a00003 	mov	r0, r3
    dbb4:	ebffff11 	bl	d800 <SizeFromNumber>
    dbb8:	e1a03000 	mov	r3, r0
    dbbc:	e2033003 	and	r3, r3, #3
    dbc0:	e20320ff 	and	r2, r3, #255	; 0xff
    dbc4:	e55b3014 	ldrb	r3, [fp, #-20]	; 0xffffffec
    dbc8:	e2022003 	and	r2, r2, #3
    dbcc:	e3c33003 	bic	r3, r3, #3
    dbd0:	e1823003 	orr	r3, r2, r3
    dbd4:	e54b3014 	strb	r3, [fp, #-20]	; 0xffffffec
    dbd8:	e51b3018 	ldr	r3, [fp, #-24]	; 0xffffffe8
    dbdc:	e5d33004 	ldrb	r3, [r3, #4]
    dbe0:	e2033003 	and	r3, r3, #3
    dbe4:	e20330ff 	and	r3, r3, #255	; 0xff
    dbe8:	e55b2014 	ldrb	r2, [fp, #-20]	; 0xffffffec
    dbec:	e2033003 	and	r3, r3, #3
    dbf0:	e3c2200c 	bic	r2, r2, #12
    dbf4:	e1a03103 	lsl	r3, r3, #2
    dbf8:	e1833002 	orr	r3, r3, r2
    dbfc:	e1a02003 	mov	r2, r3
    dc00:	e54b2014 	strb	r2, [fp, #-20]	; 0xffffffec
    dc04:	e51b3018 	ldr	r3, [fp, #-24]	; 0xffffffe8
    dc08:	e5933000 	ldr	r3, [r3]
    dc0c:	e20330ff 	and	r3, r3, #255	; 0xff
    dc10:	e54b3013 	strb	r3, [fp, #-19]	; 0xffffffed
    dc14:	e55b3012 	ldrb	r3, [fp, #-18]	; 0xffffffee
    dc18:	e3833004 	orr	r3, r3, #4
    dc1c:	e54b3012 	strb	r3, [fp, #-18]	; 0xffffffee
    dc20:	e51b3018 	ldr	r3, [fp, #-24]	; 0xffffffe8
    dc24:	e5932414 	ldr	r2, [r3, #1044]	; 0x414
    dc28:	e55b3019 	ldrb	r3, [fp, #-25]	; 0xffffffe7
    dc2c:	e2833004 	add	r3, r3, #4
    dc30:	e1a03103 	lsl	r3, r3, #2
    dc34:	e0823003 	add	r3, r2, r3
    dc38:	e2831004 	add	r1, r3, #4
    dc3c:	e24b3010 	sub	r3, fp, #16
    dc40:	e3a02000 	mov	r2, #0
    dc44:	e5832000 	str	r2, [r3]
    dc48:	e5832004 	str	r2, [r3, #4]
    dc4c:	e3e0305c 	mvn	r3, #92	; 0x5c
    dc50:	e54b3010 	strb	r3, [fp, #-16]
    dc54:	e55b3019 	ldrb	r3, [fp, #-25]	; 0xffffffe7
    dc58:	e1a03803 	lsl	r3, r3, #16
    dc5c:	e1a03823 	lsr	r3, r3, #16
    dc60:	e2833001 	add	r3, r3, #1
    dc64:	e1a03803 	lsl	r3, r3, #16
    dc68:	e1a03823 	lsr	r3, r3, #16
    dc6c:	e14b30bc 	strh	r3, [fp, #-12]
    dc70:	e3a03004 	mov	r3, #4
    dc74:	e14b30ba 	strh	r3, [fp, #-10]
    dc78:	e3a0300a 	mov	r3, #10
    dc7c:	e58d3004 	str	r3, [sp, #4]
    dc80:	e24b3010 	sub	r3, fp, #16
    dc84:	e58d3000 	str	r3, [sp]
    dc88:	e3a03004 	mov	r3, #4
    dc8c:	e1a02001 	mov	r2, r1
    dc90:	e51b1014 	ldr	r1, [fp, #-20]	; 0xffffffec
    dc94:	e51b0018 	ldr	r0, [fp, #-24]	; 0xffffffe8
    dc98:	ebfff861 	bl	be24 <UsbControlMessage>
    dc9c:	e1a03000 	mov	r3, r0
    dca0:	e54b3005 	strb	r3, [fp, #-5]
    dca4:	e15b30d5 	ldrsb	r3, [fp, #-5]
    dca8:	e3530000 	cmp	r3, #0
    dcac:	0a000001 	beq	dcb8 <HubPortGetStatus+0x134>
    dcb0:	e15b30d5 	ldrsb	r3, [fp, #-5]
    dcb4:	ea000006 	b	dcd4 <HubPortGetStatus+0x150>
    dcb8:	e51b3018 	ldr	r3, [fp, #-24]	; 0xffffffe8
    dcbc:	e5933418 	ldr	r3, [r3, #1048]	; 0x418
    dcc0:	e3530003 	cmp	r3, #3
    dcc4:	8a000001 	bhi	dcd0 <HubPortGetStatus+0x14c>
    dcc8:	e3e03003 	mvn	r3, #3
    dccc:	ea000000 	b	dcd4 <HubPortGetStatus+0x150>
    dcd0:	e3a03000 	mov	r3, #0
    dcd4:	e1a00003 	mov	r0, r3
    dcd8:	e24bd004 	sub	sp, fp, #4
    dcdc:	e8bd4800 	pop	{fp, lr}
    dce0:	e12fff1e 	bx	lr

0000dce4 <HubChangeFeature>:
    dce4:	e92d4800 	push	{fp, lr}
    dce8:	e28db004 	add	fp, sp, #4
    dcec:	e24dd020 	sub	sp, sp, #32
    dcf0:	e50b0018 	str	r0, [fp, #-24]	; 0xffffffe8
    dcf4:	e1a03001 	mov	r3, r1
    dcf8:	e54b3019 	strb	r3, [fp, #-25]	; 0xffffffe7
    dcfc:	e1a03002 	mov	r3, r2
    dd00:	e54b301a 	strb	r3, [fp, #-26]	; 0xffffffe6
    dd04:	e3a03000 	mov	r3, #0
    dd08:	e50b3014 	str	r3, [fp, #-20]	; 0xffffffec
    dd0c:	e51b3018 	ldr	r3, [fp, #-24]	; 0xffffffe8
    dd10:	e5d3302b 	ldrb	r3, [r3, #43]	; 0x2b
    dd14:	e20330ff 	and	r3, r3, #255	; 0xff
    dd18:	e1a00003 	mov	r0, r3
    dd1c:	ebfffeb7 	bl	d800 <SizeFromNumber>
    dd20:	e1a03000 	mov	r3, r0
    dd24:	e2033003 	and	r3, r3, #3
    dd28:	e20320ff 	and	r2, r3, #255	; 0xff
    dd2c:	e55b3014 	ldrb	r3, [fp, #-20]	; 0xffffffec
    dd30:	e2022003 	and	r2, r2, #3
    dd34:	e3c33003 	bic	r3, r3, #3
    dd38:	e1823003 	orr	r3, r2, r3
    dd3c:	e54b3014 	strb	r3, [fp, #-20]	; 0xffffffec
    dd40:	e51b3018 	ldr	r3, [fp, #-24]	; 0xffffffe8
    dd44:	e5d33004 	ldrb	r3, [r3, #4]
    dd48:	e2033003 	and	r3, r3, #3
    dd4c:	e20330ff 	and	r3, r3, #255	; 0xff
    dd50:	e55b2014 	ldrb	r2, [fp, #-20]	; 0xffffffec
    dd54:	e2033003 	and	r3, r3, #3
    dd58:	e3c2200c 	bic	r2, r2, #12
    dd5c:	e1a03103 	lsl	r3, r3, #2
    dd60:	e1833002 	orr	r3, r3, r2
    dd64:	e1a02003 	mov	r2, r3
    dd68:	e54b2014 	strb	r2, [fp, #-20]	; 0xffffffec
    dd6c:	e51b3018 	ldr	r3, [fp, #-24]	; 0xffffffe8
    dd70:	e5933000 	ldr	r3, [r3]
    dd74:	e20330ff 	and	r3, r3, #255	; 0xff
    dd78:	e54b3013 	strb	r3, [fp, #-19]	; 0xffffffed
    dd7c:	e24b3010 	sub	r3, fp, #16
    dd80:	e3a02000 	mov	r2, #0
    dd84:	e5832000 	str	r2, [r3]
    dd88:	e5832004 	str	r2, [r3, #4]
    dd8c:	e3a03020 	mov	r3, #32
    dd90:	e54b3010 	strb	r3, [fp, #-16]
    dd94:	e55b301a 	ldrb	r3, [fp, #-26]	; 0xffffffe6
    dd98:	e3530000 	cmp	r3, #0
    dd9c:	0a000001 	beq	dda8 <HubChangeFeature+0xc4>
    dda0:	e3a03003 	mov	r3, #3
    dda4:	ea000000 	b	ddac <HubChangeFeature+0xc8>
    dda8:	e3a03001 	mov	r3, #1
    ddac:	e54b300f 	strb	r3, [fp, #-15]
    ddb0:	e55b3019 	ldrb	r3, [fp, #-25]	; 0xffffffe7
    ddb4:	e1a03803 	lsl	r3, r3, #16
    ddb8:	e1a03823 	lsr	r3, r3, #16
    ddbc:	e14b30be 	strh	r3, [fp, #-14]
    ddc0:	e3a0300a 	mov	r3, #10
    ddc4:	e58d3004 	str	r3, [sp, #4]
    ddc8:	e24b3010 	sub	r3, fp, #16
    ddcc:	e58d3000 	str	r3, [sp]
    ddd0:	e3a03000 	mov	r3, #0
    ddd4:	e3a02000 	mov	r2, #0
    ddd8:	e51b1014 	ldr	r1, [fp, #-20]	; 0xffffffec
    dddc:	e51b0018 	ldr	r0, [fp, #-24]	; 0xffffffe8
    dde0:	ebfff80f 	bl	be24 <UsbControlMessage>
    dde4:	e1a03000 	mov	r3, r0
    dde8:	e54b3005 	strb	r3, [fp, #-5]
    ddec:	e15b30d5 	ldrsb	r3, [fp, #-5]
    ddf0:	e3530000 	cmp	r3, #0
    ddf4:	0a000001 	beq	de00 <HubChangeFeature+0x11c>
    ddf8:	e15b30d5 	ldrsb	r3, [fp, #-5]
    ddfc:	ea000000 	b	de04 <HubChangeFeature+0x120>
    de00:	e3a03000 	mov	r3, #0
    de04:	e1a00003 	mov	r0, r3
    de08:	e24bd004 	sub	sp, fp, #4
    de0c:	e8bd4800 	pop	{fp, lr}
    de10:	e12fff1e 	bx	lr

0000de14 <HubChangePortFeature>:
    de14:	e92d4800 	push	{fp, lr}
    de18:	e28db004 	add	fp, sp, #4
    de1c:	e24dd020 	sub	sp, sp, #32
    de20:	e50b0018 	str	r0, [fp, #-24]	; 0xffffffe8
    de24:	e1a00001 	mov	r0, r1
    de28:	e1a01002 	mov	r1, r2
    de2c:	e1a02003 	mov	r2, r3
    de30:	e1a03000 	mov	r3, r0
    de34:	e54b3019 	strb	r3, [fp, #-25]	; 0xffffffe7
    de38:	e1a03001 	mov	r3, r1
    de3c:	e54b301a 	strb	r3, [fp, #-26]	; 0xffffffe6
    de40:	e1a03002 	mov	r3, r2
    de44:	e54b301b 	strb	r3, [fp, #-27]	; 0xffffffe5
    de48:	e3a03000 	mov	r3, #0
    de4c:	e50b3014 	str	r3, [fp, #-20]	; 0xffffffec
    de50:	e51b3018 	ldr	r3, [fp, #-24]	; 0xffffffe8
    de54:	e5d3302b 	ldrb	r3, [r3, #43]	; 0x2b
    de58:	e20330ff 	and	r3, r3, #255	; 0xff
    de5c:	e1a00003 	mov	r0, r3
    de60:	ebfffe66 	bl	d800 <SizeFromNumber>
    de64:	e1a03000 	mov	r3, r0
    de68:	e2033003 	and	r3, r3, #3
    de6c:	e20320ff 	and	r2, r3, #255	; 0xff
    de70:	e55b3014 	ldrb	r3, [fp, #-20]	; 0xffffffec
    de74:	e2022003 	and	r2, r2, #3
    de78:	e3c33003 	bic	r3, r3, #3
    de7c:	e1823003 	orr	r3, r2, r3
    de80:	e54b3014 	strb	r3, [fp, #-20]	; 0xffffffec
    de84:	e51b3018 	ldr	r3, [fp, #-24]	; 0xffffffe8
    de88:	e5d33004 	ldrb	r3, [r3, #4]
    de8c:	e2033003 	and	r3, r3, #3
    de90:	e20330ff 	and	r3, r3, #255	; 0xff
    de94:	e55b2014 	ldrb	r2, [fp, #-20]	; 0xffffffec
    de98:	e2033003 	and	r3, r3, #3
    de9c:	e3c2200c 	bic	r2, r2, #12
    dea0:	e1a03103 	lsl	r3, r3, #2
    dea4:	e1833002 	orr	r3, r3, r2
    dea8:	e1a02003 	mov	r2, r3
    deac:	e54b2014 	strb	r2, [fp, #-20]	; 0xffffffec
    deb0:	e51b3018 	ldr	r3, [fp, #-24]	; 0xffffffe8
    deb4:	e5933000 	ldr	r3, [r3]
    deb8:	e20330ff 	and	r3, r3, #255	; 0xff
    debc:	e54b3013 	strb	r3, [fp, #-19]	; 0xffffffed
    dec0:	e24b3010 	sub	r3, fp, #16
    dec4:	e3a02000 	mov	r2, #0
    dec8:	e5832000 	str	r2, [r3]
    decc:	e5832004 	str	r2, [r3, #4]
    ded0:	e3a03023 	mov	r3, #35	; 0x23
    ded4:	e54b3010 	strb	r3, [fp, #-16]
    ded8:	e55b301b 	ldrb	r3, [fp, #-27]	; 0xffffffe5
    dedc:	e3530000 	cmp	r3, #0
    dee0:	0a000001 	beq	deec <HubChangePortFeature+0xd8>
    dee4:	e3a03003 	mov	r3, #3
    dee8:	ea000000 	b	def0 <HubChangePortFeature+0xdc>
    deec:	e3a03001 	mov	r3, #1
    def0:	e54b300f 	strb	r3, [fp, #-15]
    def4:	e55b3019 	ldrb	r3, [fp, #-25]	; 0xffffffe7
    def8:	e1a03803 	lsl	r3, r3, #16
    defc:	e1a03823 	lsr	r3, r3, #16
    df00:	e14b30be 	strh	r3, [fp, #-14]
    df04:	e55b301a 	ldrb	r3, [fp, #-26]	; 0xffffffe6
    df08:	e1a03803 	lsl	r3, r3, #16
    df0c:	e1a03823 	lsr	r3, r3, #16
    df10:	e2833001 	add	r3, r3, #1
    df14:	e1a03803 	lsl	r3, r3, #16
    df18:	e1a03823 	lsr	r3, r3, #16
    df1c:	e14b30bc 	strh	r3, [fp, #-12]
    df20:	e3a0300a 	mov	r3, #10
    df24:	e58d3004 	str	r3, [sp, #4]
    df28:	e24b3010 	sub	r3, fp, #16
    df2c:	e58d3000 	str	r3, [sp]
    df30:	e3a03000 	mov	r3, #0
    df34:	e3a02000 	mov	r2, #0
    df38:	e51b1014 	ldr	r1, [fp, #-20]	; 0xffffffec
    df3c:	e51b0018 	ldr	r0, [fp, #-24]	; 0xffffffe8
    df40:	ebfff7b7 	bl	be24 <UsbControlMessage>
    df44:	e1a03000 	mov	r3, r0
    df48:	e54b3005 	strb	r3, [fp, #-5]
    df4c:	e15b30d5 	ldrsb	r3, [fp, #-5]
    df50:	e3530000 	cmp	r3, #0
    df54:	0a000001 	beq	df60 <HubChangePortFeature+0x14c>
    df58:	e15b30d5 	ldrsb	r3, [fp, #-5]
    df5c:	ea000000 	b	df64 <HubChangePortFeature+0x150>
    df60:	e3a03000 	mov	r3, #0
    df64:	e1a00003 	mov	r0, r3
    df68:	e24bd004 	sub	sp, fp, #4
    df6c:	e8bd4800 	pop	{fp, lr}
    df70:	e12fff1e 	bx	lr

0000df74 <HubPowerOn>:
    df74:	e92d4800 	push	{fp, lr}
    df78:	e28db004 	add	fp, sp, #4
    df7c:	e24dd018 	sub	sp, sp, #24
    df80:	e50b0018 	str	r0, [fp, #-24]	; 0xffffffe8
    df84:	e51b3018 	ldr	r3, [fp, #-24]	; 0xffffffe8
    df88:	e5933414 	ldr	r3, [r3, #1044]	; 0x414
    df8c:	e50b300c 	str	r3, [fp, #-12]
    df90:	e51b300c 	ldr	r3, [fp, #-12]
    df94:	e5d3200c 	ldrb	r2, [r3, #12]
    df98:	e5d3100d 	ldrb	r1, [r3, #13]
    df9c:	e1a01401 	lsl	r1, r1, #8
    dfa0:	e1812002 	orr	r2, r1, r2
    dfa4:	e5d3100e 	ldrb	r1, [r3, #14]
    dfa8:	e1a01801 	lsl	r1, r1, #16
    dfac:	e1812002 	orr	r2, r1, r2
    dfb0:	e5d3300f 	ldrb	r3, [r3, #15]
    dfb4:	e1a03c03 	lsl	r3, r3, #24
    dfb8:	e1833002 	orr	r3, r3, r2
    dfbc:	e50b3010 	str	r3, [fp, #-16]
    dfc0:	e3a03000 	mov	r3, #0
    dfc4:	e50b3008 	str	r3, [fp, #-8]
    dfc8:	ea000008 	b	dff0 <HubPowerOn+0x7c>
    dfcc:	e51b3008 	ldr	r3, [fp, #-8]
    dfd0:	e20320ff 	and	r2, r3, #255	; 0xff
    dfd4:	e3a03001 	mov	r3, #1
    dfd8:	e3a01008 	mov	r1, #8
    dfdc:	e51b0018 	ldr	r0, [fp, #-24]	; 0xffffffe8
    dfe0:	ebffff8b 	bl	de14 <HubChangePortFeature>
    dfe4:	e51b3008 	ldr	r3, [fp, #-8]
    dfe8:	e2833001 	add	r3, r3, #1
    dfec:	e50b3008 	str	r3, [fp, #-8]
    dff0:	e51b300c 	ldr	r3, [fp, #-12]
    dff4:	e5d32010 	ldrb	r2, [r3, #16]
    dff8:	e5d31011 	ldrb	r1, [r3, #17]
    dffc:	e1a01401 	lsl	r1, r1, #8
    e000:	e1812002 	orr	r2, r1, r2
    e004:	e5d31012 	ldrb	r1, [r3, #18]
    e008:	e1a01801 	lsl	r1, r1, #16
    e00c:	e1812002 	orr	r2, r1, r2
    e010:	e5d33013 	ldrb	r3, [r3, #19]
    e014:	e1a03c03 	lsl	r3, r3, #24
    e018:	e1833002 	orr	r3, r3, r2
    e01c:	e1a02003 	mov	r2, r3
    e020:	e51b3008 	ldr	r3, [fp, #-8]
    e024:	e1520003 	cmp	r2, r3
    e028:	8affffe7 	bhi	dfcc <HubPowerOn+0x58>
    e02c:	e51b3010 	ldr	r3, [fp, #-16]
    e030:	e5d33005 	ldrb	r3, [r3, #5]
    e034:	e1a02003 	mov	r2, r3
    e038:	e1a03002 	mov	r3, r2
    e03c:	e1a03283 	lsl	r3, r3, #5
    e040:	e0623003 	rsb	r3, r2, r3
    e044:	e1a03103 	lsl	r3, r3, #2
    e048:	e0833002 	add	r3, r3, r2
    e04c:	e1a03203 	lsl	r3, r3, #4
    e050:	e1a00003 	mov	r0, r3
    e054:	eb0029f6 	bl	18834 <MicroDelay>
    e058:	e3a03000 	mov	r3, #0
    e05c:	e1a00003 	mov	r0, r3
    e060:	e24bd004 	sub	sp, fp, #4
    e064:	e8bd4800 	pop	{fp, lr}
    e068:	e12fff1e 	bx	lr

0000e06c <HubPortReset>:
    e06c:	e92d4800 	push	{fp, lr}
    e070:	e28db004 	add	fp, sp, #4
    e074:	e24dd020 	sub	sp, sp, #32
    e078:	e50b0020 	str	r0, [fp, #-32]	; 0xffffffe0
    e07c:	e1a03001 	mov	r3, r1
    e080:	e54b3021 	strb	r3, [fp, #-33]	; 0xffffffdf
    e084:	e51b3020 	ldr	r3, [fp, #-32]	; 0xffffffe0
    e088:	e5933414 	ldr	r3, [r3, #1044]	; 0x414
    e08c:	e50b3010 	str	r3, [fp, #-16]
    e090:	e55b3021 	ldrb	r3, [fp, #-33]	; 0xffffffdf
    e094:	e2833004 	add	r3, r3, #4
    e098:	e1a03103 	lsl	r3, r3, #2
    e09c:	e51b2010 	ldr	r2, [fp, #-16]
    e0a0:	e0823003 	add	r3, r2, r3
    e0a4:	e2833004 	add	r3, r3, #4
    e0a8:	e50b3014 	str	r3, [fp, #-20]	; 0xffffffec
    e0ac:	e3a03000 	mov	r3, #0
    e0b0:	e50b3008 	str	r3, [fp, #-8]
    e0b4:	ea000048 	b	e1dc <HubPortReset+0x170>
    e0b8:	e55b2021 	ldrb	r2, [fp, #-33]	; 0xffffffdf
    e0bc:	e3a03001 	mov	r3, #1
    e0c0:	e3a01004 	mov	r1, #4
    e0c4:	e51b0020 	ldr	r0, [fp, #-32]	; 0xffffffe0
    e0c8:	ebffff51 	bl	de14 <HubChangePortFeature>
    e0cc:	e1a03000 	mov	r3, r0
    e0d0:	e54b3015 	strb	r3, [fp, #-21]	; 0xffffffeb
    e0d4:	e15b31d5 	ldrsb	r3, [fp, #-21]	; 0xffffffeb
    e0d8:	e3530000 	cmp	r3, #0
    e0dc:	0a000001 	beq	e0e8 <HubPortReset+0x7c>
    e0e0:	e15b31d5 	ldrsb	r3, [fp, #-21]	; 0xffffffeb
    e0e4:	ea00004e 	b	e224 <HubPortReset+0x1b8>
    e0e8:	e3a03000 	mov	r3, #0
    e0ec:	e50b300c 	str	r3, [fp, #-12]
    e0f0:	e59f013c 	ldr	r0, [pc, #316]	; e234 <HubPortReset+0x1c8>
    e0f4:	eb0029ce 	bl	18834 <MicroDelay>
    e0f8:	e55b3021 	ldrb	r3, [fp, #-33]	; 0xffffffdf
    e0fc:	e1a01003 	mov	r1, r3
    e100:	e51b0020 	ldr	r0, [fp, #-32]	; 0xffffffe0
    e104:	ebfffe9e 	bl	db84 <HubPortGetStatus>
    e108:	e1a03000 	mov	r3, r0
    e10c:	e54b3015 	strb	r3, [fp, #-21]	; 0xffffffeb
    e110:	e15b31d5 	ldrsb	r3, [fp, #-21]	; 0xffffffeb
    e114:	e3530000 	cmp	r3, #0
    e118:	0a000001 	beq	e124 <HubPortReset+0xb8>
    e11c:	e15b31d5 	ldrsb	r3, [fp, #-21]	; 0xffffffeb
    e120:	ea00003f 	b	e224 <HubPortReset+0x1b8>
    e124:	e51b300c 	ldr	r3, [fp, #-12]
    e128:	e2833001 	add	r3, r3, #1
    e12c:	e50b300c 	str	r3, [fp, #-12]
    e130:	e51b3014 	ldr	r3, [fp, #-20]	; 0xffffffec
    e134:	e5d33002 	ldrb	r3, [r3, #2]
    e138:	e2033010 	and	r3, r3, #16
    e13c:	e20330ff 	and	r3, r3, #255	; 0xff
    e140:	e3530000 	cmp	r3, #0
    e144:	1a000008 	bne	e16c <HubPortReset+0x100>
    e148:	e51b3014 	ldr	r3, [fp, #-20]	; 0xffffffec
    e14c:	e5d33000 	ldrb	r3, [r3]
    e150:	e2033002 	and	r3, r3, #2
    e154:	e20330ff 	and	r3, r3, #255	; 0xff
    e158:	e3530000 	cmp	r3, #0
    e15c:	1a000002 	bne	e16c <HubPortReset+0x100>
    e160:	e51b300c 	ldr	r3, [fp, #-12]
    e164:	e3530009 	cmp	r3, #9
    e168:	9affffe0 	bls	e0f0 <HubPortReset+0x84>
    e16c:	e51b300c 	ldr	r3, [fp, #-12]
    e170:	e353000a 	cmp	r3, #10
    e174:	0a000014 	beq	e1cc <HubPortReset+0x160>
    e178:	e51b3014 	ldr	r3, [fp, #-20]	; 0xffffffec
    e17c:	e5d33002 	ldrb	r3, [r3, #2]
    e180:	e2033001 	and	r3, r3, #1
    e184:	e20330ff 	and	r3, r3, #255	; 0xff
    e188:	e3530000 	cmp	r3, #0
    e18c:	1a000005 	bne	e1a8 <HubPortReset+0x13c>
    e190:	e51b3014 	ldr	r3, [fp, #-20]	; 0xffffffec
    e194:	e5d33000 	ldrb	r3, [r3]
    e198:	e2033001 	and	r3, r3, #1
    e19c:	e20330ff 	and	r3, r3, #255	; 0xff
    e1a0:	e3530000 	cmp	r3, #0
    e1a4:	1a000001 	bne	e1b0 <HubPortReset+0x144>
    e1a8:	e3e03003 	mvn	r3, #3
    e1ac:	ea00001c 	b	e224 <HubPortReset+0x1b8>
    e1b0:	e51b3014 	ldr	r3, [fp, #-20]	; 0xffffffec
    e1b4:	e5d33000 	ldrb	r3, [r3]
    e1b8:	e2033002 	and	r3, r3, #2
    e1bc:	e20330ff 	and	r3, r3, #255	; 0xff
    e1c0:	e3530000 	cmp	r3, #0
    e1c4:	1a000008 	bne	e1ec <HubPortReset+0x180>
    e1c8:	ea000000 	b	e1d0 <HubPortReset+0x164>
    e1cc:	e1a00000 	nop			; (mov r0, r0)
    e1d0:	e51b3008 	ldr	r3, [fp, #-8]
    e1d4:	e2833001 	add	r3, r3, #1
    e1d8:	e50b3008 	str	r3, [fp, #-8]
    e1dc:	e51b3008 	ldr	r3, [fp, #-8]
    e1e0:	e3530002 	cmp	r3, #2
    e1e4:	9affffb3 	bls	e0b8 <HubPortReset+0x4c>
    e1e8:	ea000000 	b	e1f0 <HubPortReset+0x184>
    e1ec:	e1a00000 	nop			; (mov r0, r0)
    e1f0:	e51b3008 	ldr	r3, [fp, #-8]
    e1f4:	e3530003 	cmp	r3, #3
    e1f8:	1a000001 	bne	e204 <HubPortReset+0x198>
    e1fc:	e3e03003 	mvn	r3, #3
    e200:	ea000007 	b	e224 <HubPortReset+0x1b8>
    e204:	e55b2021 	ldrb	r2, [fp, #-33]	; 0xffffffdf
    e208:	e3a03000 	mov	r3, #0
    e20c:	e3a01014 	mov	r1, #20
    e210:	e51b0020 	ldr	r0, [fp, #-32]	; 0xffffffe0
    e214:	ebfffefe 	bl	de14 <HubChangePortFeature>
    e218:	e1a03000 	mov	r3, r0
    e21c:	e54b3015 	strb	r3, [fp, #-21]	; 0xffffffeb
    e220:	e3a03000 	mov	r3, #0
    e224:	e1a00003 	mov	r0, r3
    e228:	e24bd004 	sub	sp, fp, #4
    e22c:	e8bd4800 	pop	{fp, lr}
    e230:	e12fff1e 	bx	lr
    e234:	00004e20 	.word	0x00004e20

0000e238 <HubPortConnectionChanged>:
    e238:	e92d4800 	push	{fp, lr}
    e23c:	e28db004 	add	fp, sp, #4
    e240:	e24dd018 	sub	sp, sp, #24
    e244:	e50b0018 	str	r0, [fp, #-24]	; 0xffffffe8
    e248:	e1a03001 	mov	r3, r1
    e24c:	e54b3019 	strb	r3, [fp, #-25]	; 0xffffffe7
    e250:	e51b3018 	ldr	r3, [fp, #-24]	; 0xffffffe8
    e254:	e5933414 	ldr	r3, [r3, #1044]	; 0x414
    e258:	e50b3008 	str	r3, [fp, #-8]
    e25c:	e55b3019 	ldrb	r3, [fp, #-25]	; 0xffffffe7
    e260:	e2833004 	add	r3, r3, #4
    e264:	e1a03103 	lsl	r3, r3, #2
    e268:	e51b2008 	ldr	r2, [fp, #-8]
    e26c:	e0823003 	add	r3, r2, r3
    e270:	e2833004 	add	r3, r3, #4
    e274:	e50b300c 	str	r3, [fp, #-12]
    e278:	e55b3019 	ldrb	r3, [fp, #-25]	; 0xffffffe7
    e27c:	e1a01003 	mov	r1, r3
    e280:	e51b0018 	ldr	r0, [fp, #-24]	; 0xffffffe8
    e284:	ebfffe3e 	bl	db84 <HubPortGetStatus>
    e288:	e1a03000 	mov	r3, r0
    e28c:	e54b300d 	strb	r3, [fp, #-13]
    e290:	e15b30dd 	ldrsb	r3, [fp, #-13]
    e294:	e3530000 	cmp	r3, #0
    e298:	0a000001 	beq	e2a4 <HubPortConnectionChanged+0x6c>
    e29c:	e15b30dd 	ldrsb	r3, [fp, #-13]
    e2a0:	ea000145 	b	e7bc <HubPortConnectionChanged+0x584>
    e2a4:	e55b2019 	ldrb	r2, [fp, #-25]	; 0xffffffe7
    e2a8:	e3a03000 	mov	r3, #0
    e2ac:	e3a01010 	mov	r1, #16
    e2b0:	e51b0018 	ldr	r0, [fp, #-24]	; 0xffffffe8
    e2b4:	ebfffed6 	bl	de14 <HubChangePortFeature>
    e2b8:	e1a03000 	mov	r3, r0
    e2bc:	e54b300d 	strb	r3, [fp, #-13]
    e2c0:	e51b300c 	ldr	r3, [fp, #-12]
    e2c4:	e5d33000 	ldrb	r3, [r3]
    e2c8:	e2033001 	and	r3, r3, #1
    e2cc:	e20330ff 	and	r3, r3, #255	; 0xff
    e2d0:	e3530000 	cmp	r3, #0
    e2d4:	1a000005 	bne	e2f0 <HubPortConnectionChanged+0xb8>
    e2d8:	e51b300c 	ldr	r3, [fp, #-12]
    e2dc:	e5d33000 	ldrb	r3, [r3]
    e2e0:	e2033002 	and	r3, r3, #2
    e2e4:	e20330ff 	and	r3, r3, #255	; 0xff
    e2e8:	e3530000 	cmp	r3, #0
    e2ec:	0a000016 	beq	e34c <HubPortConnectionChanged+0x114>
    e2f0:	e55b2019 	ldrb	r2, [fp, #-25]	; 0xffffffe7
    e2f4:	e51b3008 	ldr	r3, [fp, #-8]
    e2f8:	e282200e 	add	r2, r2, #14
    e2fc:	e1a01102 	lsl	r1, r2, #2
    e300:	e0831001 	add	r1, r3, r1
    e304:	e5d10004 	ldrb	r0, [r1, #4]
    e308:	e1a01102 	lsl	r1, r2, #2
    e30c:	e0831001 	add	r1, r3, r1
    e310:	e5d11005 	ldrb	r1, [r1, #5]
    e314:	e1a01401 	lsl	r1, r1, #8
    e318:	e1810000 	orr	r0, r1, r0
    e31c:	e1a01102 	lsl	r1, r2, #2
    e320:	e0831001 	add	r1, r3, r1
    e324:	e5d11006 	ldrb	r1, [r1, #6]
    e328:	e1a01801 	lsl	r1, r1, #16
    e32c:	e1811000 	orr	r1, r1, r0
    e330:	e1a02102 	lsl	r2, r2, #2
    e334:	e0832002 	add	r2, r3, r2
    e338:	e5d23007 	ldrb	r3, [r2, #7]
    e33c:	e1a03c03 	lsl	r3, r3, #24
    e340:	e1833001 	orr	r3, r3, r1
    e344:	e3530000 	cmp	r3, #0
    e348:	0a00002b 	beq	e3fc <HubPortConnectionChanged+0x1c4>
    e34c:	e55b2019 	ldrb	r2, [fp, #-25]	; 0xffffffe7
    e350:	e51b3008 	ldr	r3, [fp, #-8]
    e354:	e282200e 	add	r2, r2, #14
    e358:	e1a01102 	lsl	r1, r2, #2
    e35c:	e0831001 	add	r1, r3, r1
    e360:	e5d10004 	ldrb	r0, [r1, #4]
    e364:	e1a01102 	lsl	r1, r2, #2
    e368:	e0831001 	add	r1, r3, r1
    e36c:	e5d11005 	ldrb	r1, [r1, #5]
    e370:	e1a01401 	lsl	r1, r1, #8
    e374:	e1810000 	orr	r0, r1, r0
    e378:	e1a01102 	lsl	r1, r2, #2
    e37c:	e0831001 	add	r1, r3, r1
    e380:	e5d11006 	ldrb	r1, [r1, #6]
    e384:	e1a01801 	lsl	r1, r1, #16
    e388:	e1811000 	orr	r1, r1, r0
    e38c:	e1a02102 	lsl	r2, r2, #2
    e390:	e0832002 	add	r2, r3, r2
    e394:	e5d23007 	ldrb	r3, [r2, #7]
    e398:	e1a03c03 	lsl	r3, r3, #24
    e39c:	e1833001 	orr	r3, r3, r1
    e3a0:	e1a00003 	mov	r0, r3
    e3a4:	ebfffc79 	bl	d590 <UsbDeallocateDevice>
    e3a8:	e55b3019 	ldrb	r3, [fp, #-25]	; 0xffffffe7
    e3ac:	e51b2008 	ldr	r2, [fp, #-8]
    e3b0:	e283300e 	add	r3, r3, #14
    e3b4:	e1a03103 	lsl	r3, r3, #2
    e3b8:	e0823003 	add	r3, r2, r3
    e3bc:	e3a02000 	mov	r2, #0
    e3c0:	e5c32004 	strb	r2, [r3, #4]
    e3c4:	e3a02000 	mov	r2, #0
    e3c8:	e5c32005 	strb	r2, [r3, #5]
    e3cc:	e3a02000 	mov	r2, #0
    e3d0:	e5c32006 	strb	r2, [r3, #6]
    e3d4:	e3a02000 	mov	r2, #0
    e3d8:	e5c32007 	strb	r2, [r3, #7]
    e3dc:	e51b300c 	ldr	r3, [fp, #-12]
    e3e0:	e5d33000 	ldrb	r3, [r3]
    e3e4:	e2033001 	and	r3, r3, #1
    e3e8:	e20330ff 	and	r3, r3, #255	; 0xff
    e3ec:	e3530000 	cmp	r3, #0
    e3f0:	1a000001 	bne	e3fc <HubPortConnectionChanged+0x1c4>
    e3f4:	e3a03000 	mov	r3, #0
    e3f8:	ea0000ef 	b	e7bc <HubPortConnectionChanged+0x584>
    e3fc:	e55b3019 	ldrb	r3, [fp, #-25]	; 0xffffffe7
    e400:	e1a01003 	mov	r1, r3
    e404:	e51b0018 	ldr	r0, [fp, #-24]	; 0xffffffe8
    e408:	ebffff17 	bl	e06c <HubPortReset>
    e40c:	e1a03000 	mov	r3, r0
    e410:	e54b300d 	strb	r3, [fp, #-13]
    e414:	e15b30dd 	ldrsb	r3, [fp, #-13]
    e418:	e3530000 	cmp	r3, #0
    e41c:	0a000001 	beq	e428 <HubPortConnectionChanged+0x1f0>
    e420:	e15b30dd 	ldrsb	r3, [fp, #-13]
    e424:	ea0000e4 	b	e7bc <HubPortConnectionChanged+0x584>
    e428:	e55b3019 	ldrb	r3, [fp, #-25]	; 0xffffffe7
    e42c:	e283300e 	add	r3, r3, #14
    e430:	e1a03103 	lsl	r3, r3, #2
    e434:	e51b2008 	ldr	r2, [fp, #-8]
    e438:	e0823003 	add	r3, r2, r3
    e43c:	e2833004 	add	r3, r3, #4
    e440:	e1a00003 	mov	r0, r3
    e444:	ebfffbee 	bl	d404 <UsbAllocateDevice>
    e448:	e1a03000 	mov	r3, r0
    e44c:	e54b300d 	strb	r3, [fp, #-13]
    e450:	e15b30dd 	ldrsb	r3, [fp, #-13]
    e454:	e3530000 	cmp	r3, #0
    e458:	0a000001 	beq	e464 <HubPortConnectionChanged+0x22c>
    e45c:	e15b30dd 	ldrsb	r3, [fp, #-13]
    e460:	ea0000d5 	b	e7bc <HubPortConnectionChanged+0x584>
    e464:	e55b3019 	ldrb	r3, [fp, #-25]	; 0xffffffe7
    e468:	e1a01003 	mov	r1, r3
    e46c:	e51b0018 	ldr	r0, [fp, #-24]	; 0xffffffe8
    e470:	ebfffdc3 	bl	db84 <HubPortGetStatus>
    e474:	e1a03000 	mov	r3, r0
    e478:	e54b300d 	strb	r3, [fp, #-13]
    e47c:	e15b30dd 	ldrsb	r3, [fp, #-13]
    e480:	e3530000 	cmp	r3, #0
    e484:	0a000001 	beq	e490 <HubPortConnectionChanged+0x258>
    e488:	e15b30dd 	ldrsb	r3, [fp, #-13]
    e48c:	ea0000ca 	b	e7bc <HubPortConnectionChanged+0x584>
    e490:	e51b300c 	ldr	r3, [fp, #-12]
    e494:	e5d33001 	ldrb	r3, [r3, #1]
    e498:	e2033004 	and	r3, r3, #4
    e49c:	e20330ff 	and	r3, r3, #255	; 0xff
    e4a0:	e3530000 	cmp	r3, #0
    e4a4:	0a000017 	beq	e508 <HubPortConnectionChanged+0x2d0>
    e4a8:	e55b2019 	ldrb	r2, [fp, #-25]	; 0xffffffe7
    e4ac:	e51b3008 	ldr	r3, [fp, #-8]
    e4b0:	e282200e 	add	r2, r2, #14
    e4b4:	e1a01102 	lsl	r1, r2, #2
    e4b8:	e0831001 	add	r1, r3, r1
    e4bc:	e5d10004 	ldrb	r0, [r1, #4]
    e4c0:	e1a01102 	lsl	r1, r2, #2
    e4c4:	e0831001 	add	r1, r3, r1
    e4c8:	e5d11005 	ldrb	r1, [r1, #5]
    e4cc:	e1a01401 	lsl	r1, r1, #8
    e4d0:	e1810000 	orr	r0, r1, r0
    e4d4:	e1a01102 	lsl	r1, r2, #2
    e4d8:	e0831001 	add	r1, r3, r1
    e4dc:	e5d11006 	ldrb	r1, [r1, #6]
    e4e0:	e1a01801 	lsl	r1, r1, #16
    e4e4:	e1811000 	orr	r1, r1, r0
    e4e8:	e1a02102 	lsl	r2, r2, #2
    e4ec:	e0832002 	add	r2, r3, r2
    e4f0:	e5d23007 	ldrb	r3, [r2, #7]
    e4f4:	e1a03c03 	lsl	r3, r3, #24
    e4f8:	e1833001 	orr	r3, r3, r1
    e4fc:	e3a02000 	mov	r2, #0
    e500:	e5c32004 	strb	r2, [r3, #4]
    e504:	ea000034 	b	e5dc <HubPortConnectionChanged+0x3a4>
    e508:	e51b300c 	ldr	r3, [fp, #-12]
    e50c:	e5d33001 	ldrb	r3, [r3, #1]
    e510:	e2033002 	and	r3, r3, #2
    e514:	e20330ff 	and	r3, r3, #255	; 0xff
    e518:	e3530000 	cmp	r3, #0
    e51c:	0a000017 	beq	e580 <HubPortConnectionChanged+0x348>
    e520:	e55b2019 	ldrb	r2, [fp, #-25]	; 0xffffffe7
    e524:	e51b3008 	ldr	r3, [fp, #-8]
    e528:	e282200e 	add	r2, r2, #14
    e52c:	e1a01102 	lsl	r1, r2, #2
    e530:	e0831001 	add	r1, r3, r1
    e534:	e5d10004 	ldrb	r0, [r1, #4]
    e538:	e1a01102 	lsl	r1, r2, #2
    e53c:	e0831001 	add	r1, r3, r1
    e540:	e5d11005 	ldrb	r1, [r1, #5]
    e544:	e1a01401 	lsl	r1, r1, #8
    e548:	e1810000 	orr	r0, r1, r0
    e54c:	e1a01102 	lsl	r1, r2, #2
    e550:	e0831001 	add	r1, r3, r1
    e554:	e5d11006 	ldrb	r1, [r1, #6]
    e558:	e1a01801 	lsl	r1, r1, #16
    e55c:	e1811000 	orr	r1, r1, r0
    e560:	e1a02102 	lsl	r2, r2, #2
    e564:	e0832002 	add	r2, r3, r2
    e568:	e5d23007 	ldrb	r3, [r2, #7]
    e56c:	e1a03c03 	lsl	r3, r3, #24
    e570:	e1833001 	orr	r3, r3, r1
    e574:	e3a02002 	mov	r2, #2
    e578:	e5c32004 	strb	r2, [r3, #4]
    e57c:	ea000016 	b	e5dc <HubPortConnectionChanged+0x3a4>
    e580:	e55b2019 	ldrb	r2, [fp, #-25]	; 0xffffffe7
    e584:	e51b3008 	ldr	r3, [fp, #-8]
    e588:	e282200e 	add	r2, r2, #14
    e58c:	e1a01102 	lsl	r1, r2, #2
    e590:	e0831001 	add	r1, r3, r1
    e594:	e5d10004 	ldrb	r0, [r1, #4]
    e598:	e1a01102 	lsl	r1, r2, #2
    e59c:	e0831001 	add	r1, r3, r1
    e5a0:	e5d11005 	ldrb	r1, [r1, #5]
    e5a4:	e1a01401 	lsl	r1, r1, #8
    e5a8:	e1810000 	orr	r0, r1, r0
    e5ac:	e1a01102 	lsl	r1, r2, #2
    e5b0:	e0831001 	add	r1, r3, r1
    e5b4:	e5d11006 	ldrb	r1, [r1, #6]
    e5b8:	e1a01801 	lsl	r1, r1, #16
    e5bc:	e1811000 	orr	r1, r1, r0
    e5c0:	e1a02102 	lsl	r2, r2, #2
    e5c4:	e0832002 	add	r2, r3, r2
    e5c8:	e5d23007 	ldrb	r3, [r2, #7]
    e5cc:	e1a03c03 	lsl	r3, r3, #24
    e5d0:	e1833001 	orr	r3, r3, r1
    e5d4:	e3a02001 	mov	r2, #1
    e5d8:	e5c32004 	strb	r2, [r3, #4]
    e5dc:	e55b2019 	ldrb	r2, [fp, #-25]	; 0xffffffe7
    e5e0:	e51b3008 	ldr	r3, [fp, #-8]
    e5e4:	e282200e 	add	r2, r2, #14
    e5e8:	e1a01102 	lsl	r1, r2, #2
    e5ec:	e0831001 	add	r1, r3, r1
    e5f0:	e5d10004 	ldrb	r0, [r1, #4]
    e5f4:	e1a01102 	lsl	r1, r2, #2
    e5f8:	e0831001 	add	r1, r3, r1
    e5fc:	e5d11005 	ldrb	r1, [r1, #5]
    e600:	e1a01401 	lsl	r1, r1, #8
    e604:	e1810000 	orr	r0, r1, r0
    e608:	e1a01102 	lsl	r1, r2, #2
    e60c:	e0831001 	add	r1, r3, r1
    e610:	e5d11006 	ldrb	r1, [r1, #6]
    e614:	e1a01801 	lsl	r1, r1, #16
    e618:	e1811000 	orr	r1, r1, r0
    e61c:	e1a02102 	lsl	r2, r2, #2
    e620:	e0832002 	add	r2, r3, r2
    e624:	e5d23007 	ldrb	r3, [r2, #7]
    e628:	e1a03c03 	lsl	r3, r3, #24
    e62c:	e1833001 	orr	r3, r3, r1
    e630:	e1a02003 	mov	r2, r3
    e634:	e51b3018 	ldr	r3, [fp, #-24]	; 0xffffffe8
    e638:	e582340c 	str	r3, [r2, #1036]	; 0x40c
    e63c:	e55b2019 	ldrb	r2, [fp, #-25]	; 0xffffffe7
    e640:	e51b3008 	ldr	r3, [fp, #-8]
    e644:	e282200e 	add	r2, r2, #14
    e648:	e1a01102 	lsl	r1, r2, #2
    e64c:	e0831001 	add	r1, r3, r1
    e650:	e5d10004 	ldrb	r0, [r1, #4]
    e654:	e1a01102 	lsl	r1, r2, #2
    e658:	e0831001 	add	r1, r3, r1
    e65c:	e5d11005 	ldrb	r1, [r1, #5]
    e660:	e1a01401 	lsl	r1, r1, #8
    e664:	e1810000 	orr	r0, r1, r0
    e668:	e1a01102 	lsl	r1, r2, #2
    e66c:	e0831001 	add	r1, r3, r1
    e670:	e5d11006 	ldrb	r1, [r1, #6]
    e674:	e1a01801 	lsl	r1, r1, #16
    e678:	e1811000 	orr	r1, r1, r0
    e67c:	e1a02102 	lsl	r2, r2, #2
    e680:	e0832002 	add	r2, r3, r2
    e684:	e5d23007 	ldrb	r3, [r2, #7]
    e688:	e1a03c03 	lsl	r3, r3, #24
    e68c:	e1833001 	orr	r3, r3, r1
    e690:	e1a02003 	mov	r2, r3
    e694:	e55b3019 	ldrb	r3, [fp, #-25]	; 0xffffffe7
    e698:	e5c23007 	strb	r3, [r2, #7]
    e69c:	e55b2019 	ldrb	r2, [fp, #-25]	; 0xffffffe7
    e6a0:	e51b3008 	ldr	r3, [fp, #-8]
    e6a4:	e282200e 	add	r2, r2, #14
    e6a8:	e1a01102 	lsl	r1, r2, #2
    e6ac:	e0831001 	add	r1, r3, r1
    e6b0:	e5d10004 	ldrb	r0, [r1, #4]
    e6b4:	e1a01102 	lsl	r1, r2, #2
    e6b8:	e0831001 	add	r1, r3, r1
    e6bc:	e5d11005 	ldrb	r1, [r1, #5]
    e6c0:	e1a01401 	lsl	r1, r1, #8
    e6c4:	e1810000 	orr	r0, r1, r0
    e6c8:	e1a01102 	lsl	r1, r2, #2
    e6cc:	e0831001 	add	r1, r3, r1
    e6d0:	e5d11006 	ldrb	r1, [r1, #6]
    e6d4:	e1a01801 	lsl	r1, r1, #16
    e6d8:	e1811000 	orr	r1, r1, r0
    e6dc:	e1a02102 	lsl	r2, r2, #2
    e6e0:	e0832002 	add	r2, r3, r2
    e6e4:	e5d23007 	ldrb	r3, [r2, #7]
    e6e8:	e1a03c03 	lsl	r3, r3, #24
    e6ec:	e1833001 	orr	r3, r3, r1
    e6f0:	e1a00003 	mov	r0, r3
    e6f4:	ebfffa5e 	bl	d074 <UsbAttachDevice>
    e6f8:	e1a03000 	mov	r3, r0
    e6fc:	e54b300d 	strb	r3, [fp, #-13]
    e700:	e15b30dd 	ldrsb	r3, [fp, #-13]
    e704:	e3530000 	cmp	r3, #0
    e708:	0a00002a 	beq	e7b8 <HubPortConnectionChanged+0x580>
    e70c:	e55b2019 	ldrb	r2, [fp, #-25]	; 0xffffffe7
    e710:	e51b3008 	ldr	r3, [fp, #-8]
    e714:	e282200e 	add	r2, r2, #14
    e718:	e1a01102 	lsl	r1, r2, #2
    e71c:	e0831001 	add	r1, r3, r1
    e720:	e5d10004 	ldrb	r0, [r1, #4]
    e724:	e1a01102 	lsl	r1, r2, #2
    e728:	e0831001 	add	r1, r3, r1
    e72c:	e5d11005 	ldrb	r1, [r1, #5]
    e730:	e1a01401 	lsl	r1, r1, #8
    e734:	e1810000 	orr	r0, r1, r0
    e738:	e1a01102 	lsl	r1, r2, #2
    e73c:	e0831001 	add	r1, r3, r1
    e740:	e5d11006 	ldrb	r1, [r1, #6]
    e744:	e1a01801 	lsl	r1, r1, #16
    e748:	e1811000 	orr	r1, r1, r0
    e74c:	e1a02102 	lsl	r2, r2, #2
    e750:	e0832002 	add	r2, r3, r2
    e754:	e5d23007 	ldrb	r3, [r2, #7]
    e758:	e1a03c03 	lsl	r3, r3, #24
    e75c:	e1833001 	orr	r3, r3, r1
    e760:	e1a00003 	mov	r0, r3
    e764:	ebfffb89 	bl	d590 <UsbDeallocateDevice>
    e768:	e55b3019 	ldrb	r3, [fp, #-25]	; 0xffffffe7
    e76c:	e51b2008 	ldr	r2, [fp, #-8]
    e770:	e283300e 	add	r3, r3, #14
    e774:	e1a03103 	lsl	r3, r3, #2
    e778:	e0823003 	add	r3, r2, r3
    e77c:	e3a02000 	mov	r2, #0
    e780:	e5c32004 	strb	r2, [r3, #4]
    e784:	e3a02000 	mov	r2, #0
    e788:	e5c32005 	strb	r2, [r3, #5]
    e78c:	e3a02000 	mov	r2, #0
    e790:	e5c32006 	strb	r2, [r3, #6]
    e794:	e3a02000 	mov	r2, #0
    e798:	e5c32007 	strb	r2, [r3, #7]
    e79c:	e55b2019 	ldrb	r2, [fp, #-25]	; 0xffffffe7
    e7a0:	e3a03000 	mov	r3, #0
    e7a4:	e3a01001 	mov	r1, #1
    e7a8:	e51b0018 	ldr	r0, [fp, #-24]	; 0xffffffe8
    e7ac:	ebfffd98 	bl	de14 <HubChangePortFeature>
    e7b0:	e15b30dd 	ldrsb	r3, [fp, #-13]
    e7b4:	ea000000 	b	e7bc <HubPortConnectionChanged+0x584>
    e7b8:	e3a03000 	mov	r3, #0
    e7bc:	e1a00003 	mov	r0, r3
    e7c0:	e24bd004 	sub	sp, fp, #4
    e7c4:	e8bd4800 	pop	{fp, lr}
    e7c8:	e12fff1e 	bx	lr

0000e7cc <HubDetached>:
    e7cc:	e92d4810 	push	{r4, fp, lr}
    e7d0:	e28db008 	add	fp, sp, #8
    e7d4:	e24dd014 	sub	sp, sp, #20
    e7d8:	e50b0018 	str	r0, [fp, #-24]	; 0xffffffe8
    e7dc:	e51b3018 	ldr	r3, [fp, #-24]	; 0xffffffe8
    e7e0:	e5933414 	ldr	r3, [r3, #1044]	; 0x414
    e7e4:	e3530000 	cmp	r3, #0
    e7e8:	0a000074 	beq	e9c0 <HubDetached+0x1f4>
    e7ec:	e51b3018 	ldr	r3, [fp, #-24]	; 0xffffffe8
    e7f0:	e5933414 	ldr	r3, [r3, #1044]	; 0x414
    e7f4:	e50b3014 	str	r3, [fp, #-20]	; 0xffffffec
    e7f8:	e3a03000 	mov	r3, #0
    e7fc:	e50b3010 	str	r3, [fp, #-16]
    e800:	ea00005f 	b	e984 <HubDetached+0x1b8>
    e804:	e51b3014 	ldr	r3, [fp, #-20]	; 0xffffffec
    e808:	e51b2010 	ldr	r2, [fp, #-16]
    e80c:	e282200e 	add	r2, r2, #14
    e810:	e1a01102 	lsl	r1, r2, #2
    e814:	e0831001 	add	r1, r3, r1
    e818:	e5d10004 	ldrb	r0, [r1, #4]
    e81c:	e1a01102 	lsl	r1, r2, #2
    e820:	e0831001 	add	r1, r3, r1
    e824:	e5d11005 	ldrb	r1, [r1, #5]
    e828:	e1a01401 	lsl	r1, r1, #8
    e82c:	e1810000 	orr	r0, r1, r0
    e830:	e1a01102 	lsl	r1, r2, #2
    e834:	e0831001 	add	r1, r3, r1
    e838:	e5d11006 	ldrb	r1, [r1, #6]
    e83c:	e1a01801 	lsl	r1, r1, #16
    e840:	e1811000 	orr	r1, r1, r0
    e844:	e1a02102 	lsl	r2, r2, #2
    e848:	e0832002 	add	r2, r3, r2
    e84c:	e5d23007 	ldrb	r3, [r2, #7]
    e850:	e1a03c03 	lsl	r3, r3, #24
    e854:	e1833001 	orr	r3, r3, r1
    e858:	e3530000 	cmp	r3, #0
    e85c:	0a000045 	beq	e978 <HubDetached+0x1ac>
    e860:	e51b3014 	ldr	r3, [fp, #-20]	; 0xffffffec
    e864:	e51b2010 	ldr	r2, [fp, #-16]
    e868:	e282200e 	add	r2, r2, #14
    e86c:	e1a01102 	lsl	r1, r2, #2
    e870:	e0831001 	add	r1, r3, r1
    e874:	e5d10004 	ldrb	r0, [r1, #4]
    e878:	e1a01102 	lsl	r1, r2, #2
    e87c:	e0831001 	add	r1, r3, r1
    e880:	e5d11005 	ldrb	r1, [r1, #5]
    e884:	e1a01401 	lsl	r1, r1, #8
    e888:	e1810000 	orr	r0, r1, r0
    e88c:	e1a01102 	lsl	r1, r2, #2
    e890:	e0831001 	add	r1, r3, r1
    e894:	e5d11006 	ldrb	r1, [r1, #6]
    e898:	e1a01801 	lsl	r1, r1, #16
    e89c:	e1811000 	orr	r1, r1, r0
    e8a0:	e1a02102 	lsl	r2, r2, #2
    e8a4:	e0832002 	add	r2, r3, r2
    e8a8:	e5d23007 	ldrb	r3, [r2, #7]
    e8ac:	e1a03c03 	lsl	r3, r3, #24
    e8b0:	e1833001 	orr	r3, r3, r1
    e8b4:	e593300c 	ldr	r3, [r3, #12]
    e8b8:	e3530000 	cmp	r3, #0
    e8bc:	0a00002d 	beq	e978 <HubDetached+0x1ac>
    e8c0:	e51b3014 	ldr	r3, [fp, #-20]	; 0xffffffec
    e8c4:	e51b2010 	ldr	r2, [fp, #-16]
    e8c8:	e282200e 	add	r2, r2, #14
    e8cc:	e1a01102 	lsl	r1, r2, #2
    e8d0:	e0831001 	add	r1, r3, r1
    e8d4:	e5d10004 	ldrb	r0, [r1, #4]
    e8d8:	e1a01102 	lsl	r1, r2, #2
    e8dc:	e0831001 	add	r1, r3, r1
    e8e0:	e5d11005 	ldrb	r1, [r1, #5]
    e8e4:	e1a01401 	lsl	r1, r1, #8
    e8e8:	e1810000 	orr	r0, r1, r0
    e8ec:	e1a01102 	lsl	r1, r2, #2
    e8f0:	e0831001 	add	r1, r3, r1
    e8f4:	e5d11006 	ldrb	r1, [r1, #6]
    e8f8:	e1a01801 	lsl	r1, r1, #16
    e8fc:	e1811000 	orr	r1, r1, r0
    e900:	e1a02102 	lsl	r2, r2, #2
    e904:	e0832002 	add	r2, r3, r2
    e908:	e5d23007 	ldrb	r3, [r2, #7]
    e90c:	e1a03c03 	lsl	r3, r3, #24
    e910:	e1833001 	orr	r3, r3, r1
    e914:	e593400c 	ldr	r4, [r3, #12]
    e918:	e51b3014 	ldr	r3, [fp, #-20]	; 0xffffffec
    e91c:	e51b2010 	ldr	r2, [fp, #-16]
    e920:	e282200e 	add	r2, r2, #14
    e924:	e1a01102 	lsl	r1, r2, #2
    e928:	e0831001 	add	r1, r3, r1
    e92c:	e5d10004 	ldrb	r0, [r1, #4]
    e930:	e1a01102 	lsl	r1, r2, #2
    e934:	e0831001 	add	r1, r3, r1
    e938:	e5d11005 	ldrb	r1, [r1, #5]
    e93c:	e1a01401 	lsl	r1, r1, #8
    e940:	e1810000 	orr	r0, r1, r0
    e944:	e1a01102 	lsl	r1, r2, #2
    e948:	e0831001 	add	r1, r3, r1
    e94c:	e5d11006 	ldrb	r1, [r1, #6]
    e950:	e1a01801 	lsl	r1, r1, #16
    e954:	e1811000 	orr	r1, r1, r0
    e958:	e1a02102 	lsl	r2, r2, #2
    e95c:	e0832002 	add	r2, r3, r2
    e960:	e5d23007 	ldrb	r3, [r2, #7]
    e964:	e1a03c03 	lsl	r3, r3, #24
    e968:	e1833001 	orr	r3, r3, r1
    e96c:	e1a00003 	mov	r0, r3
    e970:	e1a0e00f 	mov	lr, pc
    e974:	e12fff14 	bx	r4
    e978:	e51b3010 	ldr	r3, [fp, #-16]
    e97c:	e2833001 	add	r3, r3, #1
    e980:	e50b3010 	str	r3, [fp, #-16]
    e984:	e51b3014 	ldr	r3, [fp, #-20]	; 0xffffffec
    e988:	e5d32010 	ldrb	r2, [r3, #16]
    e98c:	e5d31011 	ldrb	r1, [r3, #17]
    e990:	e1a01401 	lsl	r1, r1, #8
    e994:	e1812002 	orr	r2, r1, r2
    e998:	e5d31012 	ldrb	r1, [r3, #18]
    e99c:	e1a01801 	lsl	r1, r1, #16
    e9a0:	e1812002 	orr	r2, r1, r2
    e9a4:	e5d33013 	ldrb	r3, [r3, #19]
    e9a8:	e1a03c03 	lsl	r3, r3, #24
    e9ac:	e1833002 	orr	r3, r3, r2
    e9b0:	e1a02003 	mov	r2, r3
    e9b4:	e51b3010 	ldr	r3, [fp, #-16]
    e9b8:	e1520003 	cmp	r2, r3
    e9bc:	8affff90 	bhi	e804 <HubDetached+0x38>
    e9c0:	e1a00000 	nop			; (mov r0, r0)
    e9c4:	e24bd008 	sub	sp, fp, #8
    e9c8:	e8bd4810 	pop	{r4, fp, lr}
    e9cc:	e12fff1e 	bx	lr

0000e9d0 <HubDeallocate>:
    e9d0:	e92d4800 	push	{fp, lr}
    e9d4:	e28db004 	add	fp, sp, #4
    e9d8:	e24dd010 	sub	sp, sp, #16
    e9dc:	e50b0010 	str	r0, [fp, #-16]
    e9e0:	e51b3010 	ldr	r3, [fp, #-16]
    e9e4:	e5933414 	ldr	r3, [r3, #1044]	; 0x414
    e9e8:	e3530000 	cmp	r3, #0
    e9ec:	0a000070 	beq	ebb4 <HubDeallocate+0x1e4>
    e9f0:	e51b3010 	ldr	r3, [fp, #-16]
    e9f4:	e5933414 	ldr	r3, [r3, #1044]	; 0x414
    e9f8:	e50b300c 	str	r3, [fp, #-12]
    e9fc:	e3a03000 	mov	r3, #0
    ea00:	e50b3008 	str	r3, [fp, #-8]
    ea04:	ea00003d 	b	eb00 <HubDeallocate+0x130>
    ea08:	e51b300c 	ldr	r3, [fp, #-12]
    ea0c:	e51b2008 	ldr	r2, [fp, #-8]
    ea10:	e282200e 	add	r2, r2, #14
    ea14:	e1a01102 	lsl	r1, r2, #2
    ea18:	e0831001 	add	r1, r3, r1
    ea1c:	e5d10004 	ldrb	r0, [r1, #4]
    ea20:	e1a01102 	lsl	r1, r2, #2
    ea24:	e0831001 	add	r1, r3, r1
    ea28:	e5d11005 	ldrb	r1, [r1, #5]
    ea2c:	e1a01401 	lsl	r1, r1, #8
    ea30:	e1810000 	orr	r0, r1, r0
    ea34:	e1a01102 	lsl	r1, r2, #2
    ea38:	e0831001 	add	r1, r3, r1
    ea3c:	e5d11006 	ldrb	r1, [r1, #6]
    ea40:	e1a01801 	lsl	r1, r1, #16
    ea44:	e1811000 	orr	r1, r1, r0
    ea48:	e1a02102 	lsl	r2, r2, #2
    ea4c:	e0832002 	add	r2, r3, r2
    ea50:	e5d23007 	ldrb	r3, [r2, #7]
    ea54:	e1a03c03 	lsl	r3, r3, #24
    ea58:	e1833001 	orr	r3, r3, r1
    ea5c:	e3530000 	cmp	r3, #0
    ea60:	0a000023 	beq	eaf4 <HubDeallocate+0x124>
    ea64:	e51b300c 	ldr	r3, [fp, #-12]
    ea68:	e51b2008 	ldr	r2, [fp, #-8]
    ea6c:	e282200e 	add	r2, r2, #14
    ea70:	e1a01102 	lsl	r1, r2, #2
    ea74:	e0831001 	add	r1, r3, r1
    ea78:	e5d10004 	ldrb	r0, [r1, #4]
    ea7c:	e1a01102 	lsl	r1, r2, #2
    ea80:	e0831001 	add	r1, r3, r1
    ea84:	e5d11005 	ldrb	r1, [r1, #5]
    ea88:	e1a01401 	lsl	r1, r1, #8
    ea8c:	e1810000 	orr	r0, r1, r0
    ea90:	e1a01102 	lsl	r1, r2, #2
    ea94:	e0831001 	add	r1, r3, r1
    ea98:	e5d11006 	ldrb	r1, [r1, #6]
    ea9c:	e1a01801 	lsl	r1, r1, #16
    eaa0:	e1811000 	orr	r1, r1, r0
    eaa4:	e1a02102 	lsl	r2, r2, #2
    eaa8:	e0832002 	add	r2, r3, r2
    eaac:	e5d23007 	ldrb	r3, [r2, #7]
    eab0:	e1a03c03 	lsl	r3, r3, #24
    eab4:	e1833001 	orr	r3, r3, r1
    eab8:	e1a00003 	mov	r0, r3
    eabc:	ebfffab3 	bl	d590 <UsbDeallocateDevice>
    eac0:	e51b200c 	ldr	r2, [fp, #-12]
    eac4:	e51b3008 	ldr	r3, [fp, #-8]
    eac8:	e283300e 	add	r3, r3, #14
    eacc:	e1a03103 	lsl	r3, r3, #2
    ead0:	e0823003 	add	r3, r2, r3
    ead4:	e3a02000 	mov	r2, #0
    ead8:	e5c32004 	strb	r2, [r3, #4]
    eadc:	e3a02000 	mov	r2, #0
    eae0:	e5c32005 	strb	r2, [r3, #5]
    eae4:	e3a02000 	mov	r2, #0
    eae8:	e5c32006 	strb	r2, [r3, #6]
    eaec:	e3a02000 	mov	r2, #0
    eaf0:	e5c32007 	strb	r2, [r3, #7]
    eaf4:	e51b3008 	ldr	r3, [fp, #-8]
    eaf8:	e2833001 	add	r3, r3, #1
    eafc:	e50b3008 	str	r3, [fp, #-8]
    eb00:	e51b300c 	ldr	r3, [fp, #-12]
    eb04:	e5d32010 	ldrb	r2, [r3, #16]
    eb08:	e5d31011 	ldrb	r1, [r3, #17]
    eb0c:	e1a01401 	lsl	r1, r1, #8
    eb10:	e1812002 	orr	r2, r1, r2
    eb14:	e5d31012 	ldrb	r1, [r3, #18]
    eb18:	e1a01801 	lsl	r1, r1, #16
    eb1c:	e1812002 	orr	r2, r1, r2
    eb20:	e5d33013 	ldrb	r3, [r3, #19]
    eb24:	e1a03c03 	lsl	r3, r3, #24
    eb28:	e1833002 	orr	r3, r3, r2
    eb2c:	e1a02003 	mov	r2, r3
    eb30:	e51b3008 	ldr	r3, [fp, #-8]
    eb34:	e1520003 	cmp	r2, r3
    eb38:	8affffb2 	bhi	ea08 <HubDeallocate+0x38>
    eb3c:	e51b300c 	ldr	r3, [fp, #-12]
    eb40:	e5d3200c 	ldrb	r2, [r3, #12]
    eb44:	e5d3100d 	ldrb	r1, [r3, #13]
    eb48:	e1a01401 	lsl	r1, r1, #8
    eb4c:	e1812002 	orr	r2, r1, r2
    eb50:	e5d3100e 	ldrb	r1, [r3, #14]
    eb54:	e1a01801 	lsl	r1, r1, #16
    eb58:	e1812002 	orr	r2, r1, r2
    eb5c:	e5d3300f 	ldrb	r3, [r3, #15]
    eb60:	e1a03c03 	lsl	r3, r3, #24
    eb64:	e1833002 	orr	r3, r3, r2
    eb68:	e3530000 	cmp	r3, #0
    eb6c:	0a00000c 	beq	eba4 <HubDeallocate+0x1d4>
    eb70:	e51b300c 	ldr	r3, [fp, #-12]
    eb74:	e5d3200c 	ldrb	r2, [r3, #12]
    eb78:	e5d3100d 	ldrb	r1, [r3, #13]
    eb7c:	e1a01401 	lsl	r1, r1, #8
    eb80:	e1812002 	orr	r2, r1, r2
    eb84:	e5d3100e 	ldrb	r1, [r3, #14]
    eb88:	e1a01801 	lsl	r1, r1, #16
    eb8c:	e1812002 	orr	r2, r1, r2
    eb90:	e5d3300f 	ldrb	r3, [r3, #15]
    eb94:	e1a03c03 	lsl	r3, r3, #24
    eb98:	e1833002 	orr	r3, r3, r2
    eb9c:	e1a00003 	mov	r0, r3
    eba0:	ebfff381 	bl	b9ac <MemoryDeallocate>
    eba4:	e51b3010 	ldr	r3, [fp, #-16]
    eba8:	e5933414 	ldr	r3, [r3, #1044]	; 0x414
    ebac:	e1a00003 	mov	r0, r3
    ebb0:	ebfff37d 	bl	b9ac <MemoryDeallocate>
    ebb4:	e51b3010 	ldr	r3, [fp, #-16]
    ebb8:	e3a02000 	mov	r2, #0
    ebbc:	e5832010 	str	r2, [r3, #16]
    ebc0:	e51b3010 	ldr	r3, [fp, #-16]
    ebc4:	e3a02000 	mov	r2, #0
    ebc8:	e583200c 	str	r2, [r3, #12]
    ebcc:	e51b3010 	ldr	r3, [fp, #-16]
    ebd0:	e3a02000 	mov	r2, #0
    ebd4:	e5832014 	str	r2, [r3, #20]
    ebd8:	e51b3010 	ldr	r3, [fp, #-16]
    ebdc:	e3a02000 	mov	r2, #0
    ebe0:	e5832018 	str	r2, [r3, #24]
    ebe4:	e51b3010 	ldr	r3, [fp, #-16]
    ebe8:	e3a02000 	mov	r2, #0
    ebec:	e583201c 	str	r2, [r3, #28]
    ebf0:	e51b3010 	ldr	r3, [fp, #-16]
    ebf4:	e3a02000 	mov	r2, #0
    ebf8:	e5832020 	str	r2, [r3, #32]
    ebfc:	e1a00000 	nop			; (mov r0, r0)
    ec00:	e24bd004 	sub	sp, fp, #4
    ec04:	e8bd4800 	pop	{fp, lr}
    ec08:	e12fff1e 	bx	lr

0000ec0c <HubCheckForChange>:
    ec0c:	e92d4810 	push	{r4, fp, lr}
    ec10:	e28db008 	add	fp, sp, #8
    ec14:	e24dd014 	sub	sp, sp, #20
    ec18:	e50b0018 	str	r0, [fp, #-24]	; 0xffffffe8
    ec1c:	e51b3018 	ldr	r3, [fp, #-24]	; 0xffffffe8
    ec20:	e5933414 	ldr	r3, [r3, #1044]	; 0x414
    ec24:	e50b3014 	str	r3, [fp, #-20]	; 0xffffffec
    ec28:	e3a03000 	mov	r3, #0
    ec2c:	e50b3010 	str	r3, [fp, #-16]
    ec30:	ea000069 	b	eddc <HubCheckForChange+0x1d0>
    ec34:	e51b3010 	ldr	r3, [fp, #-16]
    ec38:	e20330ff 	and	r3, r3, #255	; 0xff
    ec3c:	e1a01003 	mov	r1, r3
    ec40:	e51b0018 	ldr	r0, [fp, #-24]	; 0xffffffe8
    ec44:	eb00016d 	bl	f200 <HubCheckConnection>
    ec48:	e1a03000 	mov	r3, r0
    ec4c:	e3530000 	cmp	r3, #0
    ec50:	1a00005d 	bne	edcc <HubCheckForChange+0x1c0>
    ec54:	e51b3014 	ldr	r3, [fp, #-20]	; 0xffffffec
    ec58:	e51b2010 	ldr	r2, [fp, #-16]
    ec5c:	e282200e 	add	r2, r2, #14
    ec60:	e1a01102 	lsl	r1, r2, #2
    ec64:	e0831001 	add	r1, r3, r1
    ec68:	e5d10004 	ldrb	r0, [r1, #4]
    ec6c:	e1a01102 	lsl	r1, r2, #2
    ec70:	e0831001 	add	r1, r3, r1
    ec74:	e5d11005 	ldrb	r1, [r1, #5]
    ec78:	e1a01401 	lsl	r1, r1, #8
    ec7c:	e1810000 	orr	r0, r1, r0
    ec80:	e1a01102 	lsl	r1, r2, #2
    ec84:	e0831001 	add	r1, r3, r1
    ec88:	e5d11006 	ldrb	r1, [r1, #6]
    ec8c:	e1a01801 	lsl	r1, r1, #16
    ec90:	e1811000 	orr	r1, r1, r0
    ec94:	e1a02102 	lsl	r2, r2, #2
    ec98:	e0832002 	add	r2, r3, r2
    ec9c:	e5d23007 	ldrb	r3, [r2, #7]
    eca0:	e1a03c03 	lsl	r3, r3, #24
    eca4:	e1833001 	orr	r3, r3, r1
    eca8:	e3530000 	cmp	r3, #0
    ecac:	0a000047 	beq	edd0 <HubCheckForChange+0x1c4>
    ecb0:	e51b3014 	ldr	r3, [fp, #-20]	; 0xffffffec
    ecb4:	e51b2010 	ldr	r2, [fp, #-16]
    ecb8:	e282200e 	add	r2, r2, #14
    ecbc:	e1a01102 	lsl	r1, r2, #2
    ecc0:	e0831001 	add	r1, r3, r1
    ecc4:	e5d10004 	ldrb	r0, [r1, #4]
    ecc8:	e1a01102 	lsl	r1, r2, #2
    eccc:	e0831001 	add	r1, r3, r1
    ecd0:	e5d11005 	ldrb	r1, [r1, #5]
    ecd4:	e1a01401 	lsl	r1, r1, #8
    ecd8:	e1810000 	orr	r0, r1, r0
    ecdc:	e1a01102 	lsl	r1, r2, #2
    ece0:	e0831001 	add	r1, r3, r1
    ece4:	e5d11006 	ldrb	r1, [r1, #6]
    ece8:	e1a01801 	lsl	r1, r1, #16
    ecec:	e1811000 	orr	r1, r1, r0
    ecf0:	e1a02102 	lsl	r2, r2, #2
    ecf4:	e0832002 	add	r2, r3, r2
    ecf8:	e5d23007 	ldrb	r3, [r2, #7]
    ecfc:	e1a03c03 	lsl	r3, r3, #24
    ed00:	e1833001 	orr	r3, r3, r1
    ed04:	e5933014 	ldr	r3, [r3, #20]
    ed08:	e3530000 	cmp	r3, #0
    ed0c:	0a00002f 	beq	edd0 <HubCheckForChange+0x1c4>
    ed10:	e51b3014 	ldr	r3, [fp, #-20]	; 0xffffffec
    ed14:	e51b2010 	ldr	r2, [fp, #-16]
    ed18:	e282200e 	add	r2, r2, #14
    ed1c:	e1a01102 	lsl	r1, r2, #2
    ed20:	e0831001 	add	r1, r3, r1
    ed24:	e5d10004 	ldrb	r0, [r1, #4]
    ed28:	e1a01102 	lsl	r1, r2, #2
    ed2c:	e0831001 	add	r1, r3, r1
    ed30:	e5d11005 	ldrb	r1, [r1, #5]
    ed34:	e1a01401 	lsl	r1, r1, #8
    ed38:	e1810000 	orr	r0, r1, r0
    ed3c:	e1a01102 	lsl	r1, r2, #2
    ed40:	e0831001 	add	r1, r3, r1
    ed44:	e5d11006 	ldrb	r1, [r1, #6]
    ed48:	e1a01801 	lsl	r1, r1, #16
    ed4c:	e1811000 	orr	r1, r1, r0
    ed50:	e1a02102 	lsl	r2, r2, #2
    ed54:	e0832002 	add	r2, r3, r2
    ed58:	e5d23007 	ldrb	r3, [r2, #7]
    ed5c:	e1a03c03 	lsl	r3, r3, #24
    ed60:	e1833001 	orr	r3, r3, r1
    ed64:	e5934014 	ldr	r4, [r3, #20]
    ed68:	e51b3014 	ldr	r3, [fp, #-20]	; 0xffffffec
    ed6c:	e51b2010 	ldr	r2, [fp, #-16]
    ed70:	e282200e 	add	r2, r2, #14
    ed74:	e1a01102 	lsl	r1, r2, #2
    ed78:	e0831001 	add	r1, r3, r1
    ed7c:	e5d10004 	ldrb	r0, [r1, #4]
    ed80:	e1a01102 	lsl	r1, r2, #2
    ed84:	e0831001 	add	r1, r3, r1
    ed88:	e5d11005 	ldrb	r1, [r1, #5]
    ed8c:	e1a01401 	lsl	r1, r1, #8
    ed90:	e1810000 	orr	r0, r1, r0
    ed94:	e1a01102 	lsl	r1, r2, #2
    ed98:	e0831001 	add	r1, r3, r1
    ed9c:	e5d11006 	ldrb	r1, [r1, #6]
    eda0:	e1a01801 	lsl	r1, r1, #16
    eda4:	e1811000 	orr	r1, r1, r0
    eda8:	e1a02102 	lsl	r2, r2, #2
    edac:	e0832002 	add	r2, r3, r2
    edb0:	e5d23007 	ldrb	r3, [r2, #7]
    edb4:	e1a03c03 	lsl	r3, r3, #24
    edb8:	e1833001 	orr	r3, r3, r1
    edbc:	e1a00003 	mov	r0, r3
    edc0:	e1a0e00f 	mov	lr, pc
    edc4:	e12fff14 	bx	r4
    edc8:	ea000000 	b	edd0 <HubCheckForChange+0x1c4>
    edcc:	e1a00000 	nop			; (mov r0, r0)
    edd0:	e51b3010 	ldr	r3, [fp, #-16]
    edd4:	e2833001 	add	r3, r3, #1
    edd8:	e50b3010 	str	r3, [fp, #-16]
    eddc:	e51b3014 	ldr	r3, [fp, #-20]	; 0xffffffec
    ede0:	e5d32010 	ldrb	r2, [r3, #16]
    ede4:	e5d31011 	ldrb	r1, [r3, #17]
    ede8:	e1a01401 	lsl	r1, r1, #8
    edec:	e1812002 	orr	r2, r1, r2
    edf0:	e5d31012 	ldrb	r1, [r3, #18]
    edf4:	e1a01801 	lsl	r1, r1, #16
    edf8:	e1812002 	orr	r2, r1, r2
    edfc:	e5d33013 	ldrb	r3, [r3, #19]
    ee00:	e1a03c03 	lsl	r3, r3, #24
    ee04:	e1833002 	orr	r3, r3, r2
    ee08:	e1a02003 	mov	r2, r3
    ee0c:	e51b3010 	ldr	r3, [fp, #-16]
    ee10:	e1520003 	cmp	r2, r3
    ee14:	8affff86 	bhi	ec34 <HubCheckForChange+0x28>
    ee18:	e1a00000 	nop			; (mov r0, r0)
    ee1c:	e24bd008 	sub	sp, fp, #8
    ee20:	e8bd4810 	pop	{r4, fp, lr}
    ee24:	e12fff1e 	bx	lr

0000ee28 <HubChildDetached>:
    ee28:	e52db004 	push	{fp}		; (str fp, [sp, #-4]!)
    ee2c:	e28db000 	add	fp, sp, #0
    ee30:	e24dd014 	sub	sp, sp, #20
    ee34:	e50b0010 	str	r0, [fp, #-16]
    ee38:	e50b1014 	str	r1, [fp, #-20]	; 0xffffffec
    ee3c:	e51b3010 	ldr	r3, [fp, #-16]
    ee40:	e5933414 	ldr	r3, [r3, #1044]	; 0x414
    ee44:	e50b3008 	str	r3, [fp, #-8]
    ee48:	e51b3014 	ldr	r3, [fp, #-20]	; 0xffffffec
    ee4c:	e593240c 	ldr	r2, [r3, #1036]	; 0x40c
    ee50:	e51b3010 	ldr	r3, [fp, #-16]
    ee54:	e1520003 	cmp	r2, r3
    ee58:	1a000038 	bne	ef40 <HubChildDetached+0x118>
    ee5c:	e51b3014 	ldr	r3, [fp, #-20]	; 0xffffffec
    ee60:	e5d33007 	ldrb	r3, [r3, #7]
    ee64:	e1a00003 	mov	r0, r3
    ee68:	e51b3008 	ldr	r3, [fp, #-8]
    ee6c:	e5d32010 	ldrb	r2, [r3, #16]
    ee70:	e5d31011 	ldrb	r1, [r3, #17]
    ee74:	e1a01401 	lsl	r1, r1, #8
    ee78:	e1812002 	orr	r2, r1, r2
    ee7c:	e5d31012 	ldrb	r1, [r3, #18]
    ee80:	e1a01801 	lsl	r1, r1, #16
    ee84:	e1812002 	orr	r2, r1, r2
    ee88:	e5d33013 	ldrb	r3, [r3, #19]
    ee8c:	e1a03c03 	lsl	r3, r3, #24
    ee90:	e1833002 	orr	r3, r3, r2
    ee94:	e1500003 	cmp	r0, r3
    ee98:	2a000028 	bcs	ef40 <HubChildDetached+0x118>
    ee9c:	e51b3014 	ldr	r3, [fp, #-20]	; 0xffffffec
    eea0:	e5d33007 	ldrb	r3, [r3, #7]
    eea4:	e1a02003 	mov	r2, r3
    eea8:	e51b3008 	ldr	r3, [fp, #-8]
    eeac:	e282200e 	add	r2, r2, #14
    eeb0:	e1a01102 	lsl	r1, r2, #2
    eeb4:	e0831001 	add	r1, r3, r1
    eeb8:	e5d10004 	ldrb	r0, [r1, #4]
    eebc:	e1a01102 	lsl	r1, r2, #2
    eec0:	e0831001 	add	r1, r3, r1
    eec4:	e5d11005 	ldrb	r1, [r1, #5]
    eec8:	e1a01401 	lsl	r1, r1, #8
    eecc:	e1810000 	orr	r0, r1, r0
    eed0:	e1a01102 	lsl	r1, r2, #2
    eed4:	e0831001 	add	r1, r3, r1
    eed8:	e5d11006 	ldrb	r1, [r1, #6]
    eedc:	e1a01801 	lsl	r1, r1, #16
    eee0:	e1811000 	orr	r1, r1, r0
    eee4:	e1a02102 	lsl	r2, r2, #2
    eee8:	e0832002 	add	r2, r3, r2
    eeec:	e5d23007 	ldrb	r3, [r2, #7]
    eef0:	e1a03c03 	lsl	r3, r3, #24
    eef4:	e1833001 	orr	r3, r3, r1
    eef8:	e1a02003 	mov	r2, r3
    eefc:	e51b3014 	ldr	r3, [fp, #-20]	; 0xffffffec
    ef00:	e1520003 	cmp	r2, r3
    ef04:	1a00000d 	bne	ef40 <HubChildDetached+0x118>
    ef08:	e51b3014 	ldr	r3, [fp, #-20]	; 0xffffffec
    ef0c:	e5d33007 	ldrb	r3, [r3, #7]
    ef10:	e51b2008 	ldr	r2, [fp, #-8]
    ef14:	e283300e 	add	r3, r3, #14
    ef18:	e1a03103 	lsl	r3, r3, #2
    ef1c:	e0823003 	add	r3, r2, r3
    ef20:	e3a02000 	mov	r2, #0
    ef24:	e5c32004 	strb	r2, [r3, #4]
    ef28:	e3a02000 	mov	r2, #0
    ef2c:	e5c32005 	strb	r2, [r3, #5]
    ef30:	e3a02000 	mov	r2, #0
    ef34:	e5c32006 	strb	r2, [r3, #6]
    ef38:	e3a02000 	mov	r2, #0
    ef3c:	e5c32007 	strb	r2, [r3, #7]
    ef40:	e1a00000 	nop			; (mov r0, r0)
    ef44:	e24bd000 	sub	sp, fp, #0
    ef48:	e49db004 	pop	{fp}		; (ldr fp, [sp], #4)
    ef4c:	e12fff1e 	bx	lr

0000ef50 <HubChildReset>:
    ef50:	e92d4800 	push	{fp, lr}
    ef54:	e28db004 	add	fp, sp, #4
    ef58:	e24dd010 	sub	sp, sp, #16
    ef5c:	e50b0010 	str	r0, [fp, #-16]
    ef60:	e50b1014 	str	r1, [fp, #-20]	; 0xffffffec
    ef64:	e51b3010 	ldr	r3, [fp, #-16]
    ef68:	e5933414 	ldr	r3, [r3, #1044]	; 0x414
    ef6c:	e50b3008 	str	r3, [fp, #-8]
    ef70:	e51b3014 	ldr	r3, [fp, #-20]	; 0xffffffec
    ef74:	e593240c 	ldr	r2, [r3, #1036]	; 0x40c
    ef78:	e51b3010 	ldr	r3, [fp, #-16]
    ef7c:	e1520003 	cmp	r2, r3
    ef80:	1a000031 	bne	f04c <HubChildReset+0xfc>
    ef84:	e51b3014 	ldr	r3, [fp, #-20]	; 0xffffffec
    ef88:	e5d33007 	ldrb	r3, [r3, #7]
    ef8c:	e1a00003 	mov	r0, r3
    ef90:	e51b3008 	ldr	r3, [fp, #-8]
    ef94:	e5d32010 	ldrb	r2, [r3, #16]
    ef98:	e5d31011 	ldrb	r1, [r3, #17]
    ef9c:	e1a01401 	lsl	r1, r1, #8
    efa0:	e1812002 	orr	r2, r1, r2
    efa4:	e5d31012 	ldrb	r1, [r3, #18]
    efa8:	e1a01801 	lsl	r1, r1, #16
    efac:	e1812002 	orr	r2, r1, r2
    efb0:	e5d33013 	ldrb	r3, [r3, #19]
    efb4:	e1a03c03 	lsl	r3, r3, #24
    efb8:	e1833002 	orr	r3, r3, r2
    efbc:	e1500003 	cmp	r0, r3
    efc0:	2a000021 	bcs	f04c <HubChildReset+0xfc>
    efc4:	e51b3014 	ldr	r3, [fp, #-20]	; 0xffffffec
    efc8:	e5d33007 	ldrb	r3, [r3, #7]
    efcc:	e1a02003 	mov	r2, r3
    efd0:	e51b3008 	ldr	r3, [fp, #-8]
    efd4:	e282200e 	add	r2, r2, #14
    efd8:	e1a01102 	lsl	r1, r2, #2
    efdc:	e0831001 	add	r1, r3, r1
    efe0:	e5d10004 	ldrb	r0, [r1, #4]
    efe4:	e1a01102 	lsl	r1, r2, #2
    efe8:	e0831001 	add	r1, r3, r1
    efec:	e5d11005 	ldrb	r1, [r1, #5]
    eff0:	e1a01401 	lsl	r1, r1, #8
    eff4:	e1810000 	orr	r0, r1, r0
    eff8:	e1a01102 	lsl	r1, r2, #2
    effc:	e0831001 	add	r1, r3, r1
    f000:	e5d11006 	ldrb	r1, [r1, #6]
    f004:	e1a01801 	lsl	r1, r1, #16
    f008:	e1811000 	orr	r1, r1, r0
    f00c:	e1a02102 	lsl	r2, r2, #2
    f010:	e0832002 	add	r2, r3, r2
    f014:	e5d23007 	ldrb	r3, [r2, #7]
    f018:	e1a03c03 	lsl	r3, r3, #24
    f01c:	e1833001 	orr	r3, r3, r1
    f020:	e1a02003 	mov	r2, r3
    f024:	e51b3014 	ldr	r3, [fp, #-20]	; 0xffffffec
    f028:	e1520003 	cmp	r2, r3
    f02c:	1a000006 	bne	f04c <HubChildReset+0xfc>
    f030:	e51b3014 	ldr	r3, [fp, #-20]	; 0xffffffec
    f034:	e5d33007 	ldrb	r3, [r3, #7]
    f038:	e1a01003 	mov	r1, r3
    f03c:	e51b0010 	ldr	r0, [fp, #-16]
    f040:	ebfffc09 	bl	e06c <HubPortReset>
    f044:	e1a03000 	mov	r3, r0
    f048:	ea000000 	b	f050 <HubChildReset+0x100>
    f04c:	e3e03003 	mvn	r3, #3
    f050:	e1a00003 	mov	r0, r3
    f054:	e24bd004 	sub	sp, fp, #4
    f058:	e8bd4800 	pop	{fp, lr}
    f05c:	e12fff1e 	bx	lr

0000f060 <HubCheckConnectionDevice>:
    f060:	e92d4800 	push	{fp, lr}
    f064:	e28db004 	add	fp, sp, #4
    f068:	e24dd010 	sub	sp, sp, #16
    f06c:	e50b0010 	str	r0, [fp, #-16]
    f070:	e50b1014 	str	r1, [fp, #-20]	; 0xffffffec
    f074:	e51b3010 	ldr	r3, [fp, #-16]
    f078:	e5933414 	ldr	r3, [r3, #1044]	; 0x414
    f07c:	e50b3008 	str	r3, [fp, #-8]
    f080:	e51b3014 	ldr	r3, [fp, #-20]	; 0xffffffec
    f084:	e593240c 	ldr	r2, [r3, #1036]	; 0x40c
    f088:	e51b3010 	ldr	r3, [fp, #-16]
    f08c:	e1520003 	cmp	r2, r3
    f090:	1a000055 	bne	f1ec <HubCheckConnectionDevice+0x18c>
    f094:	e51b3014 	ldr	r3, [fp, #-20]	; 0xffffffec
    f098:	e5d33007 	ldrb	r3, [r3, #7]
    f09c:	e1a00003 	mov	r0, r3
    f0a0:	e51b3008 	ldr	r3, [fp, #-8]
    f0a4:	e5d32010 	ldrb	r2, [r3, #16]
    f0a8:	e5d31011 	ldrb	r1, [r3, #17]
    f0ac:	e1a01401 	lsl	r1, r1, #8
    f0b0:	e1812002 	orr	r2, r1, r2
    f0b4:	e5d31012 	ldrb	r1, [r3, #18]
    f0b8:	e1a01801 	lsl	r1, r1, #16
    f0bc:	e1812002 	orr	r2, r1, r2
    f0c0:	e5d33013 	ldrb	r3, [r3, #19]
    f0c4:	e1a03c03 	lsl	r3, r3, #24
    f0c8:	e1833002 	orr	r3, r3, r2
    f0cc:	e1500003 	cmp	r0, r3
    f0d0:	2a000045 	bcs	f1ec <HubCheckConnectionDevice+0x18c>
    f0d4:	e51b3014 	ldr	r3, [fp, #-20]	; 0xffffffec
    f0d8:	e5d33007 	ldrb	r3, [r3, #7]
    f0dc:	e1a02003 	mov	r2, r3
    f0e0:	e51b3008 	ldr	r3, [fp, #-8]
    f0e4:	e282200e 	add	r2, r2, #14
    f0e8:	e1a01102 	lsl	r1, r2, #2
    f0ec:	e0831001 	add	r1, r3, r1
    f0f0:	e5d10004 	ldrb	r0, [r1, #4]
    f0f4:	e1a01102 	lsl	r1, r2, #2
    f0f8:	e0831001 	add	r1, r3, r1
    f0fc:	e5d11005 	ldrb	r1, [r1, #5]
    f100:	e1a01401 	lsl	r1, r1, #8
    f104:	e1810000 	orr	r0, r1, r0
    f108:	e1a01102 	lsl	r1, r2, #2
    f10c:	e0831001 	add	r1, r3, r1
    f110:	e5d11006 	ldrb	r1, [r1, #6]
    f114:	e1a01801 	lsl	r1, r1, #16
    f118:	e1811000 	orr	r1, r1, r0
    f11c:	e1a02102 	lsl	r2, r2, #2
    f120:	e0832002 	add	r2, r3, r2
    f124:	e5d23007 	ldrb	r3, [r2, #7]
    f128:	e1a03c03 	lsl	r3, r3, #24
    f12c:	e1833001 	orr	r3, r3, r1
    f130:	e1a02003 	mov	r2, r3
    f134:	e51b3014 	ldr	r3, [fp, #-20]	; 0xffffffec
    f138:	e1520003 	cmp	r2, r3
    f13c:	1a00002a 	bne	f1ec <HubCheckConnectionDevice+0x18c>
    f140:	e51b3014 	ldr	r3, [fp, #-20]	; 0xffffffec
    f144:	e5d33007 	ldrb	r3, [r3, #7]
    f148:	e1a01003 	mov	r1, r3
    f14c:	e51b0010 	ldr	r0, [fp, #-16]
    f150:	eb00002a 	bl	f200 <HubCheckConnection>
    f154:	e1a03000 	mov	r3, r0
    f158:	e54b3009 	strb	r3, [fp, #-9]
    f15c:	e15b30d9 	ldrsb	r3, [fp, #-9]
    f160:	e3530000 	cmp	r3, #0
    f164:	0a000001 	beq	f170 <HubCheckConnectionDevice+0x110>
    f168:	e15b30d9 	ldrsb	r3, [fp, #-9]
    f16c:	ea00001f 	b	f1f0 <HubCheckConnectionDevice+0x190>
    f170:	e51b3014 	ldr	r3, [fp, #-20]	; 0xffffffec
    f174:	e5d33007 	ldrb	r3, [r3, #7]
    f178:	e1a02003 	mov	r2, r3
    f17c:	e51b3008 	ldr	r3, [fp, #-8]
    f180:	e282200e 	add	r2, r2, #14
    f184:	e1a01102 	lsl	r1, r2, #2
    f188:	e0831001 	add	r1, r3, r1
    f18c:	e5d10004 	ldrb	r0, [r1, #4]
    f190:	e1a01102 	lsl	r1, r2, #2
    f194:	e0831001 	add	r1, r3, r1
    f198:	e5d11005 	ldrb	r1, [r1, #5]
    f19c:	e1a01401 	lsl	r1, r1, #8
    f1a0:	e1810000 	orr	r0, r1, r0
    f1a4:	e1a01102 	lsl	r1, r2, #2
    f1a8:	e0831001 	add	r1, r3, r1
    f1ac:	e5d11006 	ldrb	r1, [r1, #6]
    f1b0:	e1a01801 	lsl	r1, r1, #16
    f1b4:	e1811000 	orr	r1, r1, r0
    f1b8:	e1a02102 	lsl	r2, r2, #2
    f1bc:	e0832002 	add	r2, r3, r2
    f1c0:	e5d23007 	ldrb	r3, [r2, #7]
    f1c4:	e1a03c03 	lsl	r3, r3, #24
    f1c8:	e1833001 	orr	r3, r3, r1
    f1cc:	e1a02003 	mov	r2, r3
    f1d0:	e51b3014 	ldr	r3, [fp, #-20]	; 0xffffffec
    f1d4:	e1520003 	cmp	r2, r3
    f1d8:	1a000001 	bne	f1e4 <HubCheckConnectionDevice+0x184>
    f1dc:	e3a03000 	mov	r3, #0
    f1e0:	ea000002 	b	f1f0 <HubCheckConnectionDevice+0x190>
    f1e4:	e3e03008 	mvn	r3, #8
    f1e8:	ea000000 	b	f1f0 <HubCheckConnectionDevice+0x190>
    f1ec:	e3e03001 	mvn	r3, #1
    f1f0:	e1a00003 	mov	r0, r3
    f1f4:	e24bd004 	sub	sp, fp, #4
    f1f8:	e8bd4800 	pop	{fp, lr}
    f1fc:	e12fff1e 	bx	lr

0000f200 <HubCheckConnection>:
    f200:	e92d4800 	push	{fp, lr}
    f204:	e28db004 	add	fp, sp, #4
    f208:	e24dd018 	sub	sp, sp, #24
    f20c:	e50b0018 	str	r0, [fp, #-24]	; 0xffffffe8
    f210:	e1a03001 	mov	r3, r1
    f214:	e54b3019 	strb	r3, [fp, #-25]	; 0xffffffe7
    f218:	e51b3018 	ldr	r3, [fp, #-24]	; 0xffffffe8
    f21c:	e5933414 	ldr	r3, [r3, #1044]	; 0x414
    f220:	e50b3008 	str	r3, [fp, #-8]
    f224:	e55b3019 	ldrb	r3, [fp, #-25]	; 0xffffffe7
    f228:	e1a01003 	mov	r1, r3
    f22c:	e51b0018 	ldr	r0, [fp, #-24]	; 0xffffffe8
    f230:	ebfffa53 	bl	db84 <HubPortGetStatus>
    f234:	e1a03000 	mov	r3, r0
    f238:	e54b3009 	strb	r3, [fp, #-9]
    f23c:	e15b30d9 	ldrsb	r3, [fp, #-9]
    f240:	e3530000 	cmp	r3, #0
    f244:	0a000001 	beq	f250 <HubCheckConnection+0x50>
    f248:	e15b30d9 	ldrsb	r3, [fp, #-9]
    f24c:	ea000066 	b	f3ec <HubCheckConnection+0x1ec>
    f250:	e55b3019 	ldrb	r3, [fp, #-25]	; 0xffffffe7
    f254:	e2833004 	add	r3, r3, #4
    f258:	e1a03103 	lsl	r3, r3, #2
    f25c:	e51b2008 	ldr	r2, [fp, #-8]
    f260:	e0823003 	add	r3, r2, r3
    f264:	e2833004 	add	r3, r3, #4
    f268:	e50b3010 	str	r3, [fp, #-16]
    f26c:	e51b3010 	ldr	r3, [fp, #-16]
    f270:	e5d33002 	ldrb	r3, [r3, #2]
    f274:	e2033001 	and	r3, r3, #1
    f278:	e20330ff 	and	r3, r3, #255	; 0xff
    f27c:	e3530000 	cmp	r3, #0
    f280:	0a000003 	beq	f294 <HubCheckConnection+0x94>
    f284:	e55b3019 	ldrb	r3, [fp, #-25]	; 0xffffffe7
    f288:	e1a01003 	mov	r1, r3
    f28c:	e51b0018 	ldr	r0, [fp, #-24]	; 0xffffffe8
    f290:	ebfffbe8 	bl	e238 <HubPortConnectionChanged>
    f294:	e51b3010 	ldr	r3, [fp, #-16]
    f298:	e5d33002 	ldrb	r3, [r3, #2]
    f29c:	e2033002 	and	r3, r3, #2
    f2a0:	e20330ff 	and	r3, r3, #255	; 0xff
    f2a4:	e3530000 	cmp	r3, #0
    f2a8:	0a00002b 	beq	f35c <HubCheckConnection+0x15c>
    f2ac:	e55b2019 	ldrb	r2, [fp, #-25]	; 0xffffffe7
    f2b0:	e3a03000 	mov	r3, #0
    f2b4:	e3a01011 	mov	r1, #17
    f2b8:	e51b0018 	ldr	r0, [fp, #-24]	; 0xffffffe8
    f2bc:	ebfffad4 	bl	de14 <HubChangePortFeature>
    f2c0:	e51b3010 	ldr	r3, [fp, #-16]
    f2c4:	e5d33000 	ldrb	r3, [r3]
    f2c8:	e2033002 	and	r3, r3, #2
    f2cc:	e20330ff 	and	r3, r3, #255	; 0xff
    f2d0:	e3530000 	cmp	r3, #0
    f2d4:	1a000020 	bne	f35c <HubCheckConnection+0x15c>
    f2d8:	e51b3010 	ldr	r3, [fp, #-16]
    f2dc:	e5d33000 	ldrb	r3, [r3]
    f2e0:	e2033001 	and	r3, r3, #1
    f2e4:	e20330ff 	and	r3, r3, #255	; 0xff
    f2e8:	e3530000 	cmp	r3, #0
    f2ec:	0a00001a 	beq	f35c <HubCheckConnection+0x15c>
    f2f0:	e55b2019 	ldrb	r2, [fp, #-25]	; 0xffffffe7
    f2f4:	e51b3008 	ldr	r3, [fp, #-8]
    f2f8:	e282200e 	add	r2, r2, #14
    f2fc:	e1a01102 	lsl	r1, r2, #2
    f300:	e0831001 	add	r1, r3, r1
    f304:	e5d10004 	ldrb	r0, [r1, #4]
    f308:	e1a01102 	lsl	r1, r2, #2
    f30c:	e0831001 	add	r1, r3, r1
    f310:	e5d11005 	ldrb	r1, [r1, #5]
    f314:	e1a01401 	lsl	r1, r1, #8
    f318:	e1810000 	orr	r0, r1, r0
    f31c:	e1a01102 	lsl	r1, r2, #2
    f320:	e0831001 	add	r1, r3, r1
    f324:	e5d11006 	ldrb	r1, [r1, #6]
    f328:	e1a01801 	lsl	r1, r1, #16
    f32c:	e1811000 	orr	r1, r1, r0
    f330:	e1a02102 	lsl	r2, r2, #2
    f334:	e0832002 	add	r2, r3, r2
    f338:	e5d23007 	ldrb	r3, [r2, #7]
    f33c:	e1a03c03 	lsl	r3, r3, #24
    f340:	e1833001 	orr	r3, r3, r1
    f344:	e3530000 	cmp	r3, #0
    f348:	0a000003 	beq	f35c <HubCheckConnection+0x15c>
    f34c:	e55b3019 	ldrb	r3, [fp, #-25]	; 0xffffffe7
    f350:	e1a01003 	mov	r1, r3
    f354:	e51b0018 	ldr	r0, [fp, #-24]	; 0xffffffe8
    f358:	ebfffbb6 	bl	e238 <HubPortConnectionChanged>
    f35c:	e51b3010 	ldr	r3, [fp, #-16]
    f360:	e5d33000 	ldrb	r3, [r3]
    f364:	e2033004 	and	r3, r3, #4
    f368:	e20330ff 	and	r3, r3, #255	; 0xff
    f36c:	e3530000 	cmp	r3, #0
    f370:	0a000004 	beq	f388 <HubCheckConnection+0x188>
    f374:	e55b2019 	ldrb	r2, [fp, #-25]	; 0xffffffe7
    f378:	e3a03000 	mov	r3, #0
    f37c:	e3a01002 	mov	r1, #2
    f380:	e51b0018 	ldr	r0, [fp, #-24]	; 0xffffffe8
    f384:	ebfffaa2 	bl	de14 <HubChangePortFeature>
    f388:	e51b3010 	ldr	r3, [fp, #-16]
    f38c:	e5d33002 	ldrb	r3, [r3, #2]
    f390:	e2033008 	and	r3, r3, #8
    f394:	e20330ff 	and	r3, r3, #255	; 0xff
    f398:	e3530000 	cmp	r3, #0
    f39c:	0a000006 	beq	f3bc <HubCheckConnection+0x1bc>
    f3a0:	e55b2019 	ldrb	r2, [fp, #-25]	; 0xffffffe7
    f3a4:	e3a03000 	mov	r3, #0
    f3a8:	e3a01013 	mov	r1, #19
    f3ac:	e51b0018 	ldr	r0, [fp, #-24]	; 0xffffffe8
    f3b0:	ebfffa97 	bl	de14 <HubChangePortFeature>
    f3b4:	e51b0018 	ldr	r0, [fp, #-24]	; 0xffffffe8
    f3b8:	ebfffaed 	bl	df74 <HubPowerOn>
    f3bc:	e51b3010 	ldr	r3, [fp, #-16]
    f3c0:	e5d33002 	ldrb	r3, [r3, #2]
    f3c4:	e2033010 	and	r3, r3, #16
    f3c8:	e20330ff 	and	r3, r3, #255	; 0xff
    f3cc:	e3530000 	cmp	r3, #0
    f3d0:	0a000004 	beq	f3e8 <HubCheckConnection+0x1e8>
    f3d4:	e55b2019 	ldrb	r2, [fp, #-25]	; 0xffffffe7
    f3d8:	e3a03000 	mov	r3, #0
    f3dc:	e3a01014 	mov	r1, #20
    f3e0:	e51b0018 	ldr	r0, [fp, #-24]	; 0xffffffe8
    f3e4:	ebfffa8a 	bl	de14 <HubChangePortFeature>
    f3e8:	e3a03000 	mov	r3, #0
    f3ec:	e1a00003 	mov	r0, r3
    f3f0:	e24bd004 	sub	sp, fp, #4
    f3f4:	e8bd4800 	pop	{fp, lr}
    f3f8:	e12fff1e 	bx	lr

0000f3fc <HubAttach>:
    f3fc:	e92d4800 	push	{fp, lr}
    f400:	e28db004 	add	fp, sp, #4
    f404:	e24dd028 	sub	sp, sp, #40	; 0x28
    f408:	e50b0028 	str	r0, [fp, #-40]	; 0xffffffd8
    f40c:	e50b102c 	str	r1, [fp, #-44]	; 0xffffffd4
    f410:	e51b1028 	ldr	r1, [fp, #-40]	; 0xffffffd8
    f414:	e51b202c 	ldr	r2, [fp, #-44]	; 0xffffffd4
    f418:	e1a03002 	mov	r3, r2
    f41c:	e1a03183 	lsl	r3, r3, #3
    f420:	e0833002 	add	r3, r3, r2
    f424:	e0813003 	add	r3, r1, r3
    f428:	e2833048 	add	r3, r3, #72	; 0x48
    f42c:	e5d33000 	ldrb	r3, [r3]
    f430:	e20330ff 	and	r3, r3, #255	; 0xff
    f434:	e3530001 	cmp	r3, #1
    f438:	0a000001 	beq	f444 <HubAttach+0x48>
    f43c:	e3e03004 	mvn	r3, #4
    f440:	ea00011e 	b	f8c0 <HubAttach+0x4c4>
    f444:	e51b1028 	ldr	r1, [fp, #-40]	; 0xffffffd8
    f448:	e51b202c 	ldr	r2, [fp, #-44]	; 0xffffffd4
    f44c:	e1a03002 	mov	r3, r2
    f450:	e1a03183 	lsl	r3, r3, #3
    f454:	e0623003 	rsb	r3, r2, r3
    f458:	e1a03203 	lsl	r3, r3, #4
    f45c:	e0813003 	add	r3, r1, r3
    f460:	e2833088 	add	r3, r3, #136	; 0x88
    f464:	e5d33006 	ldrb	r3, [r3, #6]
    f468:	e20330ff 	and	r3, r3, #255	; 0xff
    f46c:	e1a033a3 	lsr	r3, r3, #7
    f470:	e20330ff 	and	r3, r3, #255	; 0xff
    f474:	e3530000 	cmp	r3, #0
    f478:	1a000001 	bne	f484 <HubAttach+0x88>
    f47c:	e3e03004 	mvn	r3, #4
    f480:	ea00010e 	b	f8c0 <HubAttach+0x4c4>
    f484:	e51b1028 	ldr	r1, [fp, #-40]	; 0xffffffd8
    f488:	e51b202c 	ldr	r2, [fp, #-44]	; 0xffffffd4
    f48c:	e1a03002 	mov	r3, r2
    f490:	e1a03183 	lsl	r3, r3, #3
    f494:	e0623003 	rsb	r3, r2, r3
    f498:	e1a03203 	lsl	r3, r3, #4
    f49c:	e0813003 	add	r3, r1, r3
    f4a0:	e2833088 	add	r3, r3, #136	; 0x88
    f4a4:	e5d33007 	ldrb	r3, [r3, #7]
    f4a8:	e2033003 	and	r3, r3, #3
    f4ac:	e20330ff 	and	r3, r3, #255	; 0xff
    f4b0:	e3530003 	cmp	r3, #3
    f4b4:	0a000001 	beq	f4c0 <HubAttach+0xc4>
    f4b8:	e3e03004 	mvn	r3, #4
    f4bc:	ea0000ff 	b	f8c0 <HubAttach+0x4c4>
    f4c0:	e51b3028 	ldr	r3, [fp, #-40]	; 0xffffffd8
    f4c4:	e59f2404 	ldr	r2, [pc, #1028]	; f8d0 <HubAttach+0x4d4>
    f4c8:	e5832010 	str	r2, [r3, #16]
    f4cc:	e51b3028 	ldr	r3, [fp, #-40]	; 0xffffffd8
    f4d0:	e59f23fc 	ldr	r2, [pc, #1020]	; f8d4 <HubAttach+0x4d8>
    f4d4:	e583200c 	str	r2, [r3, #12]
    f4d8:	e51b3028 	ldr	r3, [fp, #-40]	; 0xffffffd8
    f4dc:	e59f23f4 	ldr	r2, [pc, #1012]	; f8d8 <HubAttach+0x4dc>
    f4e0:	e5832014 	str	r2, [r3, #20]
    f4e4:	e51b3028 	ldr	r3, [fp, #-40]	; 0xffffffd8
    f4e8:	e59f23ec 	ldr	r2, [pc, #1004]	; f8dc <HubAttach+0x4e0>
    f4ec:	e5832018 	str	r2, [r3, #24]
    f4f0:	e51b3028 	ldr	r3, [fp, #-40]	; 0xffffffd8
    f4f4:	e59f23e4 	ldr	r2, [pc, #996]	; f8e0 <HubAttach+0x4e4>
    f4f8:	e583201c 	str	r2, [r3, #28]
    f4fc:	e51b3028 	ldr	r3, [fp, #-40]	; 0xffffffd8
    f500:	e59f23dc 	ldr	r2, [pc, #988]	; f8e4 <HubAttach+0x4e8>
    f504:	e5832020 	str	r2, [r3, #32]
    f508:	e3a00064 	mov	r0, #100	; 0x64
    f50c:	ebffeebc 	bl	b004 <MemoryAllocate>
    f510:	e1a02000 	mov	r2, r0
    f514:	e51b3028 	ldr	r3, [fp, #-40]	; 0xffffffd8
    f518:	e5832414 	str	r2, [r3, #1044]	; 0x414
    f51c:	e51b3028 	ldr	r3, [fp, #-40]	; 0xffffffd8
    f520:	e5933414 	ldr	r3, [r3, #1044]	; 0x414
    f524:	e3530000 	cmp	r3, #0
    f528:	1a000001 	bne	f534 <HubAttach+0x138>
    f52c:	e3e03006 	mvn	r3, #6
    f530:	ea0000e2 	b	f8c0 <HubAttach+0x4c4>
    f534:	e51b3028 	ldr	r3, [fp, #-40]	; 0xffffffd8
    f538:	e5933414 	ldr	r3, [r3, #1044]	; 0x414
    f53c:	e50b3014 	str	r3, [fp, #-20]	; 0xffffffec
    f540:	e51b3028 	ldr	r3, [fp, #-40]	; 0xffffffd8
    f544:	e5933414 	ldr	r3, [r3, #1044]	; 0x414
    f548:	e5d32004 	ldrb	r2, [r3, #4]
    f54c:	e3a02000 	mov	r2, #0
    f550:	e3822064 	orr	r2, r2, #100	; 0x64
    f554:	e5c32004 	strb	r2, [r3, #4]
    f558:	e5d32005 	ldrb	r2, [r3, #5]
    f55c:	e3a02000 	mov	r2, #0
    f560:	e5c32005 	strb	r2, [r3, #5]
    f564:	e5d32006 	ldrb	r2, [r3, #6]
    f568:	e3a02000 	mov	r2, #0
    f56c:	e5c32006 	strb	r2, [r3, #6]
    f570:	e5d32007 	ldrb	r2, [r3, #7]
    f574:	e3a02000 	mov	r2, #0
    f578:	e5c32007 	strb	r2, [r3, #7]
    f57c:	e51b3028 	ldr	r3, [fp, #-40]	; 0xffffffd8
    f580:	e5933414 	ldr	r3, [r3, #1044]	; 0x414
    f584:	e5d32000 	ldrb	r2, [r3]
    f588:	e3a02000 	mov	r2, #0
    f58c:	e3822030 	orr	r2, r2, #48	; 0x30
    f590:	e5c32000 	strb	r2, [r3]
    f594:	e5d32001 	ldrb	r2, [r3, #1]
    f598:	e3a02000 	mov	r2, #0
    f59c:	e3822042 	orr	r2, r2, #66	; 0x42
    f5a0:	e5c32001 	strb	r2, [r3, #1]
    f5a4:	e5d32002 	ldrb	r2, [r3, #2]
    f5a8:	e3a02000 	mov	r2, #0
    f5ac:	e3822055 	orr	r2, r2, #85	; 0x55
    f5b0:	e5c32002 	strb	r2, [r3, #2]
    f5b4:	e5d32003 	ldrb	r2, [r3, #3]
    f5b8:	e3a02000 	mov	r2, #0
    f5bc:	e3822048 	orr	r2, r2, #72	; 0x48
    f5c0:	e5c32003 	strb	r2, [r3, #3]
    f5c4:	e3a03000 	mov	r3, #0
    f5c8:	e50b3008 	str	r3, [fp, #-8]
    f5cc:	ea00000f 	b	f610 <HubAttach+0x214>
    f5d0:	e51b2014 	ldr	r2, [fp, #-20]	; 0xffffffec
    f5d4:	e51b3008 	ldr	r3, [fp, #-8]
    f5d8:	e283300e 	add	r3, r3, #14
    f5dc:	e1a03103 	lsl	r3, r3, #2
    f5e0:	e0823003 	add	r3, r2, r3
    f5e4:	e3a02000 	mov	r2, #0
    f5e8:	e5c32004 	strb	r2, [r3, #4]
    f5ec:	e3a02000 	mov	r2, #0
    f5f0:	e5c32005 	strb	r2, [r3, #5]
    f5f4:	e3a02000 	mov	r2, #0
    f5f8:	e5c32006 	strb	r2, [r3, #6]
    f5fc:	e3a02000 	mov	r2, #0
    f600:	e5c32007 	strb	r2, [r3, #7]
    f604:	e51b3008 	ldr	r3, [fp, #-8]
    f608:	e2833001 	add	r3, r3, #1
    f60c:	e50b3008 	str	r3, [fp, #-8]
    f610:	e51b3008 	ldr	r3, [fp, #-8]
    f614:	e3530009 	cmp	r3, #9
    f618:	9affffec 	bls	f5d0 <HubAttach+0x1d4>
    f61c:	e51b0028 	ldr	r0, [fp, #-40]	; 0xffffffd8
    f620:	ebfff899 	bl	d88c <HubReadDescriptor>
    f624:	e1a03000 	mov	r3, r0
    f628:	e54b3015 	strb	r3, [fp, #-21]	; 0xffffffeb
    f62c:	e15b31d5 	ldrsb	r3, [fp, #-21]	; 0xffffffeb
    f630:	e3530000 	cmp	r3, #0
    f634:	0a000001 	beq	f640 <HubAttach+0x244>
    f638:	e15b31d5 	ldrsb	r3, [fp, #-21]	; 0xffffffeb
    f63c:	ea00009f 	b	f8c0 <HubAttach+0x4c4>
    f640:	e51b3014 	ldr	r3, [fp, #-20]	; 0xffffffec
    f644:	e5d3200c 	ldrb	r2, [r3, #12]
    f648:	e5d3100d 	ldrb	r1, [r3, #13]
    f64c:	e1a01401 	lsl	r1, r1, #8
    f650:	e1812002 	orr	r2, r1, r2
    f654:	e5d3100e 	ldrb	r1, [r3, #14]
    f658:	e1a01801 	lsl	r1, r1, #16
    f65c:	e1812002 	orr	r2, r1, r2
    f660:	e5d3300f 	ldrb	r3, [r3, #15]
    f664:	e1a03c03 	lsl	r3, r3, #24
    f668:	e1833002 	orr	r3, r3, r2
    f66c:	e50b301c 	str	r3, [fp, #-28]	; 0xffffffe4
    f670:	e51b301c 	ldr	r3, [fp, #-28]	; 0xffffffe4
    f674:	e5d33002 	ldrb	r3, [r3, #2]
    f678:	e353000a 	cmp	r3, #10
    f67c:	9a00000a 	bls	f6ac <HubAttach+0x2b0>
    f680:	e51b3014 	ldr	r3, [fp, #-20]	; 0xffffffec
    f684:	e3a02000 	mov	r2, #0
    f688:	e382200a 	orr	r2, r2, #10
    f68c:	e5c32010 	strb	r2, [r3, #16]
    f690:	e3a02000 	mov	r2, #0
    f694:	e5c32011 	strb	r2, [r3, #17]
    f698:	e3a02000 	mov	r2, #0
    f69c:	e5c32012 	strb	r2, [r3, #18]
    f6a0:	e3a02000 	mov	r2, #0
    f6a4:	e5c32013 	strb	r2, [r3, #19]
    f6a8:	ea000015 	b	f704 <HubAttach+0x308>
    f6ac:	e51b301c 	ldr	r3, [fp, #-28]	; 0xffffffe4
    f6b0:	e5d33002 	ldrb	r3, [r3, #2]
    f6b4:	e1a02003 	mov	r2, r3
    f6b8:	e51b3014 	ldr	r3, [fp, #-20]	; 0xffffffec
    f6bc:	e20210ff 	and	r1, r2, #255	; 0xff
    f6c0:	e3a00000 	mov	r0, #0
    f6c4:	e1801001 	orr	r1, r0, r1
    f6c8:	e5c31010 	strb	r1, [r3, #16]
    f6cc:	e1a01422 	lsr	r1, r2, #8
    f6d0:	e20110ff 	and	r1, r1, #255	; 0xff
    f6d4:	e3a00000 	mov	r0, #0
    f6d8:	e1801001 	orr	r1, r0, r1
    f6dc:	e5c31011 	strb	r1, [r3, #17]
    f6e0:	e1a01822 	lsr	r1, r2, #16
    f6e4:	e20110ff 	and	r1, r1, #255	; 0xff
    f6e8:	e3a00000 	mov	r0, #0
    f6ec:	e1801001 	orr	r1, r0, r1
    f6f0:	e5c31012 	strb	r1, [r3, #18]
    f6f4:	e1a02c22 	lsr	r2, r2, #24
    f6f8:	e3a01000 	mov	r1, #0
    f6fc:	e1812002 	orr	r2, r1, r2
    f700:	e5c32013 	strb	r2, [r3, #19]
    f704:	e51b301c 	ldr	r3, [fp, #-28]	; 0xffffffe4
    f708:	e5d33003 	ldrb	r3, [r3, #3]
    f70c:	e2033003 	and	r3, r3, #3
    f710:	e20330ff 	and	r3, r3, #255	; 0xff
    f714:	e3530000 	cmp	r3, #0
    f718:	0a000005 	beq	f734 <HubAttach+0x338>
    f71c:	e3530001 	cmp	r3, #1
    f720:	0a000005 	beq	f73c <HubAttach+0x340>
    f724:	e51b0028 	ldr	r0, [fp, #-40]	; 0xffffffd8
    f728:	ebfffca8 	bl	e9d0 <HubDeallocate>
    f72c:	e3e03004 	mvn	r3, #4
    f730:	ea000062 	b	f8c0 <HubAttach+0x4c4>
    f734:	e1a00000 	nop			; (mov r0, r0)
    f738:	ea000000 	b	f740 <HubAttach+0x344>
    f73c:	e1a00000 	nop			; (mov r0, r0)
    f740:	e51b301c 	ldr	r3, [fp, #-28]	; 0xffffffe4
    f744:	e5d33003 	ldrb	r3, [r3, #3]
    f748:	e1a031a3 	lsr	r3, r3, #3
    f74c:	e2033003 	and	r3, r3, #3
    f750:	e20330ff 	and	r3, r3, #255	; 0xff
    f754:	e3530000 	cmp	r3, #0
    f758:	0a000005 	beq	f774 <HubAttach+0x378>
    f75c:	e3530001 	cmp	r3, #1
    f760:	0a000005 	beq	f77c <HubAttach+0x380>
    f764:	e51b0028 	ldr	r0, [fp, #-40]	; 0xffffffd8
    f768:	ebfffc98 	bl	e9d0 <HubDeallocate>
    f76c:	e3e03004 	mvn	r3, #4
    f770:	ea000052 	b	f8c0 <HubAttach+0x4c4>
    f774:	e1a00000 	nop			; (mov r0, r0)
    f778:	ea000000 	b	f780 <HubAttach+0x384>
    f77c:	e1a00000 	nop			; (mov r0, r0)
    f780:	e3a03000 	mov	r3, #0
    f784:	e50b300c 	str	r3, [fp, #-12]
    f788:	ea000002 	b	f798 <HubAttach+0x39c>
    f78c:	e51b300c 	ldr	r3, [fp, #-12]
    f790:	e2833001 	add	r3, r3, #1
    f794:	e50b300c 	str	r3, [fp, #-12]
    f798:	e51b3014 	ldr	r3, [fp, #-20]	; 0xffffffec
    f79c:	e5d32010 	ldrb	r2, [r3, #16]
    f7a0:	e5d31011 	ldrb	r1, [r3, #17]
    f7a4:	e1a01401 	lsl	r1, r1, #8
    f7a8:	e1812002 	orr	r2, r1, r2
    f7ac:	e5d31012 	ldrb	r1, [r3, #18]
    f7b0:	e1a01801 	lsl	r1, r1, #16
    f7b4:	e1812002 	orr	r2, r1, r2
    f7b8:	e5d33013 	ldrb	r3, [r3, #19]
    f7bc:	e1a03c03 	lsl	r3, r3, #24
    f7c0:	e1833002 	orr	r3, r3, r2
    f7c4:	e1a02003 	mov	r2, r3
    f7c8:	e51b300c 	ldr	r3, [fp, #-12]
    f7cc:	e1520003 	cmp	r2, r3
    f7d0:	8affffed 	bhi	f78c <HubAttach+0x390>
    f7d4:	e51b0028 	ldr	r0, [fp, #-40]	; 0xffffffd8
    f7d8:	ebfff89e 	bl	da58 <HubGetStatus>
    f7dc:	e1a03000 	mov	r3, r0
    f7e0:	e54b3015 	strb	r3, [fp, #-21]	; 0xffffffeb
    f7e4:	e15b31d5 	ldrsb	r3, [fp, #-21]	; 0xffffffeb
    f7e8:	e3530000 	cmp	r3, #0
    f7ec:	0a000001 	beq	f7f8 <HubAttach+0x3fc>
    f7f0:	e15b31d5 	ldrsb	r3, [fp, #-21]	; 0xffffffeb
    f7f4:	ea000031 	b	f8c0 <HubAttach+0x4c4>
    f7f8:	e51b3014 	ldr	r3, [fp, #-20]	; 0xffffffec
    f7fc:	e2833008 	add	r3, r3, #8
    f800:	e50b3020 	str	r3, [fp, #-32]	; 0xffffffe0
    f804:	e51b0028 	ldr	r0, [fp, #-40]	; 0xffffffd8
    f808:	ebfff9d9 	bl	df74 <HubPowerOn>
    f80c:	e1a03000 	mov	r3, r0
    f810:	e54b3015 	strb	r3, [fp, #-21]	; 0xffffffeb
    f814:	e15b31d5 	ldrsb	r3, [fp, #-21]	; 0xffffffeb
    f818:	e3530000 	cmp	r3, #0
    f81c:	0a000003 	beq	f830 <HubAttach+0x434>
    f820:	e51b0028 	ldr	r0, [fp, #-40]	; 0xffffffd8
    f824:	ebfffc69 	bl	e9d0 <HubDeallocate>
    f828:	e15b31d5 	ldrsb	r3, [fp, #-21]	; 0xffffffeb
    f82c:	ea000023 	b	f8c0 <HubAttach+0x4c4>
    f830:	e51b0028 	ldr	r0, [fp, #-40]	; 0xffffffd8
    f834:	ebfff887 	bl	da58 <HubGetStatus>
    f838:	e1a03000 	mov	r3, r0
    f83c:	e54b3015 	strb	r3, [fp, #-21]	; 0xffffffeb
    f840:	e15b31d5 	ldrsb	r3, [fp, #-21]	; 0xffffffeb
    f844:	e3530000 	cmp	r3, #0
    f848:	0a000003 	beq	f85c <HubAttach+0x460>
    f84c:	e51b0028 	ldr	r0, [fp, #-40]	; 0xffffffd8
    f850:	ebfffc5e 	bl	e9d0 <HubDeallocate>
    f854:	e15b31d5 	ldrsb	r3, [fp, #-21]	; 0xffffffeb
    f858:	ea000018 	b	f8c0 <HubAttach+0x4c4>
    f85c:	e3a03000 	mov	r3, #0
    f860:	e54b300d 	strb	r3, [fp, #-13]
    f864:	ea000006 	b	f884 <HubAttach+0x488>
    f868:	e55b300d 	ldrb	r3, [fp, #-13]
    f86c:	e1a01003 	mov	r1, r3
    f870:	e51b0028 	ldr	r0, [fp, #-40]	; 0xffffffd8
    f874:	ebfffe61 	bl	f200 <HubCheckConnection>
    f878:	e55b300d 	ldrb	r3, [fp, #-13]
    f87c:	e2833001 	add	r3, r3, #1
    f880:	e54b300d 	strb	r3, [fp, #-13]
    f884:	e55b200d 	ldrb	r2, [fp, #-13]
    f888:	e51b3014 	ldr	r3, [fp, #-20]	; 0xffffffec
    f88c:	e5d31010 	ldrb	r1, [r3, #16]
    f890:	e5d30011 	ldrb	r0, [r3, #17]
    f894:	e1a00400 	lsl	r0, r0, #8
    f898:	e1801001 	orr	r1, r0, r1
    f89c:	e5d30012 	ldrb	r0, [r3, #18]
    f8a0:	e1a00800 	lsl	r0, r0, #16
    f8a4:	e1801001 	orr	r1, r0, r1
    f8a8:	e5d33013 	ldrb	r3, [r3, #19]
    f8ac:	e1a03c03 	lsl	r3, r3, #24
    f8b0:	e1833001 	orr	r3, r3, r1
    f8b4:	e1520003 	cmp	r2, r3
    f8b8:	3affffea 	bcc	f868 <HubAttach+0x46c>
    f8bc:	e3a03000 	mov	r3, #0
    f8c0:	e1a00003 	mov	r0, r3
    f8c4:	e24bd004 	sub	sp, fp, #4
    f8c8:	e8bd4800 	pop	{fp, lr}
    f8cc:	e12fff1e 	bx	lr
    f8d0:	0000e9d0 	.word	0x0000e9d0
    f8d4:	0000e7cc 	.word	0x0000e7cc
    f8d8:	0000ec0c 	.word	0x0000ec0c
    f8dc:	0000ee28 	.word	0x0000ee28
    f8e0:	0000ef50 	.word	0x0000ef50
    f8e4:	0000f060 	.word	0x0000f060

0000f8e8 <SizeFromNumber>:
    f8e8:	e52db004 	push	{fp}		; (str fp, [sp, #-4]!)
    f8ec:	e28db000 	add	fp, sp, #0
    f8f0:	e24dd00c 	sub	sp, sp, #12
    f8f4:	e50b0008 	str	r0, [fp, #-8]
    f8f8:	e51b3008 	ldr	r3, [fp, #-8]
    f8fc:	e3530008 	cmp	r3, #8
    f900:	8a000001 	bhi	f90c <SizeFromNumber+0x24>
    f904:	e3a03000 	mov	r3, #0
    f908:	ea00000a 	b	f938 <SizeFromNumber+0x50>
    f90c:	e51b3008 	ldr	r3, [fp, #-8]
    f910:	e3530010 	cmp	r3, #16
    f914:	8a000001 	bhi	f920 <SizeFromNumber+0x38>
    f918:	e3a03001 	mov	r3, #1
    f91c:	ea000005 	b	f938 <SizeFromNumber+0x50>
    f920:	e51b3008 	ldr	r3, [fp, #-8]
    f924:	e3530020 	cmp	r3, #32
    f928:	8a000001 	bhi	f934 <SizeFromNumber+0x4c>
    f92c:	e3a03002 	mov	r3, #2
    f930:	ea000000 	b	f938 <SizeFromNumber+0x50>
    f934:	e3a03003 	mov	r3, #3
    f938:	e1a00003 	mov	r0, r3
    f93c:	e24bd000 	sub	sp, fp, #0
    f940:	e49db004 	pop	{fp}		; (ldr fp, [sp], #4)
    f944:	e12fff1e 	bx	lr

0000f948 <HidLoad>:
    f948:	e52db004 	push	{fp}		; (str fp, [sp, #-4]!)
    f94c:	e28db000 	add	fp, sp, #0
    f950:	e59f3014 	ldr	r3, [pc, #20]	; f96c <HidLoad+0x24>
    f954:	e59f2014 	ldr	r2, [pc, #20]	; f970 <HidLoad+0x28>
    f958:	e583200c 	str	r2, [r3, #12]
    f95c:	e1a00000 	nop			; (mov r0, r0)
    f960:	e24bd000 	sub	sp, fp, #0
    f964:	e49db004 	pop	{fp}		; (ldr fp, [sp], #4)
    f968:	e12fff1e 	bx	lr
    f96c:	00029798 	.word	0x00029798
    f970:	0001328c 	.word	0x0001328c

0000f974 <HidGetReport>:
    f974:	e92d4800 	push	{fp, lr}
    f978:	e28db004 	add	fp, sp, #4
    f97c:	e24dd020 	sub	sp, sp, #32
    f980:	e50b0018 	str	r0, [fp, #-24]	; 0xffffffe8
    f984:	e1a00001 	mov	r0, r1
    f988:	e1a01002 	mov	r1, r2
    f98c:	e1a02003 	mov	r2, r3
    f990:	e1a03000 	mov	r3, r0
    f994:	e54b3019 	strb	r3, [fp, #-25]	; 0xffffffe7
    f998:	e1a03001 	mov	r3, r1
    f99c:	e54b301a 	strb	r3, [fp, #-26]	; 0xffffffe6
    f9a0:	e1a03002 	mov	r3, r2
    f9a4:	e54b301b 	strb	r3, [fp, #-27]	; 0xffffffe5
    f9a8:	e3a03000 	mov	r3, #0
    f9ac:	e50b3014 	str	r3, [fp, #-20]	; 0xffffffec
    f9b0:	e51b3018 	ldr	r3, [fp, #-24]	; 0xffffffe8
    f9b4:	e5d3302b 	ldrb	r3, [r3, #43]	; 0x2b
    f9b8:	e20330ff 	and	r3, r3, #255	; 0xff
    f9bc:	e1a00003 	mov	r0, r3
    f9c0:	ebffffc8 	bl	f8e8 <SizeFromNumber>
    f9c4:	e1a03000 	mov	r3, r0
    f9c8:	e2033003 	and	r3, r3, #3
    f9cc:	e20320ff 	and	r2, r3, #255	; 0xff
    f9d0:	e55b3014 	ldrb	r3, [fp, #-20]	; 0xffffffec
    f9d4:	e2022003 	and	r2, r2, #3
    f9d8:	e3c33003 	bic	r3, r3, #3
    f9dc:	e1823003 	orr	r3, r2, r3
    f9e0:	e54b3014 	strb	r3, [fp, #-20]	; 0xffffffec
    f9e4:	e51b3018 	ldr	r3, [fp, #-24]	; 0xffffffe8
    f9e8:	e5d33004 	ldrb	r3, [r3, #4]
    f9ec:	e2033003 	and	r3, r3, #3
    f9f0:	e20330ff 	and	r3, r3, #255	; 0xff
    f9f4:	e55b2014 	ldrb	r2, [fp, #-20]	; 0xffffffec
    f9f8:	e2033003 	and	r3, r3, #3
    f9fc:	e3c2200c 	bic	r2, r2, #12
    fa00:	e1a03103 	lsl	r3, r3, #2
    fa04:	e1833002 	orr	r3, r3, r2
    fa08:	e1a02003 	mov	r2, r3
    fa0c:	e54b2014 	strb	r2, [fp, #-20]	; 0xffffffec
    fa10:	e51b3018 	ldr	r3, [fp, #-24]	; 0xffffffe8
    fa14:	e5933000 	ldr	r3, [r3]
    fa18:	e20330ff 	and	r3, r3, #255	; 0xff
    fa1c:	e54b3013 	strb	r3, [fp, #-19]	; 0xffffffed
    fa20:	e55b3012 	ldrb	r3, [fp, #-18]	; 0xffffffee
    fa24:	e3833004 	orr	r3, r3, #4
    fa28:	e54b3012 	strb	r3, [fp, #-18]	; 0xffffffee
    fa2c:	e3e0305e 	mvn	r3, #94	; 0x5e
    fa30:	e54b3010 	strb	r3, [fp, #-16]
    fa34:	e3a03001 	mov	r3, #1
    fa38:	e54b300f 	strb	r3, [fp, #-15]
    fa3c:	e55b3019 	ldrb	r3, [fp, #-25]	; 0xffffffe7
    fa40:	e1a03403 	lsl	r3, r3, #8
    fa44:	e1a03803 	lsl	r3, r3, #16
    fa48:	e1a02843 	asr	r2, r3, #16
    fa4c:	e55b301a 	ldrb	r3, [fp, #-26]	; 0xffffffe6
    fa50:	e1a03803 	lsl	r3, r3, #16
    fa54:	e1a03843 	asr	r3, r3, #16
    fa58:	e1823003 	orr	r3, r2, r3
    fa5c:	e1a03803 	lsl	r3, r3, #16
    fa60:	e1a03843 	asr	r3, r3, #16
    fa64:	e1a03803 	lsl	r3, r3, #16
    fa68:	e1a03823 	lsr	r3, r3, #16
    fa6c:	e14b30be 	strh	r3, [fp, #-14]
    fa70:	e55b301b 	ldrb	r3, [fp, #-27]	; 0xffffffe5
    fa74:	e1a03803 	lsl	r3, r3, #16
    fa78:	e1a03823 	lsr	r3, r3, #16
    fa7c:	e14b30bc 	strh	r3, [fp, #-12]
    fa80:	e59b3004 	ldr	r3, [fp, #4]
    fa84:	e1a03803 	lsl	r3, r3, #16
    fa88:	e1a03823 	lsr	r3, r3, #16
    fa8c:	e14b30ba 	strh	r3, [fp, #-10]
    fa90:	e3a0300a 	mov	r3, #10
    fa94:	e58d3004 	str	r3, [sp, #4]
    fa98:	e24b3010 	sub	r3, fp, #16
    fa9c:	e58d3000 	str	r3, [sp]
    faa0:	e59b3004 	ldr	r3, [fp, #4]
    faa4:	e59b2008 	ldr	r2, [fp, #8]
    faa8:	e51b1014 	ldr	r1, [fp, #-20]	; 0xffffffec
    faac:	e51b0018 	ldr	r0, [fp, #-24]	; 0xffffffe8
    fab0:	ebfff0db 	bl	be24 <UsbControlMessage>
    fab4:	e1a03000 	mov	r3, r0
    fab8:	e54b3005 	strb	r3, [fp, #-5]
    fabc:	e15b30d5 	ldrsb	r3, [fp, #-5]
    fac0:	e3530000 	cmp	r3, #0
    fac4:	0a000001 	beq	fad0 <HidGetReport+0x15c>
    fac8:	e15b30d5 	ldrsb	r3, [fp, #-5]
    facc:	ea000000 	b	fad4 <HidGetReport+0x160>
    fad0:	e3a03000 	mov	r3, #0
    fad4:	e1a00003 	mov	r0, r3
    fad8:	e24bd004 	sub	sp, fp, #4
    fadc:	e8bd4800 	pop	{fp, lr}
    fae0:	e12fff1e 	bx	lr

0000fae4 <HidSetReport>:
    fae4:	e92d4800 	push	{fp, lr}
    fae8:	e28db004 	add	fp, sp, #4
    faec:	e24dd020 	sub	sp, sp, #32
    faf0:	e50b0018 	str	r0, [fp, #-24]	; 0xffffffe8
    faf4:	e1a00001 	mov	r0, r1
    faf8:	e1a01002 	mov	r1, r2
    fafc:	e1a02003 	mov	r2, r3
    fb00:	e1a03000 	mov	r3, r0
    fb04:	e54b3019 	strb	r3, [fp, #-25]	; 0xffffffe7
    fb08:	e1a03001 	mov	r3, r1
    fb0c:	e54b301a 	strb	r3, [fp, #-26]	; 0xffffffe6
    fb10:	e1a03002 	mov	r3, r2
    fb14:	e54b301b 	strb	r3, [fp, #-27]	; 0xffffffe5
    fb18:	e3a03000 	mov	r3, #0
    fb1c:	e50b3014 	str	r3, [fp, #-20]	; 0xffffffec
    fb20:	e51b3018 	ldr	r3, [fp, #-24]	; 0xffffffe8
    fb24:	e5d3302b 	ldrb	r3, [r3, #43]	; 0x2b
    fb28:	e20330ff 	and	r3, r3, #255	; 0xff
    fb2c:	e1a00003 	mov	r0, r3
    fb30:	ebffff6c 	bl	f8e8 <SizeFromNumber>
    fb34:	e1a03000 	mov	r3, r0
    fb38:	e2033003 	and	r3, r3, #3
    fb3c:	e20320ff 	and	r2, r3, #255	; 0xff
    fb40:	e55b3014 	ldrb	r3, [fp, #-20]	; 0xffffffec
    fb44:	e2022003 	and	r2, r2, #3
    fb48:	e3c33003 	bic	r3, r3, #3
    fb4c:	e1823003 	orr	r3, r2, r3
    fb50:	e54b3014 	strb	r3, [fp, #-20]	; 0xffffffec
    fb54:	e51b3018 	ldr	r3, [fp, #-24]	; 0xffffffe8
    fb58:	e5d33004 	ldrb	r3, [r3, #4]
    fb5c:	e2033003 	and	r3, r3, #3
    fb60:	e20330ff 	and	r3, r3, #255	; 0xff
    fb64:	e55b2014 	ldrb	r2, [fp, #-20]	; 0xffffffec
    fb68:	e2033003 	and	r3, r3, #3
    fb6c:	e3c2200c 	bic	r2, r2, #12
    fb70:	e1a03103 	lsl	r3, r3, #2
    fb74:	e1833002 	orr	r3, r3, r2
    fb78:	e1a02003 	mov	r2, r3
    fb7c:	e54b2014 	strb	r2, [fp, #-20]	; 0xffffffec
    fb80:	e51b3018 	ldr	r3, [fp, #-24]	; 0xffffffe8
    fb84:	e5933000 	ldr	r3, [r3]
    fb88:	e20330ff 	and	r3, r3, #255	; 0xff
    fb8c:	e54b3013 	strb	r3, [fp, #-19]	; 0xffffffed
    fb90:	e3a03021 	mov	r3, #33	; 0x21
    fb94:	e54b3010 	strb	r3, [fp, #-16]
    fb98:	e3a03009 	mov	r3, #9
    fb9c:	e54b300f 	strb	r3, [fp, #-15]
    fba0:	e55b3019 	ldrb	r3, [fp, #-25]	; 0xffffffe7
    fba4:	e1a03403 	lsl	r3, r3, #8
    fba8:	e1a03803 	lsl	r3, r3, #16
    fbac:	e1a02843 	asr	r2, r3, #16
    fbb0:	e55b301a 	ldrb	r3, [fp, #-26]	; 0xffffffe6
    fbb4:	e1a03803 	lsl	r3, r3, #16
    fbb8:	e1a03843 	asr	r3, r3, #16
    fbbc:	e1823003 	orr	r3, r2, r3
    fbc0:	e1a03803 	lsl	r3, r3, #16
    fbc4:	e1a03843 	asr	r3, r3, #16
    fbc8:	e1a03803 	lsl	r3, r3, #16
    fbcc:	e1a03823 	lsr	r3, r3, #16
    fbd0:	e14b30be 	strh	r3, [fp, #-14]
    fbd4:	e55b301b 	ldrb	r3, [fp, #-27]	; 0xffffffe5
    fbd8:	e1a03803 	lsl	r3, r3, #16
    fbdc:	e1a03823 	lsr	r3, r3, #16
    fbe0:	e14b30bc 	strh	r3, [fp, #-12]
    fbe4:	e59b3004 	ldr	r3, [fp, #4]
    fbe8:	e1a03803 	lsl	r3, r3, #16
    fbec:	e1a03823 	lsr	r3, r3, #16
    fbf0:	e14b30ba 	strh	r3, [fp, #-10]
    fbf4:	e3a0300a 	mov	r3, #10
    fbf8:	e58d3004 	str	r3, [sp, #4]
    fbfc:	e24b3010 	sub	r3, fp, #16
    fc00:	e58d3000 	str	r3, [sp]
    fc04:	e59b3004 	ldr	r3, [fp, #4]
    fc08:	e59b2008 	ldr	r2, [fp, #8]
    fc0c:	e51b1014 	ldr	r1, [fp, #-20]	; 0xffffffec
    fc10:	e51b0018 	ldr	r0, [fp, #-24]	; 0xffffffe8
    fc14:	ebfff082 	bl	be24 <UsbControlMessage>
    fc18:	e1a03000 	mov	r3, r0
    fc1c:	e54b3005 	strb	r3, [fp, #-5]
    fc20:	e15b30d5 	ldrsb	r3, [fp, #-5]
    fc24:	e3530000 	cmp	r3, #0
    fc28:	0a000001 	beq	fc34 <HidSetReport+0x150>
    fc2c:	e15b30d5 	ldrsb	r3, [fp, #-5]
    fc30:	ea000000 	b	fc38 <HidSetReport+0x154>
    fc34:	e3a03000 	mov	r3, #0
    fc38:	e1a00003 	mov	r0, r3
    fc3c:	e24bd004 	sub	sp, fp, #4
    fc40:	e8bd4800 	pop	{fp, lr}
    fc44:	e12fff1e 	bx	lr

0000fc48 <BitSet>:
    fc48:	e52db004 	push	{fp}		; (str fp, [sp, #-4]!)
    fc4c:	e28db000 	add	fp, sp, #0
    fc50:	e24dd024 	sub	sp, sp, #36	; 0x24
    fc54:	e50b0018 	str	r0, [fp, #-24]	; 0xffffffe8
    fc58:	e50b101c 	str	r1, [fp, #-28]	; 0xffffffe4
    fc5c:	e50b2020 	str	r2, [fp, #-32]	; 0xffffffe0
    fc60:	e50b3024 	str	r3, [fp, #-36]	; 0xffffffdc
    fc64:	e51b3018 	ldr	r3, [fp, #-24]	; 0xffffffe8
    fc68:	e50b3010 	str	r3, [fp, #-16]
    fc6c:	e51b301c 	ldr	r3, [fp, #-28]	; 0xffffffe4
    fc70:	e1a031a3 	lsr	r3, r3, #3
    fc74:	e50b3008 	str	r3, [fp, #-8]
    fc78:	e3a03000 	mov	r3, #0
    fc7c:	e50b300c 	str	r3, [fp, #-12]
    fc80:	ea00009d 	b	fefc <BitSet+0x2b4>
    fc84:	e51b301c 	ldr	r3, [fp, #-28]	; 0xffffffe4
    fc88:	e1a021a3 	lsr	r2, r3, #3
    fc8c:	e51b101c 	ldr	r1, [fp, #-28]	; 0xffffffe4
    fc90:	e51b3020 	ldr	r3, [fp, #-32]	; 0xffffffe0
    fc94:	e0813003 	add	r3, r1, r3
    fc98:	e2433001 	sub	r3, r3, #1
    fc9c:	e1a031a3 	lsr	r3, r3, #3
    fca0:	e1520003 	cmp	r2, r3
    fca4:	1a00002a 	bne	fd54 <BitSet+0x10c>
    fca8:	e51b301c 	ldr	r3, [fp, #-28]	; 0xffffffe4
    fcac:	e2032007 	and	r2, r3, #7
    fcb0:	e51b3020 	ldr	r3, [fp, #-32]	; 0xffffffe0
    fcb4:	e0823003 	add	r3, r2, r3
    fcb8:	e3a02001 	mov	r2, #1
    fcbc:	e1a03312 	lsl	r3, r2, r3
    fcc0:	e20320ff 	and	r2, r3, #255	; 0xff
    fcc4:	e51b301c 	ldr	r3, [fp, #-28]	; 0xffffffe4
    fcc8:	e2033007 	and	r3, r3, #7
    fccc:	e3a01001 	mov	r1, #1
    fcd0:	e1a03311 	lsl	r3, r1, r3
    fcd4:	e20330ff 	and	r3, r3, #255	; 0xff
    fcd8:	e0633002 	rsb	r3, r3, r2
    fcdc:	e54b3011 	strb	r3, [fp, #-17]	; 0xffffffef
    fce0:	e51b2010 	ldr	r2, [fp, #-16]
    fce4:	e51b3008 	ldr	r3, [fp, #-8]
    fce8:	e0823003 	add	r3, r2, r3
    fcec:	e51b1010 	ldr	r1, [fp, #-16]
    fcf0:	e51b2008 	ldr	r2, [fp, #-8]
    fcf4:	e0812002 	add	r2, r1, r2
    fcf8:	e5d22000 	ldrb	r2, [r2]
    fcfc:	e1a02c02 	lsl	r2, r2, #24
    fd00:	e1a01c42 	asr	r1, r2, #24
    fd04:	e15b21d1 	ldrsb	r2, [fp, #-17]	; 0xffffffef
    fd08:	e1e02002 	mvn	r2, r2
    fd0c:	e1a02c02 	lsl	r2, r2, #24
    fd10:	e1a02c42 	asr	r2, r2, #24
    fd14:	e0022001 	and	r2, r2, r1
    fd18:	e1a02c02 	lsl	r2, r2, #24
    fd1c:	e1a02c42 	asr	r2, r2, #24
    fd20:	e20210ff 	and	r1, r2, #255	; 0xff
    fd24:	e51b201c 	ldr	r2, [fp, #-28]	; 0xffffffe4
    fd28:	e2022007 	and	r2, r2, #7
    fd2c:	e51b0024 	ldr	r0, [fp, #-36]	; 0xffffffdc
    fd30:	e1a02210 	lsl	r2, r0, r2
    fd34:	e20200ff 	and	r0, r2, #255	; 0xff
    fd38:	e55b2011 	ldrb	r2, [fp, #-17]	; 0xffffffef
    fd3c:	e0022000 	and	r2, r2, r0
    fd40:	e20220ff 	and	r2, r2, #255	; 0xff
    fd44:	e1812002 	orr	r2, r1, r2
    fd48:	e20220ff 	and	r2, r2, #255	; 0xff
    fd4c:	e5c32000 	strb	r2, [r3]
    fd50:	ea000066 	b	fef0 <BitSet+0x2a8>
    fd54:	e51b301c 	ldr	r3, [fp, #-28]	; 0xffffffe4
    fd58:	e1a021a3 	lsr	r2, r3, #3
    fd5c:	e51b3008 	ldr	r3, [fp, #-8]
    fd60:	e1520003 	cmp	r2, r3
    fd64:	1a000029 	bne	fe10 <BitSet+0x1c8>
    fd68:	e51b301c 	ldr	r3, [fp, #-28]	; 0xffffffe4
    fd6c:	e2033007 	and	r3, r3, #7
    fd70:	e3a02001 	mov	r2, #1
    fd74:	e1a03312 	lsl	r3, r2, r3
    fd78:	e20330ff 	and	r3, r3, #255	; 0xff
    fd7c:	e2633000 	rsb	r3, r3, #0
    fd80:	e54b3011 	strb	r3, [fp, #-17]	; 0xffffffef
    fd84:	e51b2010 	ldr	r2, [fp, #-16]
    fd88:	e51b3008 	ldr	r3, [fp, #-8]
    fd8c:	e0823003 	add	r3, r2, r3
    fd90:	e51b1010 	ldr	r1, [fp, #-16]
    fd94:	e51b2008 	ldr	r2, [fp, #-8]
    fd98:	e0812002 	add	r2, r1, r2
    fd9c:	e5d22000 	ldrb	r2, [r2]
    fda0:	e1a02c02 	lsl	r2, r2, #24
    fda4:	e1a01c42 	asr	r1, r2, #24
    fda8:	e15b21d1 	ldrsb	r2, [fp, #-17]	; 0xffffffef
    fdac:	e1e02002 	mvn	r2, r2
    fdb0:	e1a02c02 	lsl	r2, r2, #24
    fdb4:	e1a02c42 	asr	r2, r2, #24
    fdb8:	e0022001 	and	r2, r2, r1
    fdbc:	e1a02c02 	lsl	r2, r2, #24
    fdc0:	e1a02c42 	asr	r2, r2, #24
    fdc4:	e20210ff 	and	r1, r2, #255	; 0xff
    fdc8:	e51b201c 	ldr	r2, [fp, #-28]	; 0xffffffe4
    fdcc:	e2022007 	and	r2, r2, #7
    fdd0:	e51b0024 	ldr	r0, [fp, #-36]	; 0xffffffdc
    fdd4:	e1a02210 	lsl	r2, r0, r2
    fdd8:	e20200ff 	and	r0, r2, #255	; 0xff
    fddc:	e55b2011 	ldrb	r2, [fp, #-17]	; 0xffffffef
    fde0:	e0022000 	and	r2, r2, r0
    fde4:	e20220ff 	and	r2, r2, #255	; 0xff
    fde8:	e1812002 	orr	r2, r1, r2
    fdec:	e20220ff 	and	r2, r2, #255	; 0xff
    fdf0:	e5c32000 	strb	r2, [r3]
    fdf4:	e51b301c 	ldr	r3, [fp, #-28]	; 0xffffffe4
    fdf8:	e2033007 	and	r3, r3, #7
    fdfc:	e51b200c 	ldr	r2, [fp, #-12]
    fe00:	e0633002 	rsb	r3, r3, r2
    fe04:	e2833008 	add	r3, r3, #8
    fe08:	e50b300c 	str	r3, [fp, #-12]
    fe0c:	ea000037 	b	fef0 <BitSet+0x2a8>
    fe10:	e51b201c 	ldr	r2, [fp, #-28]	; 0xffffffe4
    fe14:	e51b3020 	ldr	r3, [fp, #-32]	; 0xffffffe0
    fe18:	e0823003 	add	r3, r2, r3
    fe1c:	e2433001 	sub	r3, r3, #1
    fe20:	e1a021a3 	lsr	r2, r3, #3
    fe24:	e51b3008 	ldr	r3, [fp, #-8]
    fe28:	e1520003 	cmp	r2, r3
    fe2c:	1a000024 	bne	fec4 <BitSet+0x27c>
    fe30:	e51b301c 	ldr	r3, [fp, #-28]	; 0xffffffe4
    fe34:	e2032007 	and	r2, r3, #7
    fe38:	e51b3020 	ldr	r3, [fp, #-32]	; 0xffffffe0
    fe3c:	e0823003 	add	r3, r2, r3
    fe40:	e3a02001 	mov	r2, #1
    fe44:	e1a03312 	lsl	r3, r2, r3
    fe48:	e20330ff 	and	r3, r3, #255	; 0xff
    fe4c:	e2433001 	sub	r3, r3, #1
    fe50:	e54b3011 	strb	r3, [fp, #-17]	; 0xffffffef
    fe54:	e51b2010 	ldr	r2, [fp, #-16]
    fe58:	e51b3008 	ldr	r3, [fp, #-8]
    fe5c:	e0823003 	add	r3, r2, r3
    fe60:	e51b1010 	ldr	r1, [fp, #-16]
    fe64:	e51b2008 	ldr	r2, [fp, #-8]
    fe68:	e0812002 	add	r2, r1, r2
    fe6c:	e5d22000 	ldrb	r2, [r2]
    fe70:	e1a02c02 	lsl	r2, r2, #24
    fe74:	e1a01c42 	asr	r1, r2, #24
    fe78:	e15b21d1 	ldrsb	r2, [fp, #-17]	; 0xffffffef
    fe7c:	e1e02002 	mvn	r2, r2
    fe80:	e1a02c02 	lsl	r2, r2, #24
    fe84:	e1a02c42 	asr	r2, r2, #24
    fe88:	e0022001 	and	r2, r2, r1
    fe8c:	e1a02c02 	lsl	r2, r2, #24
    fe90:	e1a02c42 	asr	r2, r2, #24
    fe94:	e20210ff 	and	r1, r2, #255	; 0xff
    fe98:	e51b0024 	ldr	r0, [fp, #-36]	; 0xffffffdc
    fe9c:	e51b200c 	ldr	r2, [fp, #-12]
    fea0:	e1a02230 	lsr	r2, r0, r2
    fea4:	e20200ff 	and	r0, r2, #255	; 0xff
    fea8:	e55b2011 	ldrb	r2, [fp, #-17]	; 0xffffffef
    feac:	e0022000 	and	r2, r2, r0
    feb0:	e20220ff 	and	r2, r2, #255	; 0xff
    feb4:	e1812002 	orr	r2, r1, r2
    feb8:	e20220ff 	and	r2, r2, #255	; 0xff
    febc:	e5c32000 	strb	r2, [r3]
    fec0:	ea00000a 	b	fef0 <BitSet+0x2a8>
    fec4:	e51b2010 	ldr	r2, [fp, #-16]
    fec8:	e51b3008 	ldr	r3, [fp, #-8]
    fecc:	e0823003 	add	r3, r2, r3
    fed0:	e51b1024 	ldr	r1, [fp, #-36]	; 0xffffffdc
    fed4:	e51b200c 	ldr	r2, [fp, #-12]
    fed8:	e1a02231 	lsr	r2, r1, r2
    fedc:	e20220ff 	and	r2, r2, #255	; 0xff
    fee0:	e5c32000 	strb	r2, [r3]
    fee4:	e51b300c 	ldr	r3, [fp, #-12]
    fee8:	e2833008 	add	r3, r3, #8
    feec:	e50b300c 	str	r3, [fp, #-12]
    fef0:	e51b3008 	ldr	r3, [fp, #-8]
    fef4:	e2833001 	add	r3, r3, #1
    fef8:	e50b3008 	str	r3, [fp, #-8]
    fefc:	e51b201c 	ldr	r2, [fp, #-28]	; 0xffffffe4
    ff00:	e51b3020 	ldr	r3, [fp, #-32]	; 0xffffffe0
    ff04:	e0823003 	add	r3, r2, r3
    ff08:	e2833007 	add	r3, r3, #7
    ff0c:	e1a021a3 	lsr	r2, r3, #3
    ff10:	e51b3008 	ldr	r3, [fp, #-8]
    ff14:	e1520003 	cmp	r2, r3
    ff18:	8affff59 	bhi	fc84 <BitSet+0x3c>
    ff1c:	e1a00000 	nop			; (mov r0, r0)
    ff20:	e24bd000 	sub	sp, fp, #0
    ff24:	e49db004 	pop	{fp}		; (ldr fp, [sp], #4)
    ff28:	e12fff1e 	bx	lr

0000ff2c <BitGetUnsigned>:
    ff2c:	e52db004 	push	{fp}		; (str fp, [sp, #-4]!)
    ff30:	e28db000 	add	fp, sp, #0
    ff34:	e24dd02c 	sub	sp, sp, #44	; 0x2c
    ff38:	e50b0020 	str	r0, [fp, #-32]	; 0xffffffe0
    ff3c:	e50b1024 	str	r1, [fp, #-36]	; 0xffffffdc
    ff40:	e50b2028 	str	r2, [fp, #-40]	; 0xffffffd8
    ff44:	e51b3020 	ldr	r3, [fp, #-32]	; 0xffffffe0
    ff48:	e50b3014 	str	r3, [fp, #-20]	; 0xffffffec
    ff4c:	e3a03000 	mov	r3, #0
    ff50:	e50b3008 	str	r3, [fp, #-8]
    ff54:	e51b3024 	ldr	r3, [fp, #-36]	; 0xffffffdc
    ff58:	e1a031a3 	lsr	r3, r3, #3
    ff5c:	e50b300c 	str	r3, [fp, #-12]
    ff60:	e3a03000 	mov	r3, #0
    ff64:	e50b3010 	str	r3, [fp, #-16]
    ff68:	ea000076 	b	10148 <BitGetUnsigned+0x21c>
    ff6c:	e51b3024 	ldr	r3, [fp, #-36]	; 0xffffffdc
    ff70:	e1a021a3 	lsr	r2, r3, #3
    ff74:	e51b1024 	ldr	r1, [fp, #-36]	; 0xffffffdc
    ff78:	e51b3028 	ldr	r3, [fp, #-40]	; 0xffffffd8
    ff7c:	e0813003 	add	r3, r1, r3
    ff80:	e2433001 	sub	r3, r3, #1
    ff84:	e1a031a3 	lsr	r3, r3, #3
    ff88:	e1520003 	cmp	r2, r3
    ff8c:	1a00001a 	bne	fffc <BitGetUnsigned+0xd0>
    ff90:	e51b3024 	ldr	r3, [fp, #-36]	; 0xffffffdc
    ff94:	e2032007 	and	r2, r3, #7
    ff98:	e51b3028 	ldr	r3, [fp, #-40]	; 0xffffffd8
    ff9c:	e0823003 	add	r3, r2, r3
    ffa0:	e3a02001 	mov	r2, #1
    ffa4:	e1a03312 	lsl	r3, r2, r3
    ffa8:	e20320ff 	and	r2, r3, #255	; 0xff
    ffac:	e51b3024 	ldr	r3, [fp, #-36]	; 0xffffffdc
    ffb0:	e2033007 	and	r3, r3, #7
    ffb4:	e3a01001 	mov	r1, #1
    ffb8:	e1a03311 	lsl	r3, r1, r3
    ffbc:	e20330ff 	and	r3, r3, #255	; 0xff
    ffc0:	e0633002 	rsb	r3, r3, r2
    ffc4:	e54b3015 	strb	r3, [fp, #-21]	; 0xffffffeb
    ffc8:	e51b2014 	ldr	r2, [fp, #-20]	; 0xffffffec
    ffcc:	e51b300c 	ldr	r3, [fp, #-12]
    ffd0:	e0823003 	add	r3, r2, r3
    ffd4:	e5d32000 	ldrb	r2, [r3]
    ffd8:	e55b3015 	ldrb	r3, [fp, #-21]	; 0xffffffeb
    ffdc:	e0033002 	and	r3, r3, r2
    ffe0:	e20330ff 	and	r3, r3, #255	; 0xff
    ffe4:	e1a02003 	mov	r2, r3
    ffe8:	e51b3024 	ldr	r3, [fp, #-36]	; 0xffffffdc
    ffec:	e2033007 	and	r3, r3, #7
    fff0:	e1a03352 	asr	r3, r2, r3
    fff4:	e50b3008 	str	r3, [fp, #-8]
    fff8:	ea00004f 	b	1013c <BitGetUnsigned+0x210>
    fffc:	e51b3024 	ldr	r3, [fp, #-36]	; 0xffffffdc
   10000:	e1a021a3 	lsr	r2, r3, #3
   10004:	e51b300c 	ldr	r3, [fp, #-12]
   10008:	e1520003 	cmp	r2, r3
   1000c:	1a00001d 	bne	10088 <BitGetUnsigned+0x15c>
   10010:	e51b3024 	ldr	r3, [fp, #-36]	; 0xffffffdc
   10014:	e2033007 	and	r3, r3, #7
   10018:	e3a02001 	mov	r2, #1
   1001c:	e1a03312 	lsl	r3, r2, r3
   10020:	e20330ff 	and	r3, r3, #255	; 0xff
   10024:	e2633000 	rsb	r3, r3, #0
   10028:	e54b3015 	strb	r3, [fp, #-21]	; 0xffffffeb
   1002c:	e51b3024 	ldr	r3, [fp, #-36]	; 0xffffffdc
   10030:	e2033007 	and	r3, r3, #7
   10034:	e51b2010 	ldr	r2, [fp, #-16]
   10038:	e0633002 	rsb	r3, r3, r2
   1003c:	e2833008 	add	r3, r3, #8
   10040:	e50b3010 	str	r3, [fp, #-16]
   10044:	e51b2014 	ldr	r2, [fp, #-20]	; 0xffffffec
   10048:	e51b300c 	ldr	r3, [fp, #-12]
   1004c:	e0823003 	add	r3, r2, r3
   10050:	e5d32000 	ldrb	r2, [r3]
   10054:	e55b3015 	ldrb	r3, [fp, #-21]	; 0xffffffeb
   10058:	e0033002 	and	r3, r3, r2
   1005c:	e20330ff 	and	r3, r3, #255	; 0xff
   10060:	e1a02003 	mov	r2, r3
   10064:	e51b3024 	ldr	r3, [fp, #-36]	; 0xffffffdc
   10068:	e2033007 	and	r3, r3, #7
   1006c:	e1a02352 	asr	r2, r2, r3
   10070:	e51b1028 	ldr	r1, [fp, #-40]	; 0xffffffd8
   10074:	e51b3010 	ldr	r3, [fp, #-16]
   10078:	e0633001 	rsb	r3, r3, r1
   1007c:	e1a03312 	lsl	r3, r2, r3
   10080:	e50b3008 	str	r3, [fp, #-8]
   10084:	ea00002c 	b	1013c <BitGetUnsigned+0x210>
   10088:	e51b2024 	ldr	r2, [fp, #-36]	; 0xffffffdc
   1008c:	e51b3028 	ldr	r3, [fp, #-40]	; 0xffffffd8
   10090:	e0823003 	add	r3, r2, r3
   10094:	e2433001 	sub	r3, r3, #1
   10098:	e1a021a3 	lsr	r2, r3, #3
   1009c:	e51b300c 	ldr	r3, [fp, #-12]
   100a0:	e1520003 	cmp	r2, r3
   100a4:	1a000014 	bne	100fc <BitGetUnsigned+0x1d0>
   100a8:	e51b3024 	ldr	r3, [fp, #-36]	; 0xffffffdc
   100ac:	e2032007 	and	r2, r3, #7
   100b0:	e51b3028 	ldr	r3, [fp, #-40]	; 0xffffffd8
   100b4:	e0823003 	add	r3, r2, r3
   100b8:	e3a02001 	mov	r2, #1
   100bc:	e1a03312 	lsl	r3, r2, r3
   100c0:	e20330ff 	and	r3, r3, #255	; 0xff
   100c4:	e2433001 	sub	r3, r3, #1
   100c8:	e54b3015 	strb	r3, [fp, #-21]	; 0xffffffeb
   100cc:	e51b2014 	ldr	r2, [fp, #-20]	; 0xffffffec
   100d0:	e51b300c 	ldr	r3, [fp, #-12]
   100d4:	e0823003 	add	r3, r2, r3
   100d8:	e5d32000 	ldrb	r2, [r3]
   100dc:	e55b3015 	ldrb	r3, [fp, #-21]	; 0xffffffeb
   100e0:	e0033002 	and	r3, r3, r2
   100e4:	e20330ff 	and	r3, r3, #255	; 0xff
   100e8:	e1a02003 	mov	r2, r3
   100ec:	e51b3008 	ldr	r3, [fp, #-8]
   100f0:	e1833002 	orr	r3, r3, r2
   100f4:	e50b3008 	str	r3, [fp, #-8]
   100f8:	ea00000f 	b	1013c <BitGetUnsigned+0x210>
   100fc:	e51b3010 	ldr	r3, [fp, #-16]
   10100:	e2833008 	add	r3, r3, #8
   10104:	e50b3010 	str	r3, [fp, #-16]
   10108:	e51b2014 	ldr	r2, [fp, #-20]	; 0xffffffec
   1010c:	e51b300c 	ldr	r3, [fp, #-12]
   10110:	e0823003 	add	r3, r2, r3
   10114:	e5d33000 	ldrb	r3, [r3]
   10118:	e1a01003 	mov	r1, r3
   1011c:	e51b2028 	ldr	r2, [fp, #-40]	; 0xffffffd8
   10120:	e51b3010 	ldr	r3, [fp, #-16]
   10124:	e0633002 	rsb	r3, r3, r2
   10128:	e1a03311 	lsl	r3, r1, r3
   1012c:	e1a02003 	mov	r2, r3
   10130:	e51b3008 	ldr	r3, [fp, #-8]
   10134:	e1833002 	orr	r3, r3, r2
   10138:	e50b3008 	str	r3, [fp, #-8]
   1013c:	e51b300c 	ldr	r3, [fp, #-12]
   10140:	e2833001 	add	r3, r3, #1
   10144:	e50b300c 	str	r3, [fp, #-12]
   10148:	e51b2024 	ldr	r2, [fp, #-36]	; 0xffffffdc
   1014c:	e51b3028 	ldr	r3, [fp, #-40]	; 0xffffffd8
   10150:	e0823003 	add	r3, r2, r3
   10154:	e2833007 	add	r3, r3, #7
   10158:	e1a021a3 	lsr	r2, r3, #3
   1015c:	e51b300c 	ldr	r3, [fp, #-12]
   10160:	e1520003 	cmp	r2, r3
   10164:	8affff80 	bhi	ff6c <BitGetUnsigned+0x40>
   10168:	e51b3008 	ldr	r3, [fp, #-8]
   1016c:	e1a00003 	mov	r0, r3
   10170:	e24bd000 	sub	sp, fp, #0
   10174:	e49db004 	pop	{fp}		; (ldr fp, [sp], #4)
   10178:	e12fff1e 	bx	lr

0001017c <BitGetSigned>:
   1017c:	e92d4800 	push	{fp, lr}
   10180:	e28db004 	add	fp, sp, #4
   10184:	e24dd018 	sub	sp, sp, #24
   10188:	e50b0010 	str	r0, [fp, #-16]
   1018c:	e50b1014 	str	r1, [fp, #-20]	; 0xffffffec
   10190:	e50b2018 	str	r2, [fp, #-24]	; 0xffffffe8
   10194:	e51b2018 	ldr	r2, [fp, #-24]	; 0xffffffe8
   10198:	e51b1014 	ldr	r1, [fp, #-20]	; 0xffffffec
   1019c:	e51b0010 	ldr	r0, [fp, #-16]
   101a0:	ebffff61 	bl	ff2c <BitGetUnsigned>
   101a4:	e50b0008 	str	r0, [fp, #-8]
   101a8:	e51b3018 	ldr	r3, [fp, #-24]	; 0xffffffe8
   101ac:	e2433001 	sub	r3, r3, #1
   101b0:	e3a02001 	mov	r2, #1
   101b4:	e1a03312 	lsl	r3, r2, r3
   101b8:	e1a02003 	mov	r2, r3
   101bc:	e51b3008 	ldr	r3, [fp, #-8]
   101c0:	e0033002 	and	r3, r3, r2
   101c4:	e3530000 	cmp	r3, #0
   101c8:	0a000007 	beq	101ec <BitGetSigned+0x70>
   101cc:	e3a02001 	mov	r2, #1
   101d0:	e51b3018 	ldr	r3, [fp, #-24]	; 0xffffffe8
   101d4:	e1a03312 	lsl	r3, r2, r3
   101d8:	e2633000 	rsb	r3, r3, #0
   101dc:	e1a02003 	mov	r2, r3
   101e0:	e51b3008 	ldr	r3, [fp, #-8]
   101e4:	e1833002 	orr	r3, r3, r2
   101e8:	e50b3008 	str	r3, [fp, #-8]
   101ec:	e51b3008 	ldr	r3, [fp, #-8]
   101f0:	e1a00003 	mov	r0, r3
   101f4:	e24bd004 	sub	sp, fp, #4
   101f8:	e8bd4800 	pop	{fp, lr}
   101fc:	e12fff1e 	bx	lr

00010200 <HidReadDevice>:
   10200:	e92d4870 	push	{r4, r5, r6, fp, lr}
   10204:	e28db010 	add	fp, sp, #16
   10208:	e24dd034 	sub	sp, sp, #52	; 0x34
   1020c:	e50b0038 	str	r0, [fp, #-56]	; 0xffffffc8
   10210:	e1a03001 	mov	r3, r1
   10214:	e54b3039 	strb	r3, [fp, #-57]	; 0xffffffc7
   10218:	e51b3038 	ldr	r3, [fp, #-56]	; 0xffffffc8
   1021c:	e5933414 	ldr	r3, [r3, #1044]	; 0x414
   10220:	e50b3020 	str	r3, [fp, #-32]	; 0xffffffe0
   10224:	e51b3020 	ldr	r3, [fp, #-32]	; 0xffffffe0
   10228:	e5d3200c 	ldrb	r2, [r3, #12]
   1022c:	e5d3100d 	ldrb	r1, [r3, #13]
   10230:	e1a01401 	lsl	r1, r1, #8
   10234:	e1812002 	orr	r2, r1, r2
   10238:	e5d3100e 	ldrb	r1, [r3, #14]
   1023c:	e1a01801 	lsl	r1, r1, #16
   10240:	e1812002 	orr	r2, r1, r2
   10244:	e5d3300f 	ldrb	r3, [r3, #15]
   10248:	e1a03c03 	lsl	r3, r3, #24
   1024c:	e1833002 	orr	r3, r3, r2
   10250:	e50b3024 	str	r3, [fp, #-36]	; 0xffffffdc
   10254:	e55b2039 	ldrb	r2, [fp, #-57]	; 0xffffffc7
   10258:	e51b3024 	ldr	r3, [fp, #-36]	; 0xffffffdc
   1025c:	e2822002 	add	r2, r2, #2
   10260:	e7933102 	ldr	r3, [r3, r2, lsl #2]
   10264:	e50b3028 	str	r3, [fp, #-40]	; 0xffffffd8
   10268:	e51b3028 	ldr	r3, [fp, #-40]	; 0xffffffd8
   1026c:	e5d33004 	ldrb	r3, [r3, #4]
   10270:	e2833007 	add	r3, r3, #7
   10274:	e2832007 	add	r2, r3, #7
   10278:	e3530000 	cmp	r3, #0
   1027c:	b1a03002 	movlt	r3, r2
   10280:	a1a03003 	movge	r3, r3
   10284:	e1a031c3 	asr	r3, r3, #3
   10288:	e50b302c 	str	r3, [fp, #-44]	; 0xffffffd4
   1028c:	e51b3028 	ldr	r3, [fp, #-40]	; 0xffffffd8
   10290:	e5932004 	ldr	r2, [r3, #4]
   10294:	e1a02422 	lsr	r2, r2, #8
   10298:	e5d33008 	ldrb	r3, [r3, #8]
   1029c:	e1a03c03 	lsl	r3, r3, #24
   102a0:	e1833002 	orr	r3, r3, r2
   102a4:	e3530000 	cmp	r3, #0
   102a8:	1a00001f 	bne	1032c <HidReadDevice+0x12c>
   102ac:	e51b002c 	ldr	r0, [fp, #-44]	; 0xffffffd4
   102b0:	ebffeb53 	bl	b004 <MemoryAllocate>
   102b4:	e1a02000 	mov	r2, r0
   102b8:	e51b3028 	ldr	r3, [fp, #-40]	; 0xffffffd8
   102bc:	e20210ff 	and	r1, r2, #255	; 0xff
   102c0:	e3a00000 	mov	r0, #0
   102c4:	e1801001 	orr	r1, r0, r1
   102c8:	e5c31005 	strb	r1, [r3, #5]
   102cc:	e1a01422 	lsr	r1, r2, #8
   102d0:	e20110ff 	and	r1, r1, #255	; 0xff
   102d4:	e3a00000 	mov	r0, #0
   102d8:	e1801001 	orr	r1, r0, r1
   102dc:	e5c31006 	strb	r1, [r3, #6]
   102e0:	e1a01822 	lsr	r1, r2, #16
   102e4:	e20110ff 	and	r1, r1, #255	; 0xff
   102e8:	e3a00000 	mov	r0, #0
   102ec:	e1801001 	orr	r1, r0, r1
   102f0:	e5c31007 	strb	r1, [r3, #7]
   102f4:	e1a02c22 	lsr	r2, r2, #24
   102f8:	e3a01000 	mov	r1, #0
   102fc:	e1812002 	orr	r2, r1, r2
   10300:	e5c32008 	strb	r2, [r3, #8]
   10304:	e51b3028 	ldr	r3, [fp, #-40]	; 0xffffffd8
   10308:	e5932004 	ldr	r2, [r3, #4]
   1030c:	e1a02422 	lsr	r2, r2, #8
   10310:	e5d33008 	ldrb	r3, [r3, #8]
   10314:	e1a03c03 	lsl	r3, r3, #24
   10318:	e1833002 	orr	r3, r3, r2
   1031c:	e3530000 	cmp	r3, #0
   10320:	1a000001 	bne	1032c <HidReadDevice+0x12c>
   10324:	e3e03006 	mvn	r3, #6
   10328:	ea0000b4 	b	10600 <HidReadDevice+0x400>
   1032c:	e51b3028 	ldr	r3, [fp, #-40]	; 0xffffffd8
   10330:	e5d30003 	ldrb	r0, [r3, #3]
   10334:	e51b3028 	ldr	r3, [fp, #-40]	; 0xffffffd8
   10338:	e5d3c002 	ldrb	ip, [r3, #2]
   1033c:	e51b3020 	ldr	r3, [fp, #-32]	; 0xffffffe0
   10340:	e5d3200c 	ldrb	r2, [r3, #12]
   10344:	e5d3100d 	ldrb	r1, [r3, #13]
   10348:	e1a01401 	lsl	r1, r1, #8
   1034c:	e1812002 	orr	r2, r1, r2
   10350:	e5d3100e 	ldrb	r1, [r3, #14]
   10354:	e1a01801 	lsl	r1, r1, #16
   10358:	e1812002 	orr	r2, r1, r2
   1035c:	e5d3300f 	ldrb	r3, [r3, #15]
   10360:	e1a03c03 	lsl	r3, r3, #24
   10364:	e1833002 	orr	r3, r3, r2
   10368:	e5d31005 	ldrb	r1, [r3, #5]
   1036c:	e51b3028 	ldr	r3, [fp, #-40]	; 0xffffffd8
   10370:	e5932004 	ldr	r2, [r3, #4]
   10374:	e1a02422 	lsr	r2, r2, #8
   10378:	e5d33008 	ldrb	r3, [r3, #8]
   1037c:	e1a03c03 	lsl	r3, r3, #24
   10380:	e1833002 	orr	r3, r3, r2
   10384:	e58d3004 	str	r3, [sp, #4]
   10388:	e51b302c 	ldr	r3, [fp, #-44]	; 0xffffffd4
   1038c:	e58d3000 	str	r3, [sp]
   10390:	e1a03001 	mov	r3, r1
   10394:	e1a0200c 	mov	r2, ip
   10398:	e1a01000 	mov	r1, r0
   1039c:	e51b0038 	ldr	r0, [fp, #-56]	; 0xffffffc8
   103a0:	ebfffd73 	bl	f974 <HidGetReport>
   103a4:	e1a03000 	mov	r3, r0
   103a8:	e54b302d 	strb	r3, [fp, #-45]	; 0xffffffd3
   103ac:	e15b32dd 	ldrsb	r3, [fp, #-45]	; 0xffffffd3
   103b0:	e3530000 	cmp	r3, #0
   103b4:	0a000001 	beq	103c0 <HidReadDevice+0x1c0>
   103b8:	e15b32dd 	ldrsb	r3, [fp, #-45]	; 0xffffffd3
   103bc:	ea00008f 	b	10600 <HidReadDevice+0x400>
   103c0:	e3a03000 	mov	r3, #0
   103c4:	e50b3018 	str	r3, [fp, #-24]	; 0xffffffe8
   103c8:	ea000085 	b	105e4 <HidReadDevice+0x3e4>
   103cc:	e51b2018 	ldr	r2, [fp, #-24]	; 0xffffffe8
   103d0:	e1a03002 	mov	r3, r2
   103d4:	e1a03103 	lsl	r3, r3, #2
   103d8:	e0833002 	add	r3, r3, r2
   103dc:	e1a03083 	lsl	r3, r3, #1
   103e0:	e0833002 	add	r3, r3, r2
   103e4:	e1a03103 	lsl	r3, r3, #2
   103e8:	e2833008 	add	r3, r3, #8
   103ec:	e51b2028 	ldr	r2, [fp, #-40]	; 0xffffffd8
   103f0:	e0823003 	add	r3, r2, r3
   103f4:	e2833004 	add	r3, r3, #4
   103f8:	e50b3034 	str	r3, [fp, #-52]	; 0xffffffcc
   103fc:	e51b3034 	ldr	r3, [fp, #-52]	; 0xffffffcc
   10400:	e5d33004 	ldrb	r3, [r3, #4]
   10404:	e2033002 	and	r3, r3, #2
   10408:	e20330ff 	and	r3, r3, #255	; 0xff
   1040c:	e3530000 	cmp	r3, #0
   10410:	0a000027 	beq	104b4 <HidReadDevice+0x2b4>
   10414:	e51b3034 	ldr	r3, [fp, #-52]	; 0xffffffcc
   10418:	e5933010 	ldr	r3, [r3, #16]
   1041c:	e3530000 	cmp	r3, #0
   10420:	aa000011 	bge	1046c <HidReadDevice+0x26c>
   10424:	e51b3028 	ldr	r3, [fp, #-40]	; 0xffffffd8
   10428:	e5932004 	ldr	r2, [r3, #4]
   1042c:	e1a02422 	lsr	r2, r2, #8
   10430:	e5d33008 	ldrb	r3, [r3, #8]
   10434:	e1a03c03 	lsl	r3, r3, #24
   10438:	e1833002 	orr	r3, r3, r2
   1043c:	e1a00003 	mov	r0, r3
   10440:	e51b3034 	ldr	r3, [fp, #-52]	; 0xffffffcc
   10444:	e5d33001 	ldrb	r3, [r3, #1]
   10448:	e1a01003 	mov	r1, r3
   1044c:	e51b3034 	ldr	r3, [fp, #-52]	; 0xffffffcc
   10450:	e5d33000 	ldrb	r3, [r3]
   10454:	e1a02003 	mov	r2, r3
   10458:	ebffff47 	bl	1017c <BitGetSigned>
   1045c:	e1a02000 	mov	r2, r0
   10460:	e51b3034 	ldr	r3, [fp, #-52]	; 0xffffffcc
   10464:	e5832028 	str	r2, [r3, #40]	; 0x28
   10468:	ea00005a 	b	105d8 <HidReadDevice+0x3d8>
   1046c:	e51b3028 	ldr	r3, [fp, #-40]	; 0xffffffd8
   10470:	e5932004 	ldr	r2, [r3, #4]
   10474:	e1a02422 	lsr	r2, r2, #8
   10478:	e5d33008 	ldrb	r3, [r3, #8]
   1047c:	e1a03c03 	lsl	r3, r3, #24
   10480:	e1833002 	orr	r3, r3, r2
   10484:	e1a00003 	mov	r0, r3
   10488:	e51b3034 	ldr	r3, [fp, #-52]	; 0xffffffcc
   1048c:	e5d33001 	ldrb	r3, [r3, #1]
   10490:	e1a01003 	mov	r1, r3
   10494:	e51b3034 	ldr	r3, [fp, #-52]	; 0xffffffcc
   10498:	e5d33000 	ldrb	r3, [r3]
   1049c:	e1a02003 	mov	r2, r3
   104a0:	ebfffea1 	bl	ff2c <BitGetUnsigned>
   104a4:	e1a02000 	mov	r2, r0
   104a8:	e51b3034 	ldr	r3, [fp, #-52]	; 0xffffffcc
   104ac:	e5832028 	str	r2, [r3, #40]	; 0x28
   104b0:	ea000048 	b	105d8 <HidReadDevice+0x3d8>
   104b4:	e3a03000 	mov	r3, #0
   104b8:	e50b301c 	str	r3, [fp, #-28]	; 0xffffffe4
   104bc:	ea00003f 	b	105c0 <HidReadDevice+0x3c0>
   104c0:	e51b3034 	ldr	r3, [fp, #-52]	; 0xffffffcc
   104c4:	e5934028 	ldr	r4, [r3, #40]	; 0x28
   104c8:	e51b3034 	ldr	r3, [fp, #-52]	; 0xffffffcc
   104cc:	e5d33000 	ldrb	r3, [r3]
   104d0:	e1a02003 	mov	r2, r3
   104d4:	e51b301c 	ldr	r3, [fp, #-28]	; 0xffffffe4
   104d8:	e0050293 	mul	r5, r3, r2
   104dc:	e51b3034 	ldr	r3, [fp, #-52]	; 0xffffffcc
   104e0:	e5d33000 	ldrb	r3, [r3]
   104e4:	e1a06003 	mov	r6, r3
   104e8:	e51b3034 	ldr	r3, [fp, #-52]	; 0xffffffcc
   104ec:	e5933010 	ldr	r3, [r3, #16]
   104f0:	e3530000 	cmp	r3, #0
   104f4:	aa000015 	bge	10550 <HidReadDevice+0x350>
   104f8:	e51b3028 	ldr	r3, [fp, #-40]	; 0xffffffd8
   104fc:	e5932004 	ldr	r2, [r3, #4]
   10500:	e1a02422 	lsr	r2, r2, #8
   10504:	e5d33008 	ldrb	r3, [r3, #8]
   10508:	e1a03c03 	lsl	r3, r3, #24
   1050c:	e1833002 	orr	r3, r3, r2
   10510:	e1a00003 	mov	r0, r3
   10514:	e51b3034 	ldr	r3, [fp, #-52]	; 0xffffffcc
   10518:	e5d33001 	ldrb	r3, [r3, #1]
   1051c:	e1a02003 	mov	r2, r3
   10520:	e51b3034 	ldr	r3, [fp, #-52]	; 0xffffffcc
   10524:	e5d33000 	ldrb	r3, [r3]
   10528:	e1a01003 	mov	r1, r3
   1052c:	e51b301c 	ldr	r3, [fp, #-28]	; 0xffffffe4
   10530:	e0030391 	mul	r3, r1, r3
   10534:	e0821003 	add	r1, r2, r3
   10538:	e51b3034 	ldr	r3, [fp, #-52]	; 0xffffffcc
   1053c:	e5d33000 	ldrb	r3, [r3]
   10540:	e1a02003 	mov	r2, r3
   10544:	ebffff0c 	bl	1017c <BitGetSigned>
   10548:	e1a03000 	mov	r3, r0
   1054c:	ea000014 	b	105a4 <HidReadDevice+0x3a4>
   10550:	e51b3028 	ldr	r3, [fp, #-40]	; 0xffffffd8
   10554:	e5932004 	ldr	r2, [r3, #4]
   10558:	e1a02422 	lsr	r2, r2, #8
   1055c:	e5d33008 	ldrb	r3, [r3, #8]
   10560:	e1a03c03 	lsl	r3, r3, #24
   10564:	e1833002 	orr	r3, r3, r2
   10568:	e1a00003 	mov	r0, r3
   1056c:	e51b3034 	ldr	r3, [fp, #-52]	; 0xffffffcc
   10570:	e5d33001 	ldrb	r3, [r3, #1]
   10574:	e1a02003 	mov	r2, r3
   10578:	e51b3034 	ldr	r3, [fp, #-52]	; 0xffffffcc
   1057c:	e5d33000 	ldrb	r3, [r3]
   10580:	e1a01003 	mov	r1, r3
   10584:	e51b301c 	ldr	r3, [fp, #-28]	; 0xffffffe4
   10588:	e0030391 	mul	r3, r1, r3
   1058c:	e0821003 	add	r1, r2, r3
   10590:	e51b3034 	ldr	r3, [fp, #-52]	; 0xffffffcc
   10594:	e5d33000 	ldrb	r3, [r3]
   10598:	e1a02003 	mov	r2, r3
   1059c:	ebfffe62 	bl	ff2c <BitGetUnsigned>
   105a0:	e1a03000 	mov	r3, r0
   105a4:	e1a02006 	mov	r2, r6
   105a8:	e1a01005 	mov	r1, r5
   105ac:	e1a00004 	mov	r0, r4
   105b0:	ebfffda4 	bl	fc48 <BitSet>
   105b4:	e51b301c 	ldr	r3, [fp, #-28]	; 0xffffffe4
   105b8:	e2833001 	add	r3, r3, #1
   105bc:	e50b301c 	str	r3, [fp, #-28]	; 0xffffffe4
   105c0:	e51b3034 	ldr	r3, [fp, #-52]	; 0xffffffcc
   105c4:	e5d33002 	ldrb	r3, [r3, #2]
   105c8:	e1a02003 	mov	r2, r3
   105cc:	e51b301c 	ldr	r3, [fp, #-28]	; 0xffffffe4
   105d0:	e1520003 	cmp	r2, r3
   105d4:	8affffb9 	bhi	104c0 <HidReadDevice+0x2c0>
   105d8:	e51b3018 	ldr	r3, [fp, #-24]	; 0xffffffe8
   105dc:	e2833001 	add	r3, r3, #1
   105e0:	e50b3018 	str	r3, [fp, #-24]	; 0xffffffe8
   105e4:	e51b3028 	ldr	r3, [fp, #-40]	; 0xffffffd8
   105e8:	e5d33001 	ldrb	r3, [r3, #1]
   105ec:	e1a02003 	mov	r2, r3
   105f0:	e51b3018 	ldr	r3, [fp, #-24]	; 0xffffffe8
   105f4:	e1520003 	cmp	r2, r3
   105f8:	8affff73 	bhi	103cc <HidReadDevice+0x1cc>
   105fc:	e3a03000 	mov	r3, #0
   10600:	e1a00003 	mov	r0, r3
   10604:	e24bd010 	sub	sp, fp, #16
   10608:	e8bd4870 	pop	{r4, r5, r6, fp, lr}
   1060c:	e12fff1e 	bx	lr

00010610 <HidWriteDevice>:
   10610:	e92d4870 	push	{r4, r5, r6, fp, lr}
   10614:	e28db010 	add	fp, sp, #16
   10618:	e24dd034 	sub	sp, sp, #52	; 0x34
   1061c:	e50b0038 	str	r0, [fp, #-56]	; 0xffffffc8
   10620:	e1a03001 	mov	r3, r1
   10624:	e54b3039 	strb	r3, [fp, #-57]	; 0xffffffc7
   10628:	e51b3038 	ldr	r3, [fp, #-56]	; 0xffffffc8
   1062c:	e5933414 	ldr	r3, [r3, #1044]	; 0x414
   10630:	e50b3020 	str	r3, [fp, #-32]	; 0xffffffe0
   10634:	e51b3020 	ldr	r3, [fp, #-32]	; 0xffffffe0
   10638:	e5d3200c 	ldrb	r2, [r3, #12]
   1063c:	e5d3100d 	ldrb	r1, [r3, #13]
   10640:	e1a01401 	lsl	r1, r1, #8
   10644:	e1812002 	orr	r2, r1, r2
   10648:	e5d3100e 	ldrb	r1, [r3, #14]
   1064c:	e1a01801 	lsl	r1, r1, #16
   10650:	e1812002 	orr	r2, r1, r2
   10654:	e5d3300f 	ldrb	r3, [r3, #15]
   10658:	e1a03c03 	lsl	r3, r3, #24
   1065c:	e1833002 	orr	r3, r3, r2
   10660:	e50b3024 	str	r3, [fp, #-36]	; 0xffffffdc
   10664:	e55b2039 	ldrb	r2, [fp, #-57]	; 0xffffffc7
   10668:	e51b3024 	ldr	r3, [fp, #-36]	; 0xffffffdc
   1066c:	e2822002 	add	r2, r2, #2
   10670:	e7933102 	ldr	r3, [r3, r2, lsl #2]
   10674:	e50b3028 	str	r3, [fp, #-40]	; 0xffffffd8
   10678:	e51b3028 	ldr	r3, [fp, #-40]	; 0xffffffd8
   1067c:	e5d33004 	ldrb	r3, [r3, #4]
   10680:	e2833007 	add	r3, r3, #7
   10684:	e2832007 	add	r2, r3, #7
   10688:	e3530000 	cmp	r3, #0
   1068c:	b1a03002 	movlt	r3, r2
   10690:	a1a03003 	movge	r3, r3
   10694:	e1a031c3 	asr	r3, r3, #3
   10698:	e50b302c 	str	r3, [fp, #-44]	; 0xffffffd4
   1069c:	e51b3028 	ldr	r3, [fp, #-40]	; 0xffffffd8
   106a0:	e5932004 	ldr	r2, [r3, #4]
   106a4:	e1a02422 	lsr	r2, r2, #8
   106a8:	e5d33008 	ldrb	r3, [r3, #8]
   106ac:	e1a03c03 	lsl	r3, r3, #24
   106b0:	e1833002 	orr	r3, r3, r2
   106b4:	e3530000 	cmp	r3, #0
   106b8:	1a00001f 	bne	1073c <HidWriteDevice+0x12c>
   106bc:	e51b002c 	ldr	r0, [fp, #-44]	; 0xffffffd4
   106c0:	ebffea4f 	bl	b004 <MemoryAllocate>
   106c4:	e1a02000 	mov	r2, r0
   106c8:	e51b3028 	ldr	r3, [fp, #-40]	; 0xffffffd8
   106cc:	e20210ff 	and	r1, r2, #255	; 0xff
   106d0:	e3a00000 	mov	r0, #0
   106d4:	e1801001 	orr	r1, r0, r1
   106d8:	e5c31005 	strb	r1, [r3, #5]
   106dc:	e1a01422 	lsr	r1, r2, #8
   106e0:	e20110ff 	and	r1, r1, #255	; 0xff
   106e4:	e3a00000 	mov	r0, #0
   106e8:	e1801001 	orr	r1, r0, r1
   106ec:	e5c31006 	strb	r1, [r3, #6]
   106f0:	e1a01822 	lsr	r1, r2, #16
   106f4:	e20110ff 	and	r1, r1, #255	; 0xff
   106f8:	e3a00000 	mov	r0, #0
   106fc:	e1801001 	orr	r1, r0, r1
   10700:	e5c31007 	strb	r1, [r3, #7]
   10704:	e1a02c22 	lsr	r2, r2, #24
   10708:	e3a01000 	mov	r1, #0
   1070c:	e1812002 	orr	r2, r1, r2
   10710:	e5c32008 	strb	r2, [r3, #8]
   10714:	e51b3028 	ldr	r3, [fp, #-40]	; 0xffffffd8
   10718:	e5932004 	ldr	r2, [r3, #4]
   1071c:	e1a02422 	lsr	r2, r2, #8
   10720:	e5d33008 	ldrb	r3, [r3, #8]
   10724:	e1a03c03 	lsl	r3, r3, #24
   10728:	e1833002 	orr	r3, r3, r2
   1072c:	e3530000 	cmp	r3, #0
   10730:	1a000001 	bne	1073c <HidWriteDevice+0x12c>
   10734:	e3e03006 	mvn	r3, #6
   10738:	ea000083 	b	1094c <HidWriteDevice+0x33c>
   1073c:	e3a03000 	mov	r3, #0
   10740:	e50b3018 	str	r3, [fp, #-24]	; 0xffffffe8
   10744:	ea000054 	b	1089c <HidWriteDevice+0x28c>
   10748:	e51b2018 	ldr	r2, [fp, #-24]	; 0xffffffe8
   1074c:	e1a03002 	mov	r3, r2
   10750:	e1a03103 	lsl	r3, r3, #2
   10754:	e0833002 	add	r3, r3, r2
   10758:	e1a03083 	lsl	r3, r3, #1
   1075c:	e0833002 	add	r3, r3, r2
   10760:	e1a03103 	lsl	r3, r3, #2
   10764:	e2833008 	add	r3, r3, #8
   10768:	e51b2028 	ldr	r2, [fp, #-40]	; 0xffffffd8
   1076c:	e0823003 	add	r3, r2, r3
   10770:	e2833004 	add	r3, r3, #4
   10774:	e50b3030 	str	r3, [fp, #-48]	; 0xffffffd0
   10778:	e51b3030 	ldr	r3, [fp, #-48]	; 0xffffffd0
   1077c:	e5d33004 	ldrb	r3, [r3, #4]
   10780:	e2033002 	and	r3, r3, #2
   10784:	e20330ff 	and	r3, r3, #255	; 0xff
   10788:	e3530000 	cmp	r3, #0
   1078c:	0a000010 	beq	107d4 <HidWriteDevice+0x1c4>
   10790:	e51b3028 	ldr	r3, [fp, #-40]	; 0xffffffd8
   10794:	e5932004 	ldr	r2, [r3, #4]
   10798:	e1a02422 	lsr	r2, r2, #8
   1079c:	e5d33008 	ldrb	r3, [r3, #8]
   107a0:	e1a03c03 	lsl	r3, r3, #24
   107a4:	e1833002 	orr	r3, r3, r2
   107a8:	e1a00003 	mov	r0, r3
   107ac:	e51b3030 	ldr	r3, [fp, #-48]	; 0xffffffd0
   107b0:	e5d33001 	ldrb	r3, [r3, #1]
   107b4:	e1a01003 	mov	r1, r3
   107b8:	e51b3030 	ldr	r3, [fp, #-48]	; 0xffffffd0
   107bc:	e5d33000 	ldrb	r3, [r3]
   107c0:	e1a02003 	mov	r2, r3
   107c4:	e51b3030 	ldr	r3, [fp, #-48]	; 0xffffffd0
   107c8:	e5933028 	ldr	r3, [r3, #40]	; 0x28
   107cc:	ebfffd1d 	bl	fc48 <BitSet>
   107d0:	ea00002e 	b	10890 <HidWriteDevice+0x280>
   107d4:	e3a03000 	mov	r3, #0
   107d8:	e50b301c 	str	r3, [fp, #-28]	; 0xffffffe4
   107dc:	ea000025 	b	10878 <HidWriteDevice+0x268>
   107e0:	e51b3028 	ldr	r3, [fp, #-40]	; 0xffffffd8
   107e4:	e5932004 	ldr	r2, [r3, #4]
   107e8:	e1a02422 	lsr	r2, r2, #8
   107ec:	e5d33008 	ldrb	r3, [r3, #8]
   107f0:	e1a03c03 	lsl	r3, r3, #24
   107f4:	e1833002 	orr	r3, r3, r2
   107f8:	e1a05003 	mov	r5, r3
   107fc:	e51b3030 	ldr	r3, [fp, #-48]	; 0xffffffd0
   10800:	e5d33001 	ldrb	r3, [r3, #1]
   10804:	e1a02003 	mov	r2, r3
   10808:	e51b3030 	ldr	r3, [fp, #-48]	; 0xffffffd0
   1080c:	e5d33000 	ldrb	r3, [r3]
   10810:	e1a01003 	mov	r1, r3
   10814:	e51b301c 	ldr	r3, [fp, #-28]	; 0xffffffe4
   10818:	e0030391 	mul	r3, r1, r3
   1081c:	e0824003 	add	r4, r2, r3
   10820:	e51b3030 	ldr	r3, [fp, #-48]	; 0xffffffd0
   10824:	e5d33000 	ldrb	r3, [r3]
   10828:	e1a06003 	mov	r6, r3
   1082c:	e51b3030 	ldr	r3, [fp, #-48]	; 0xffffffd0
   10830:	e5930028 	ldr	r0, [r3, #40]	; 0x28
   10834:	e51b3030 	ldr	r3, [fp, #-48]	; 0xffffffd0
   10838:	e5d33000 	ldrb	r3, [r3]
   1083c:	e1a02003 	mov	r2, r3
   10840:	e51b301c 	ldr	r3, [fp, #-28]	; 0xffffffe4
   10844:	e0010293 	mul	r1, r3, r2
   10848:	e51b3030 	ldr	r3, [fp, #-48]	; 0xffffffd0
   1084c:	e5d33000 	ldrb	r3, [r3]
   10850:	e1a02003 	mov	r2, r3
   10854:	ebfffe48 	bl	1017c <BitGetSigned>
   10858:	e1a03000 	mov	r3, r0
   1085c:	e1a02006 	mov	r2, r6
   10860:	e1a01004 	mov	r1, r4
   10864:	e1a00005 	mov	r0, r5
   10868:	ebfffcf6 	bl	fc48 <BitSet>
   1086c:	e51b301c 	ldr	r3, [fp, #-28]	; 0xffffffe4
   10870:	e2833001 	add	r3, r3, #1
   10874:	e50b301c 	str	r3, [fp, #-28]	; 0xffffffe4
   10878:	e51b3030 	ldr	r3, [fp, #-48]	; 0xffffffd0
   1087c:	e5d33002 	ldrb	r3, [r3, #2]
   10880:	e1a02003 	mov	r2, r3
   10884:	e51b301c 	ldr	r3, [fp, #-28]	; 0xffffffe4
   10888:	e1520003 	cmp	r2, r3
   1088c:	8affffd3 	bhi	107e0 <HidWriteDevice+0x1d0>
   10890:	e51b3018 	ldr	r3, [fp, #-24]	; 0xffffffe8
   10894:	e2833001 	add	r3, r3, #1
   10898:	e50b3018 	str	r3, [fp, #-24]	; 0xffffffe8
   1089c:	e51b3028 	ldr	r3, [fp, #-40]	; 0xffffffd8
   108a0:	e5d33001 	ldrb	r3, [r3, #1]
   108a4:	e1a02003 	mov	r2, r3
   108a8:	e51b3018 	ldr	r3, [fp, #-24]	; 0xffffffe8
   108ac:	e1520003 	cmp	r2, r3
   108b0:	8affffa4 	bhi	10748 <HidWriteDevice+0x138>
   108b4:	e51b3028 	ldr	r3, [fp, #-40]	; 0xffffffd8
   108b8:	e5d30003 	ldrb	r0, [r3, #3]
   108bc:	e51b3028 	ldr	r3, [fp, #-40]	; 0xffffffd8
   108c0:	e5d3c002 	ldrb	ip, [r3, #2]
   108c4:	e51b3020 	ldr	r3, [fp, #-32]	; 0xffffffe0
   108c8:	e5d3200c 	ldrb	r2, [r3, #12]
   108cc:	e5d3100d 	ldrb	r1, [r3, #13]
   108d0:	e1a01401 	lsl	r1, r1, #8
   108d4:	e1812002 	orr	r2, r1, r2
   108d8:	e5d3100e 	ldrb	r1, [r3, #14]
   108dc:	e1a01801 	lsl	r1, r1, #16
   108e0:	e1812002 	orr	r2, r1, r2
   108e4:	e5d3300f 	ldrb	r3, [r3, #15]
   108e8:	e1a03c03 	lsl	r3, r3, #24
   108ec:	e1833002 	orr	r3, r3, r2
   108f0:	e5d31005 	ldrb	r1, [r3, #5]
   108f4:	e51b3028 	ldr	r3, [fp, #-40]	; 0xffffffd8
   108f8:	e5932004 	ldr	r2, [r3, #4]
   108fc:	e1a02422 	lsr	r2, r2, #8
   10900:	e5d33008 	ldrb	r3, [r3, #8]
   10904:	e1a03c03 	lsl	r3, r3, #24
   10908:	e1833002 	orr	r3, r3, r2
   1090c:	e58d3004 	str	r3, [sp, #4]
   10910:	e51b302c 	ldr	r3, [fp, #-44]	; 0xffffffd4
   10914:	e58d3000 	str	r3, [sp]
   10918:	e1a03001 	mov	r3, r1
   1091c:	e1a0200c 	mov	r2, ip
   10920:	e1a01000 	mov	r1, r0
   10924:	e51b0038 	ldr	r0, [fp, #-56]	; 0xffffffc8
   10928:	ebfffc6d 	bl	fae4 <HidSetReport>
   1092c:	e1a03000 	mov	r3, r0
   10930:	e54b3031 	strb	r3, [fp, #-49]	; 0xffffffcf
   10934:	e15b33d1 	ldrsb	r3, [fp, #-49]	; 0xffffffcf
   10938:	e3530000 	cmp	r3, #0
   1093c:	0a000001 	beq	10948 <HidWriteDevice+0x338>
   10940:	e15b33d1 	ldrsb	r3, [fp, #-49]	; 0xffffffcf
   10944:	ea000000 	b	1094c <HidWriteDevice+0x33c>
   10948:	e3a03000 	mov	r3, #0
   1094c:	e1a00003 	mov	r0, r3
   10950:	e24bd010 	sub	sp, fp, #16
   10954:	e8bd4870 	pop	{r4, r5, r6, fp, lr}
   10958:	e12fff1e 	bx	lr

0001095c <HidSetProtocol>:
   1095c:	e92d4800 	push	{fp, lr}
   10960:	e28db004 	add	fp, sp, #4
   10964:	e24dd020 	sub	sp, sp, #32
   10968:	e50b0018 	str	r0, [fp, #-24]	; 0xffffffe8
   1096c:	e1a03002 	mov	r3, r2
   10970:	e1a02001 	mov	r2, r1
   10974:	e54b2019 	strb	r2, [fp, #-25]	; 0xffffffe7
   10978:	e14b31bc 	strh	r3, [fp, #-28]	; 0xffffffe4
   1097c:	e3a03000 	mov	r3, #0
   10980:	e50b3014 	str	r3, [fp, #-20]	; 0xffffffec
   10984:	e51b3018 	ldr	r3, [fp, #-24]	; 0xffffffe8
   10988:	e5d3302b 	ldrb	r3, [r3, #43]	; 0x2b
   1098c:	e20330ff 	and	r3, r3, #255	; 0xff
   10990:	e1a00003 	mov	r0, r3
   10994:	ebfffbd3 	bl	f8e8 <SizeFromNumber>
   10998:	e1a03000 	mov	r3, r0
   1099c:	e2033003 	and	r3, r3, #3
   109a0:	e20320ff 	and	r2, r3, #255	; 0xff
   109a4:	e55b3014 	ldrb	r3, [fp, #-20]	; 0xffffffec
   109a8:	e2022003 	and	r2, r2, #3
   109ac:	e3c33003 	bic	r3, r3, #3
   109b0:	e1823003 	orr	r3, r2, r3
   109b4:	e54b3014 	strb	r3, [fp, #-20]	; 0xffffffec
   109b8:	e51b3018 	ldr	r3, [fp, #-24]	; 0xffffffe8
   109bc:	e5d33004 	ldrb	r3, [r3, #4]
   109c0:	e2033003 	and	r3, r3, #3
   109c4:	e20330ff 	and	r3, r3, #255	; 0xff
   109c8:	e55b2014 	ldrb	r2, [fp, #-20]	; 0xffffffec
   109cc:	e2033003 	and	r3, r3, #3
   109d0:	e3c2200c 	bic	r2, r2, #12
   109d4:	e1a03103 	lsl	r3, r3, #2
   109d8:	e1833002 	orr	r3, r3, r2
   109dc:	e1a02003 	mov	r2, r3
   109e0:	e54b2014 	strb	r2, [fp, #-20]	; 0xffffffec
   109e4:	e51b3018 	ldr	r3, [fp, #-24]	; 0xffffffe8
   109e8:	e5933000 	ldr	r3, [r3]
   109ec:	e20330ff 	and	r3, r3, #255	; 0xff
   109f0:	e54b3013 	strb	r3, [fp, #-19]	; 0xffffffed
   109f4:	e3a03021 	mov	r3, #33	; 0x21
   109f8:	e54b3010 	strb	r3, [fp, #-16]
   109fc:	e3a0300b 	mov	r3, #11
   10a00:	e54b300f 	strb	r3, [fp, #-15]
   10a04:	e15b31bc 	ldrh	r3, [fp, #-28]	; 0xffffffe4
   10a08:	e14b30be 	strh	r3, [fp, #-14]
   10a0c:	e55b3019 	ldrb	r3, [fp, #-25]	; 0xffffffe7
   10a10:	e1a03803 	lsl	r3, r3, #16
   10a14:	e1a03823 	lsr	r3, r3, #16
   10a18:	e14b30bc 	strh	r3, [fp, #-12]
   10a1c:	e3a03000 	mov	r3, #0
   10a20:	e14b30ba 	strh	r3, [fp, #-10]
   10a24:	e3a0300a 	mov	r3, #10
   10a28:	e58d3004 	str	r3, [sp, #4]
   10a2c:	e24b3010 	sub	r3, fp, #16
   10a30:	e58d3000 	str	r3, [sp]
   10a34:	e3a03000 	mov	r3, #0
   10a38:	e3a02000 	mov	r2, #0
   10a3c:	e51b1014 	ldr	r1, [fp, #-20]	; 0xffffffec
   10a40:	e51b0018 	ldr	r0, [fp, #-24]	; 0xffffffe8
   10a44:	ebffecf6 	bl	be24 <UsbControlMessage>
   10a48:	e1a03000 	mov	r3, r0
   10a4c:	e54b3005 	strb	r3, [fp, #-5]
   10a50:	e15b30d5 	ldrsb	r3, [fp, #-5]
   10a54:	e3530000 	cmp	r3, #0
   10a58:	0a000001 	beq	10a64 <HidSetProtocol+0x108>
   10a5c:	e15b30d5 	ldrsb	r3, [fp, #-5]
   10a60:	ea000000 	b	10a68 <HidSetProtocol+0x10c>
   10a64:	e3a03000 	mov	r3, #0
   10a68:	e1a00003 	mov	r0, r3
   10a6c:	e24bd004 	sub	sp, fp, #4
   10a70:	e8bd4800 	pop	{fp, lr}
   10a74:	e12fff1e 	bx	lr

00010a78 <HidEnumerateReport>:
   10a78:	e92d4800 	push	{fp, lr}
   10a7c:	e28db004 	add	fp, sp, #4
   10a80:	e24dd028 	sub	sp, sp, #40	; 0x28
   10a84:	e50b0020 	str	r0, [fp, #-32]	; 0xffffffe0
   10a88:	e50b2028 	str	r2, [fp, #-40]	; 0xffffffd8
   10a8c:	e50b302c 	str	r3, [fp, #-44]	; 0xffffffd4
   10a90:	e14b12b2 	strh	r1, [fp, #-34]	; 0xffffffde
   10a94:	e51b3020 	ldr	r3, [fp, #-32]	; 0xffffffe0
   10a98:	e50b3008 	str	r3, [fp, #-8]
   10a9c:	e3a03000 	mov	r3, #0
   10aa0:	e50b300c 	str	r3, [fp, #-12]
   10aa4:	e3a03000 	mov	r3, #0
   10aa8:	e14b30be 	strh	r3, [fp, #-14]
   10aac:	ea000076 	b	10c8c <HidEnumerateReport+0x214>
   10ab0:	e51b300c 	ldr	r3, [fp, #-12]
   10ab4:	e3530000 	cmp	r3, #0
   10ab8:	1a000018 	bne	10b20 <HidEnumerateReport+0xa8>
   10abc:	e51b3008 	ldr	r3, [fp, #-8]
   10ac0:	e50b300c 	str	r3, [fp, #-12]
   10ac4:	e3a03000 	mov	r3, #0
   10ac8:	e14b31b0 	strh	r3, [fp, #-16]
   10acc:	e51b300c 	ldr	r3, [fp, #-12]
   10ad0:	e5d33000 	ldrb	r3, [r3]
   10ad4:	e2033003 	and	r3, r3, #3
   10ad8:	e20330ff 	and	r3, r3, #255	; 0xff
   10adc:	e2433001 	sub	r3, r3, #1
   10ae0:	e3a02001 	mov	r2, #1
   10ae4:	e1a03312 	lsl	r3, r2, r3
   10ae8:	e14b31b2 	strh	r3, [fp, #-18]	; 0xffffffee
   10aec:	e3a03000 	mov	r3, #0
   10af0:	e50b3018 	str	r3, [fp, #-24]	; 0xffffffe8
   10af4:	e51b300c 	ldr	r3, [fp, #-12]
   10af8:	e5d33000 	ldrb	r3, [r3]
   10afc:	e1a03123 	lsr	r3, r3, #2
   10b00:	e20330ff 	and	r3, r3, #255	; 0xff
   10b04:	e14b31b4 	strh	r3, [fp, #-20]	; 0xffffffec
   10b08:	e15b31b2 	ldrh	r3, [fp, #-18]	; 0xffffffee
   10b0c:	e3530000 	cmp	r3, #0
   10b10:	1a000033 	bne	10be4 <HidEnumerateReport+0x16c>
   10b14:	e3a03000 	mov	r3, #0
   10b18:	e50b300c 	str	r3, [fp, #-12]
   10b1c:	ea000030 	b	10be4 <HidEnumerateReport+0x16c>
   10b20:	e51b300c 	ldr	r3, [fp, #-12]
   10b24:	e5d33000 	ldrb	r3, [r3]
   10b28:	e3c33003 	bic	r3, r3, #3
   10b2c:	e20330ff 	and	r3, r3, #255	; 0xff
   10b30:	e35300fc 	cmp	r3, #252	; 0xfc
   10b34:	1a000018 	bne	10b9c <HidEnumerateReport+0x124>
   10b38:	e15b31b0 	ldrh	r3, [fp, #-16]
   10b3c:	e3530001 	cmp	r3, #1
   10b40:	8a000015 	bhi	10b9c <HidEnumerateReport+0x124>
   10b44:	e15b31b0 	ldrh	r3, [fp, #-16]
   10b48:	e3530000 	cmp	r3, #0
   10b4c:	1a000007 	bne	10b70 <HidEnumerateReport+0xf8>
   10b50:	e51b3008 	ldr	r3, [fp, #-8]
   10b54:	e5d33000 	ldrb	r3, [r3]
   10b58:	e1a03803 	lsl	r3, r3, #16
   10b5c:	e1a02823 	lsr	r2, r3, #16
   10b60:	e15b31b2 	ldrh	r3, [fp, #-18]	; 0xffffffee
   10b64:	e0823003 	add	r3, r2, r3
   10b68:	e14b31b2 	strh	r3, [fp, #-18]	; 0xffffffee
   10b6c:	ea000013 	b	10bc0 <HidEnumerateReport+0x148>
   10b70:	e51b3008 	ldr	r3, [fp, #-8]
   10b74:	e5d33000 	ldrb	r3, [r3]
   10b78:	e1a03403 	lsl	r3, r3, #8
   10b7c:	e1a03803 	lsl	r3, r3, #16
   10b80:	e1a02843 	asr	r2, r3, #16
   10b84:	e15b31f4 	ldrsh	r3, [fp, #-20]	; 0xffffffec
   10b88:	e1823003 	orr	r3, r2, r3
   10b8c:	e1a03803 	lsl	r3, r3, #16
   10b90:	e1a03843 	asr	r3, r3, #16
   10b94:	e14b31b4 	strh	r3, [fp, #-20]	; 0xffffffec
   10b98:	ea000008 	b	10bc0 <HidEnumerateReport+0x148>
   10b9c:	e51b3008 	ldr	r3, [fp, #-8]
   10ba0:	e5d33000 	ldrb	r3, [r3]
   10ba4:	e1a02003 	mov	r2, r3
   10ba8:	e15b31b0 	ldrh	r3, [fp, #-16]
   10bac:	e1a03183 	lsl	r3, r3, #3
   10bb0:	e1a02312 	lsl	r2, r2, r3
   10bb4:	e51b3018 	ldr	r3, [fp, #-24]	; 0xffffffe8
   10bb8:	e1823003 	orr	r3, r2, r3
   10bbc:	e50b3018 	str	r3, [fp, #-24]	; 0xffffffe8
   10bc0:	e15b31b0 	ldrh	r3, [fp, #-16]
   10bc4:	e2833001 	add	r3, r3, #1
   10bc8:	e14b31b0 	strh	r3, [fp, #-16]
   10bcc:	e15b21b0 	ldrh	r2, [fp, #-16]
   10bd0:	e15b31b2 	ldrh	r3, [fp, #-18]	; 0xffffffee
   10bd4:	e1520003 	cmp	r2, r3
   10bd8:	1a000001 	bne	10be4 <HidEnumerateReport+0x16c>
   10bdc:	e3a03000 	mov	r3, #0
   10be0:	e50b300c 	str	r3, [fp, #-12]
   10be4:	e51b300c 	ldr	r3, [fp, #-12]
   10be8:	e3530000 	cmp	r3, #0
   10bec:	1a000020 	bne	10c74 <HidEnumerateReport+0x1fc>
   10bf0:	e15b31b4 	ldrh	r3, [fp, #-20]	; 0xffffffec
   10bf4:	e2033003 	and	r3, r3, #3
   10bf8:	e3530001 	cmp	r3, #1
   10bfc:	1a000016 	bne	10c5c <HidEnumerateReport+0x1e4>
   10c00:	e15b31b2 	ldrh	r3, [fp, #-18]	; 0xffffffee
   10c04:	e3530001 	cmp	r3, #1
   10c08:	1a000008 	bne	10c30 <HidEnumerateReport+0x1b8>
   10c0c:	e51b3018 	ldr	r3, [fp, #-24]	; 0xffffffe8
   10c10:	e2033080 	and	r3, r3, #128	; 0x80
   10c14:	e3530000 	cmp	r3, #0
   10c18:	0a000004 	beq	10c30 <HidEnumerateReport+0x1b8>
   10c1c:	e51b3018 	ldr	r3, [fp, #-24]	; 0xffffffe8
   10c20:	e1e03c03 	mvn	r3, r3, lsl #24
   10c24:	e1e03c23 	mvn	r3, r3, lsr #24
   10c28:	e50b3018 	str	r3, [fp, #-24]	; 0xffffffe8
   10c2c:	ea00000a 	b	10c5c <HidEnumerateReport+0x1e4>
   10c30:	e15b31b2 	ldrh	r3, [fp, #-18]	; 0xffffffee
   10c34:	e3530002 	cmp	r3, #2
   10c38:	1a000007 	bne	10c5c <HidEnumerateReport+0x1e4>
   10c3c:	e51b3018 	ldr	r3, [fp, #-24]	; 0xffffffe8
   10c40:	e2033902 	and	r3, r3, #32768	; 0x8000
   10c44:	e3530000 	cmp	r3, #0
   10c48:	0a000003 	beq	10c5c <HidEnumerateReport+0x1e4>
   10c4c:	e51b3018 	ldr	r3, [fp, #-24]	; 0xffffffe8
   10c50:	e1e03803 	mvn	r3, r3, lsl #16
   10c54:	e1e03823 	mvn	r3, r3, lsr #16
   10c58:	e50b3018 	str	r3, [fp, #-24]	; 0xffffffe8
   10c5c:	e51b2018 	ldr	r2, [fp, #-24]	; 0xffffffe8
   10c60:	e15b11b4 	ldrh	r1, [fp, #-20]	; 0xffffffec
   10c64:	e51b3028 	ldr	r3, [fp, #-40]	; 0xffffffd8
   10c68:	e51b002c 	ldr	r0, [fp, #-44]	; 0xffffffd4
   10c6c:	e1a0e00f 	mov	lr, pc
   10c70:	e12fff13 	bx	r3
   10c74:	e51b3008 	ldr	r3, [fp, #-8]
   10c78:	e2833001 	add	r3, r3, #1
   10c7c:	e50b3008 	str	r3, [fp, #-8]
   10c80:	e15b30be 	ldrh	r3, [fp, #-14]
   10c84:	e2833001 	add	r3, r3, #1
   10c88:	e14b30be 	strh	r3, [fp, #-14]
   10c8c:	e15b20be 	ldrh	r2, [fp, #-14]
   10c90:	e15b32b2 	ldrh	r3, [fp, #-34]	; 0xffffffde
   10c94:	e1520003 	cmp	r2, r3
   10c98:	3affff84 	bcc	10ab0 <HidEnumerateReport+0x38>
   10c9c:	e1a00000 	nop			; (mov r0, r0)
   10ca0:	e24bd004 	sub	sp, fp, #4
   10ca4:	e8bd4800 	pop	{fp, lr}
   10ca8:	e12fff1e 	bx	lr

00010cac <HidEnumerateActionCountReport>:
   10cac:	e52db004 	push	{fp}		; (str fp, [sp, #-4]!)
   10cb0:	e28db000 	add	fp, sp, #0
   10cb4:	e24dd01c 	sub	sp, sp, #28
   10cb8:	e50b0010 	str	r0, [fp, #-16]
   10cbc:	e1a03001 	mov	r3, r1
   10cc0:	e50b2018 	str	r2, [fp, #-24]	; 0xffffffe8
   10cc4:	e14b31b2 	strh	r3, [fp, #-18]	; 0xffffffee
   10cc8:	e51b3010 	ldr	r3, [fp, #-16]
   10ccc:	e50b3008 	str	r3, [fp, #-8]
   10cd0:	e15b31b2 	ldrh	r3, [fp, #-18]	; 0xffffffee
   10cd4:	e2433001 	sub	r3, r3, #1
   10cd8:	e353002f 	cmp	r3, #47	; 0x2f
   10cdc:	979ff103 	ldrls	pc, [pc, r3, lsl #2]
   10ce0:	ea000073 	b	10eb4 <HidEnumerateActionCountReport+0x208>
   10ce4:	00010eb4 	.word	0x00010eb4
   10ce8:	00010eb4 	.word	0x00010eb4
   10cec:	00010eb4 	.word	0x00010eb4
   10cf0:	00010eb4 	.word	0x00010eb4
   10cf4:	00010eb4 	.word	0x00010eb4
   10cf8:	00010eb4 	.word	0x00010eb4
   10cfc:	00010eb4 	.word	0x00010eb4
   10d00:	00010eb4 	.word	0x00010eb4
   10d04:	00010eb4 	.word	0x00010eb4
   10d08:	00010eb4 	.word	0x00010eb4
   10d0c:	00010eb4 	.word	0x00010eb4
   10d10:	00010eb4 	.word	0x00010eb4
   10d14:	00010eb4 	.word	0x00010eb4
   10d18:	00010eb4 	.word	0x00010eb4
   10d1c:	00010eb4 	.word	0x00010eb4
   10d20:	00010eb4 	.word	0x00010eb4
   10d24:	00010eb4 	.word	0x00010eb4
   10d28:	00010eb4 	.word	0x00010eb4
   10d2c:	00010eb4 	.word	0x00010eb4
   10d30:	00010eb4 	.word	0x00010eb4
   10d34:	00010eb4 	.word	0x00010eb4
   10d38:	00010eb4 	.word	0x00010eb4
   10d3c:	00010eb4 	.word	0x00010eb4
   10d40:	00010eb4 	.word	0x00010eb4
   10d44:	00010eb4 	.word	0x00010eb4
   10d48:	00010eb4 	.word	0x00010eb4
   10d4c:	00010eb4 	.word	0x00010eb4
   10d50:	00010eb4 	.word	0x00010eb4
   10d54:	00010eb4 	.word	0x00010eb4
   10d58:	00010eb4 	.word	0x00010eb4
   10d5c:	00010eb4 	.word	0x00010eb4
   10d60:	00010da4 	.word	0x00010da4
   10d64:	00010e84 	.word	0x00010e84
   10d68:	00010eb4 	.word	0x00010eb4
   10d6c:	00010eb4 	.word	0x00010eb4
   10d70:	00010ddc 	.word	0x00010ddc
   10d74:	00010eb4 	.word	0x00010eb4
   10d78:	00010eb4 	.word	0x00010eb4
   10d7c:	00010eb4 	.word	0x00010eb4
   10d80:	00010e4c 	.word	0x00010e4c
   10d84:	00010eb4 	.word	0x00010eb4
   10d88:	00010eb4 	.word	0x00010eb4
   10d8c:	00010eb4 	.word	0x00010eb4
   10d90:	00010e14 	.word	0x00010e14
   10d94:	00010eb4 	.word	0x00010eb4
   10d98:	00010eb4 	.word	0x00010eb4
   10d9c:	00010eb4 	.word	0x00010eb4
   10da0:	00010e68 	.word	0x00010e68
   10da4:	e51b3008 	ldr	r3, [fp, #-8]
   10da8:	e5d33002 	ldrb	r3, [r3, #2]
   10dac:	e3530000 	cmp	r3, #0
   10db0:	1a000041 	bne	10ebc <HidEnumerateActionCountReport+0x210>
   10db4:	e51b3008 	ldr	r3, [fp, #-8]
   10db8:	e5d33000 	ldrb	r3, [r3]
   10dbc:	e2833001 	add	r3, r3, #1
   10dc0:	e20320ff 	and	r2, r3, #255	; 0xff
   10dc4:	e51b3008 	ldr	r3, [fp, #-8]
   10dc8:	e5c32000 	strb	r2, [r3]
   10dcc:	e51b3008 	ldr	r3, [fp, #-8]
   10dd0:	e3a02001 	mov	r2, #1
   10dd4:	e5c32002 	strb	r2, [r3, #2]
   10dd8:	ea000037 	b	10ebc <HidEnumerateActionCountReport+0x210>
   10ddc:	e51b3008 	ldr	r3, [fp, #-8]
   10de0:	e5d33003 	ldrb	r3, [r3, #3]
   10de4:	e3530000 	cmp	r3, #0
   10de8:	1a000035 	bne	10ec4 <HidEnumerateActionCountReport+0x218>
   10dec:	e51b3008 	ldr	r3, [fp, #-8]
   10df0:	e5d33000 	ldrb	r3, [r3]
   10df4:	e2833001 	add	r3, r3, #1
   10df8:	e20320ff 	and	r2, r3, #255	; 0xff
   10dfc:	e51b3008 	ldr	r3, [fp, #-8]
   10e00:	e5c32000 	strb	r2, [r3]
   10e04:	e51b3008 	ldr	r3, [fp, #-8]
   10e08:	e3a02001 	mov	r2, #1
   10e0c:	e5c32003 	strb	r2, [r3, #3]
   10e10:	ea00002b 	b	10ec4 <HidEnumerateActionCountReport+0x218>
   10e14:	e51b3008 	ldr	r3, [fp, #-8]
   10e18:	e5d33004 	ldrb	r3, [r3, #4]
   10e1c:	e3530000 	cmp	r3, #0
   10e20:	1a000029 	bne	10ecc <HidEnumerateActionCountReport+0x220>
   10e24:	e51b3008 	ldr	r3, [fp, #-8]
   10e28:	e5d33000 	ldrb	r3, [r3]
   10e2c:	e2833001 	add	r3, r3, #1
   10e30:	e20320ff 	and	r2, r3, #255	; 0xff
   10e34:	e51b3008 	ldr	r3, [fp, #-8]
   10e38:	e5c32000 	strb	r2, [r3]
   10e3c:	e51b3008 	ldr	r3, [fp, #-8]
   10e40:	e3a02001 	mov	r2, #1
   10e44:	e5c32004 	strb	r2, [r3, #4]
   10e48:	ea00001f 	b	10ecc <HidEnumerateActionCountReport+0x220>
   10e4c:	e51b3008 	ldr	r3, [fp, #-8]
   10e50:	e5d33001 	ldrb	r3, [r3, #1]
   10e54:	e2833001 	add	r3, r3, #1
   10e58:	e20320ff 	and	r2, r3, #255	; 0xff
   10e5c:	e51b3008 	ldr	r3, [fp, #-8]
   10e60:	e5c32001 	strb	r2, [r3, #1]
   10e64:	ea000019 	b	10ed0 <HidEnumerateActionCountReport+0x224>
   10e68:	e51b3008 	ldr	r3, [fp, #-8]
   10e6c:	e5d33001 	ldrb	r3, [r3, #1]
   10e70:	e2433001 	sub	r3, r3, #1
   10e74:	e20320ff 	and	r2, r3, #255	; 0xff
   10e78:	e51b3008 	ldr	r3, [fp, #-8]
   10e7c:	e5c32001 	strb	r2, [r3, #1]
   10e80:	ea000012 	b	10ed0 <HidEnumerateActionCountReport+0x224>
   10e84:	e51b3008 	ldr	r3, [fp, #-8]
   10e88:	e3a02000 	mov	r2, #0
   10e8c:	e5c32004 	strb	r2, [r3, #4]
   10e90:	e51b3008 	ldr	r3, [fp, #-8]
   10e94:	e5d32004 	ldrb	r2, [r3, #4]
   10e98:	e51b3008 	ldr	r3, [fp, #-8]
   10e9c:	e5c32003 	strb	r2, [r3, #3]
   10ea0:	e51b3008 	ldr	r3, [fp, #-8]
   10ea4:	e5d32003 	ldrb	r2, [r3, #3]
   10ea8:	e51b3008 	ldr	r3, [fp, #-8]
   10eac:	e5c32002 	strb	r2, [r3, #2]
   10eb0:	ea000006 	b	10ed0 <HidEnumerateActionCountReport+0x224>
   10eb4:	e1a00000 	nop			; (mov r0, r0)
   10eb8:	ea000004 	b	10ed0 <HidEnumerateActionCountReport+0x224>
   10ebc:	e1a00000 	nop			; (mov r0, r0)
   10ec0:	ea000002 	b	10ed0 <HidEnumerateActionCountReport+0x224>
   10ec4:	e1a00000 	nop			; (mov r0, r0)
   10ec8:	ea000000 	b	10ed0 <HidEnumerateActionCountReport+0x224>
   10ecc:	e1a00000 	nop			; (mov r0, r0)
   10ed0:	e1a00000 	nop			; (mov r0, r0)
   10ed4:	e24bd000 	sub	sp, fp, #0
   10ed8:	e49db004 	pop	{fp}		; (ldr fp, [sp], #4)
   10edc:	e12fff1e 	bx	lr

00010ee0 <HidEnumerateActionCountField>:
   10ee0:	e52db004 	push	{fp}		; (str fp, [sp, #-4]!)
   10ee4:	e28db000 	add	fp, sp, #0
   10ee8:	e24dd024 	sub	sp, sp, #36	; 0x24
   10eec:	e50b0018 	str	r0, [fp, #-24]	; 0xffffffe8
   10ef0:	e1a03001 	mov	r3, r1
   10ef4:	e50b2020 	str	r2, [fp, #-32]	; 0xffffffe0
   10ef8:	e14b31ba 	strh	r3, [fp, #-26]	; 0xffffffe6
   10efc:	e51b3018 	ldr	r3, [fp, #-24]	; 0xffffffe8
   10f00:	e50b3014 	str	r3, [fp, #-20]	; 0xffffffec
   10f04:	e3a03000 	mov	r3, #0
   10f08:	e54b3009 	strb	r3, [fp, #-9]
   10f0c:	e15b31ba 	ldrh	r3, [fp, #-26]	; 0xffffffe6
   10f10:	e2433020 	sub	r3, r3, #32
   10f14:	e353000c 	cmp	r3, #12
   10f18:	979ff103 	ldrls	pc, [pc, r3, lsl #2]
   10f1c:	ea000098 	b	11184 <HidEnumerateActionCountField+0x2a4>
   10f20:	00010f6c 	.word	0x00010f6c
   10f24:	00011170 	.word	0x00011170
   10f28:	00011184 	.word	0x00011184
   10f2c:	00011184 	.word	0x00011184
   10f30:	00010f60 	.word	0x00010f60
   10f34:	0001111c 	.word	0x0001111c
   10f38:	00011184 	.word	0x00011184
   10f3c:	00011184 	.word	0x00011184
   10f40:	00011184 	.word	0x00011184
   10f44:	00011184 	.word	0x00011184
   10f48:	00011184 	.word	0x00011184
   10f4c:	00011184 	.word	0x00011184
   10f50:	00010f54 	.word	0x00010f54
   10f54:	e55b3009 	ldrb	r3, [fp, #-9]
   10f58:	e2833001 	add	r3, r3, #1
   10f5c:	e54b3009 	strb	r3, [fp, #-9]
   10f60:	e55b3009 	ldrb	r3, [fp, #-9]
   10f64:	e2833001 	add	r3, r3, #1
   10f68:	e54b3009 	strb	r3, [fp, #-9]
   10f6c:	e55b3009 	ldrb	r3, [fp, #-9]
   10f70:	e2833001 	add	r3, r3, #1
   10f74:	e54b3009 	strb	r3, [fp, #-9]
   10f78:	e3a03000 	mov	r3, #0
   10f7c:	e50b3008 	str	r3, [fp, #-8]
   10f80:	e3a03000 	mov	r3, #0
   10f84:	e50b3010 	str	r3, [fp, #-16]
   10f88:	ea000022 	b	11018 <HidEnumerateActionCountField+0x138>
   10f8c:	e51b1014 	ldr	r1, [fp, #-20]	; 0xffffffec
   10f90:	e51b2010 	ldr	r2, [fp, #-16]
   10f94:	e1a03002 	mov	r3, r2
   10f98:	e1a03083 	lsl	r3, r3, #1
   10f9c:	e0833002 	add	r3, r3, r2
   10fa0:	e0813003 	add	r3, r1, r3
   10fa4:	e2833006 	add	r3, r3, #6
   10fa8:	e5d32000 	ldrb	r2, [r3]
   10fac:	e51b3014 	ldr	r3, [fp, #-20]	; 0xffffffec
   10fb0:	e5d33005 	ldrb	r3, [r3, #5]
   10fb4:	e1520003 	cmp	r2, r3
   10fb8:	1a000013 	bne	1100c <HidEnumerateActionCountField+0x12c>
   10fbc:	e51b1014 	ldr	r1, [fp, #-20]	; 0xffffffec
   10fc0:	e51b2010 	ldr	r2, [fp, #-16]
   10fc4:	e1a03002 	mov	r3, r2
   10fc8:	e1a03083 	lsl	r3, r3, #1
   10fcc:	e0833002 	add	r3, r3, r2
   10fd0:	e0813003 	add	r3, r1, r3
   10fd4:	e2833008 	add	r3, r3, #8
   10fd8:	e5d33000 	ldrb	r3, [r3]
   10fdc:	e55b2009 	ldrb	r2, [fp, #-9]
   10fe0:	e1520003 	cmp	r2, r3
   10fe4:	1a000008 	bne	1100c <HidEnumerateActionCountField+0x12c>
   10fe8:	e51b2010 	ldr	r2, [fp, #-16]
   10fec:	e1a03002 	mov	r3, r2
   10ff0:	e1a03083 	lsl	r3, r3, #1
   10ff4:	e0833002 	add	r3, r3, r2
   10ff8:	e51b2014 	ldr	r2, [fp, #-20]	; 0xffffffec
   10ffc:	e0823003 	add	r3, r2, r3
   11000:	e2833006 	add	r3, r3, #6
   11004:	e50b3008 	str	r3, [fp, #-8]
   11008:	ea000008 	b	11030 <HidEnumerateActionCountField+0x150>
   1100c:	e51b3010 	ldr	r3, [fp, #-16]
   11010:	e2833001 	add	r3, r3, #1
   11014:	e50b3010 	str	r3, [fp, #-16]
   11018:	e51b3014 	ldr	r3, [fp, #-20]	; 0xffffffec
   1101c:	e5d33004 	ldrb	r3, [r3, #4]
   11020:	e1a02003 	mov	r2, r3
   11024:	e51b3010 	ldr	r3, [fp, #-16]
   11028:	e1520003 	cmp	r2, r3
   1102c:	8affffd6 	bhi	10f8c <HidEnumerateActionCountField+0xac>
   11030:	e51b3008 	ldr	r3, [fp, #-8]
   11034:	e3530000 	cmp	r3, #0
   11038:	1a000017 	bne	1109c <HidEnumerateActionCountField+0x1bc>
   1103c:	e51b3014 	ldr	r3, [fp, #-20]	; 0xffffffec
   11040:	e5d33004 	ldrb	r3, [r3, #4]
   11044:	e2832001 	add	r2, r3, #1
   11048:	e20210ff 	and	r1, r2, #255	; 0xff
   1104c:	e51b2014 	ldr	r2, [fp, #-20]	; 0xffffffec
   11050:	e5c21004 	strb	r1, [r2, #4]
   11054:	e1a02003 	mov	r2, r3
   11058:	e1a03002 	mov	r3, r2
   1105c:	e1a03083 	lsl	r3, r3, #1
   11060:	e0833002 	add	r3, r3, r2
   11064:	e51b2014 	ldr	r2, [fp, #-20]	; 0xffffffec
   11068:	e0823003 	add	r3, r2, r3
   1106c:	e2833006 	add	r3, r3, #6
   11070:	e50b3008 	str	r3, [fp, #-8]
   11074:	e51b3014 	ldr	r3, [fp, #-20]	; 0xffffffec
   11078:	e5d32005 	ldrb	r2, [r3, #5]
   1107c:	e51b3008 	ldr	r3, [fp, #-8]
   11080:	e5c32000 	strb	r2, [r3]
   11084:	e51b3008 	ldr	r3, [fp, #-8]
   11088:	e3a02000 	mov	r2, #0
   1108c:	e5c32001 	strb	r2, [r3, #1]
   11090:	e51b3008 	ldr	r3, [fp, #-8]
   11094:	e55b2009 	ldrb	r2, [fp, #-9]
   11098:	e5c32002 	strb	r2, [r3, #2]
   1109c:	e24b3020 	sub	r3, fp, #32
   110a0:	e5d33000 	ldrb	r3, [r3]
   110a4:	e2033002 	and	r3, r3, #2
   110a8:	e20330ff 	and	r3, r3, #255	; 0xff
   110ac:	e3530000 	cmp	r3, #0
   110b0:	0a000012 	beq	11100 <HidEnumerateActionCountField+0x220>
   110b4:	e51b3008 	ldr	r3, [fp, #-8]
   110b8:	e5d32001 	ldrb	r2, [r3, #1]
   110bc:	e51b3014 	ldr	r3, [fp, #-20]	; 0xffffffec
   110c0:	e5d31000 	ldrb	r1, [r3]
   110c4:	e5d30001 	ldrb	r0, [r3, #1]
   110c8:	e1a00400 	lsl	r0, r0, #8
   110cc:	e1801001 	orr	r1, r0, r1
   110d0:	e5d30002 	ldrb	r0, [r3, #2]
   110d4:	e1a00800 	lsl	r0, r0, #16
   110d8:	e1801001 	orr	r1, r0, r1
   110dc:	e5d33003 	ldrb	r3, [r3, #3]
   110e0:	e1a03c03 	lsl	r3, r3, #24
   110e4:	e1833001 	orr	r3, r3, r1
   110e8:	e20330ff 	and	r3, r3, #255	; 0xff
   110ec:	e0823003 	add	r3, r2, r3
   110f0:	e20320ff 	and	r2, r3, #255	; 0xff
   110f4:	e51b3008 	ldr	r3, [fp, #-8]
   110f8:	e5c32001 	strb	r2, [r3, #1]
   110fc:	ea000021 	b	11188 <HidEnumerateActionCountField+0x2a8>
   11100:	e51b3008 	ldr	r3, [fp, #-8]
   11104:	e5d33001 	ldrb	r3, [r3, #1]
   11108:	e2833001 	add	r3, r3, #1
   1110c:	e20320ff 	and	r2, r3, #255	; 0xff
   11110:	e51b3008 	ldr	r3, [fp, #-8]
   11114:	e5c32001 	strb	r2, [r3, #1]
   11118:	ea00001a 	b	11188 <HidEnumerateActionCountField+0x2a8>
   1111c:	e51b2020 	ldr	r2, [fp, #-32]	; 0xffffffe0
   11120:	e51b3014 	ldr	r3, [fp, #-20]	; 0xffffffec
   11124:	e20210ff 	and	r1, r2, #255	; 0xff
   11128:	e3a00000 	mov	r0, #0
   1112c:	e1801001 	orr	r1, r0, r1
   11130:	e5c31000 	strb	r1, [r3]
   11134:	e1a01422 	lsr	r1, r2, #8
   11138:	e20110ff 	and	r1, r1, #255	; 0xff
   1113c:	e3a00000 	mov	r0, #0
   11140:	e1801001 	orr	r1, r0, r1
   11144:	e5c31001 	strb	r1, [r3, #1]
   11148:	e1a01822 	lsr	r1, r2, #16
   1114c:	e20110ff 	and	r1, r1, #255	; 0xff
   11150:	e3a00000 	mov	r0, #0
   11154:	e1801001 	orr	r1, r0, r1
   11158:	e5c31002 	strb	r1, [r3, #2]
   1115c:	e1a02c22 	lsr	r2, r2, #24
   11160:	e3a01000 	mov	r1, #0
   11164:	e1812002 	orr	r2, r1, r2
   11168:	e5c32003 	strb	r2, [r3, #3]
   1116c:	ea000005 	b	11188 <HidEnumerateActionCountField+0x2a8>
   11170:	e51b3020 	ldr	r3, [fp, #-32]	; 0xffffffe0
   11174:	e20320ff 	and	r2, r3, #255	; 0xff
   11178:	e51b3014 	ldr	r3, [fp, #-20]	; 0xffffffec
   1117c:	e5c32005 	strb	r2, [r3, #5]
   11180:	ea000000 	b	11188 <HidEnumerateActionCountField+0x2a8>
   11184:	e1a00000 	nop			; (mov r0, r0)
   11188:	e1a00000 	nop			; (mov r0, r0)
   1118c:	e24bd000 	sub	sp, fp, #0
   11190:	e49db004 	pop	{fp}		; (ldr fp, [sp], #4)
   11194:	e12fff1e 	bx	lr

00011198 <HidEnumerateActionAddField>:
   11198:	e92d4810 	push	{r4, fp, lr}
   1119c:	e28db008 	add	fp, sp, #8
   111a0:	e24dd024 	sub	sp, sp, #36	; 0x24
   111a4:	e50b0020 	str	r0, [fp, #-32]	; 0xffffffe0
   111a8:	e1a03001 	mov	r3, r1
   111ac:	e50b2028 	str	r2, [fp, #-40]	; 0xffffffd8
   111b0:	e14b32b2 	strh	r3, [fp, #-34]	; 0xffffffde
   111b4:	e51b3020 	ldr	r3, [fp, #-32]	; 0xffffffe0
   111b8:	e50b301c 	str	r3, [fp, #-28]	; 0xffffffe4
   111bc:	e3a03000 	mov	r3, #0
   111c0:	e54b300d 	strb	r3, [fp, #-13]
   111c4:	e15b32b2 	ldrh	r3, [fp, #-34]	; 0xffffffde
   111c8:	e2433001 	sub	r3, r3, #1
   111cc:	e353002f 	cmp	r3, #47	; 0x2f
   111d0:	979ff103 	ldrls	pc, [pc, r3, lsl #2]
   111d4:	ea000598 	b	1283c <HidEnumerateActionAddField+0x16a4>
   111d8:	00012184 	.word	0x00012184
   111dc:	0001241c 	.word	0x0001241c
   111e0:	0001283c 	.word	0x0001283c
   111e4:	0001283c 	.word	0x0001283c
   111e8:	000121c0 	.word	0x000121c0
   111ec:	0001259c 	.word	0x0001259c
   111f0:	0001283c 	.word	0x0001283c
   111f4:	0001283c 	.word	0x0001283c
   111f8:	00012214 	.word	0x00012214
   111fc:	0001271c 	.word	0x0001271c
   11200:	0001283c 	.word	0x0001283c
   11204:	0001283c 	.word	0x0001283c
   11208:	00012268 	.word	0x00012268
   1120c:	0001283c 	.word	0x0001283c
   11210:	0001283c 	.word	0x0001283c
   11214:	0001283c 	.word	0x0001283c
   11218:	000122bc 	.word	0x000122bc
   1121c:	0001283c 	.word	0x0001283c
   11220:	0001283c 	.word	0x0001283c
   11224:	0001283c 	.word	0x0001283c
   11228:	00012310 	.word	0x00012310
   1122c:	0001283c 	.word	0x0001283c
   11230:	0001283c 	.word	0x0001283c
   11234:	0001283c 	.word	0x0001283c
   11238:	00012364 	.word	0x00012364
   1123c:	0001283c 	.word	0x0001283c
   11240:	0001283c 	.word	0x0001283c
   11244:	0001283c 	.word	0x0001283c
   11248:	00012378 	.word	0x00012378
   1124c:	0001283c 	.word	0x0001283c
   11250:	0001283c 	.word	0x0001283c
   11254:	000112b0 	.word	0x000112b0
   11258:	000123c0 	.word	0x000123c0
   1125c:	0001283c 	.word	0x0001283c
   11260:	0001283c 	.word	0x0001283c
   11264:	000112a4 	.word	0x000112a4
   11268:	000123d4 	.word	0x000123d4
   1126c:	0001283c 	.word	0x0001283c
   11270:	0001283c 	.word	0x0001283c
   11274:	00011f60 	.word	0x00011f60
   11278:	0001283c 	.word	0x0001283c
   1127c:	0001283c 	.word	0x0001283c
   11280:	0001283c 	.word	0x0001283c
   11284:	00011298 	.word	0x00011298
   11288:	0001283c 	.word	0x0001283c
   1128c:	0001283c 	.word	0x0001283c
   11290:	0001283c 	.word	0x0001283c
   11294:	00012158 	.word	0x00012158
   11298:	e55b300d 	ldrb	r3, [fp, #-13]
   1129c:	e2833001 	add	r3, r3, #1
   112a0:	e54b300d 	strb	r3, [fp, #-13]
   112a4:	e55b300d 	ldrb	r3, [fp, #-13]
   112a8:	e2833001 	add	r3, r3, #1
   112ac:	e54b300d 	strb	r3, [fp, #-13]
   112b0:	e55b300d 	ldrb	r3, [fp, #-13]
   112b4:	e2833001 	add	r3, r3, #1
   112b8:	e54b300d 	strb	r3, [fp, #-13]
   112bc:	e3a03000 	mov	r3, #0
   112c0:	e50b3014 	str	r3, [fp, #-20]	; 0xffffffec
   112c4:	e3a03000 	mov	r3, #0
   112c8:	e50b3018 	str	r3, [fp, #-24]	; 0xffffffe8
   112cc:	ea00003a 	b	113bc <HidEnumerateActionAddField+0x224>
   112d0:	e51b301c 	ldr	r3, [fp, #-28]	; 0xffffffe4
   112d4:	e5d32000 	ldrb	r2, [r3]
   112d8:	e5d31001 	ldrb	r1, [r3, #1]
   112dc:	e1a01401 	lsl	r1, r1, #8
   112e0:	e1812002 	orr	r2, r1, r2
   112e4:	e5d31002 	ldrb	r1, [r3, #2]
   112e8:	e1a01801 	lsl	r1, r1, #16
   112ec:	e1812002 	orr	r2, r1, r2
   112f0:	e5d33003 	ldrb	r3, [r3, #3]
   112f4:	e1a03c03 	lsl	r3, r3, #24
   112f8:	e1833002 	orr	r3, r3, r2
   112fc:	e1a02003 	mov	r2, r3
   11300:	e51b3018 	ldr	r3, [fp, #-24]	; 0xffffffe8
   11304:	e2833002 	add	r3, r3, #2
   11308:	e7923103 	ldr	r3, [r2, r3, lsl #2]
   1130c:	e5d32002 	ldrb	r2, [r3, #2]
   11310:	e51b301c 	ldr	r3, [fp, #-28]	; 0xffffffe4
   11314:	e5d3302e 	ldrb	r3, [r3, #46]	; 0x2e
   11318:	e1520003 	cmp	r2, r3
   1131c:	1a000023 	bne	113b0 <HidEnumerateActionAddField+0x218>
   11320:	e51b301c 	ldr	r3, [fp, #-28]	; 0xffffffe4
   11324:	e5d32000 	ldrb	r2, [r3]
   11328:	e5d31001 	ldrb	r1, [r3, #1]
   1132c:	e1a01401 	lsl	r1, r1, #8
   11330:	e1812002 	orr	r2, r1, r2
   11334:	e5d31002 	ldrb	r1, [r3, #2]
   11338:	e1a01801 	lsl	r1, r1, #16
   1133c:	e1812002 	orr	r2, r1, r2
   11340:	e5d33003 	ldrb	r3, [r3, #3]
   11344:	e1a03c03 	lsl	r3, r3, #24
   11348:	e1833002 	orr	r3, r3, r2
   1134c:	e1a02003 	mov	r2, r3
   11350:	e51b3018 	ldr	r3, [fp, #-24]	; 0xffffffe8
   11354:	e2833002 	add	r3, r3, #2
   11358:	e7923103 	ldr	r3, [r2, r3, lsl #2]
   1135c:	e5d33003 	ldrb	r3, [r3, #3]
   11360:	e55b200d 	ldrb	r2, [fp, #-13]
   11364:	e1520003 	cmp	r2, r3
   11368:	1a000010 	bne	113b0 <HidEnumerateActionAddField+0x218>
   1136c:	e51b301c 	ldr	r3, [fp, #-28]	; 0xffffffe4
   11370:	e5d32000 	ldrb	r2, [r3]
   11374:	e5d31001 	ldrb	r1, [r3, #1]
   11378:	e1a01401 	lsl	r1, r1, #8
   1137c:	e1812002 	orr	r2, r1, r2
   11380:	e5d31002 	ldrb	r1, [r3, #2]
   11384:	e1a01801 	lsl	r1, r1, #16
   11388:	e1812002 	orr	r2, r1, r2
   1138c:	e5d33003 	ldrb	r3, [r3, #3]
   11390:	e1a03c03 	lsl	r3, r3, #24
   11394:	e1833002 	orr	r3, r3, r2
   11398:	e1a02003 	mov	r2, r3
   1139c:	e51b3018 	ldr	r3, [fp, #-24]	; 0xffffffe8
   113a0:	e2833002 	add	r3, r3, #2
   113a4:	e7923103 	ldr	r3, [r2, r3, lsl #2]
   113a8:	e50b3014 	str	r3, [fp, #-20]	; 0xffffffec
   113ac:	ea000012 	b	113fc <HidEnumerateActionAddField+0x264>
   113b0:	e51b3018 	ldr	r3, [fp, #-24]	; 0xffffffe8
   113b4:	e2833001 	add	r3, r3, #1
   113b8:	e50b3018 	str	r3, [fp, #-24]	; 0xffffffe8
   113bc:	e51b301c 	ldr	r3, [fp, #-28]	; 0xffffffe4
   113c0:	e5d32000 	ldrb	r2, [r3]
   113c4:	e5d31001 	ldrb	r1, [r3, #1]
   113c8:	e1a01401 	lsl	r1, r1, #8
   113cc:	e1812002 	orr	r2, r1, r2
   113d0:	e5d31002 	ldrb	r1, [r3, #2]
   113d4:	e1a01801 	lsl	r1, r1, #16
   113d8:	e1812002 	orr	r2, r1, r2
   113dc:	e5d33003 	ldrb	r3, [r3, #3]
   113e0:	e1a03c03 	lsl	r3, r3, #24
   113e4:	e1833002 	orr	r3, r3, r2
   113e8:	e5d33004 	ldrb	r3, [r3, #4]
   113ec:	e1a02003 	mov	r2, r3
   113f0:	e51b3018 	ldr	r3, [fp, #-24]	; 0xffffffe8
   113f4:	e1520003 	cmp	r2, r3
   113f8:	8affffb4 	bhi	112d0 <HidEnumerateActionAddField+0x138>
   113fc:	ea0002bb 	b	11ef0 <HidEnumerateActionAddField+0xd58>
   11400:	e51b301c 	ldr	r3, [fp, #-28]	; 0xffffffe4
   11404:	e5d3200c 	ldrb	r2, [r3, #12]
   11408:	e5d3100d 	ldrb	r1, [r3, #13]
   1140c:	e1a01401 	lsl	r1, r1, #8
   11410:	e1812002 	orr	r2, r1, r2
   11414:	e5d3100e 	ldrb	r1, [r3, #14]
   11418:	e1a01801 	lsl	r1, r1, #16
   1141c:	e1812002 	orr	r2, r1, r2
   11420:	e5d3300f 	ldrb	r3, [r3, #15]
   11424:	e1a03c03 	lsl	r3, r3, #24
   11428:	e1833002 	orr	r3, r3, r2
   1142c:	e5933000 	ldr	r3, [r3]
   11430:	e3730001 	cmn	r3, #1
   11434:	1a00001e 	bne	114b4 <HidEnumerateActionAddField+0x31c>
   11438:	e51b301c 	ldr	r3, [fp, #-28]	; 0xffffffe4
   1143c:	e5d3200c 	ldrb	r2, [r3, #12]
   11440:	e5d3100d 	ldrb	r1, [r3, #13]
   11444:	e1a01401 	lsl	r1, r1, #8
   11448:	e1812002 	orr	r2, r1, r2
   1144c:	e5d3100e 	ldrb	r1, [r3, #14]
   11450:	e1a01801 	lsl	r1, r1, #16
   11454:	e1812002 	orr	r2, r1, r2
   11458:	e5d3300f 	ldrb	r3, [r3, #15]
   1145c:	e1a03c03 	lsl	r3, r3, #24
   11460:	e1833002 	orr	r3, r3, r2
   11464:	e2832004 	add	r2, r3, #4
   11468:	e51b301c 	ldr	r3, [fp, #-28]	; 0xffffffe4
   1146c:	e20210ff 	and	r1, r2, #255	; 0xff
   11470:	e3a00000 	mov	r0, #0
   11474:	e1801001 	orr	r1, r0, r1
   11478:	e5c3100c 	strb	r1, [r3, #12]
   1147c:	e1a01422 	lsr	r1, r2, #8
   11480:	e20110ff 	and	r1, r1, #255	; 0xff
   11484:	e3a00000 	mov	r0, #0
   11488:	e1801001 	orr	r1, r0, r1
   1148c:	e5c3100d 	strb	r1, [r3, #13]
   11490:	e1a01822 	lsr	r1, r2, #16
   11494:	e20110ff 	and	r1, r1, #255	; 0xff
   11498:	e3a00000 	mov	r0, #0
   1149c:	e1801001 	orr	r1, r0, r1
   114a0:	e5c3100e 	strb	r1, [r3, #14]
   114a4:	e1a02c22 	lsr	r2, r2, #24
   114a8:	e3a01000 	mov	r1, #0
   114ac:	e1812002 	orr	r2, r1, r2
   114b0:	e5c3200f 	strb	r2, [r3, #15]
   114b4:	e51b3014 	ldr	r3, [fp, #-20]	; 0xffffffec
   114b8:	e5d33001 	ldrb	r3, [r3, #1]
   114bc:	e1a02003 	mov	r2, r3
   114c0:	e1a03002 	mov	r3, r2
   114c4:	e1a03103 	lsl	r3, r3, #2
   114c8:	e0833002 	add	r3, r3, r2
   114cc:	e1a03083 	lsl	r3, r3, #1
   114d0:	e0833002 	add	r3, r3, r2
   114d4:	e1a03103 	lsl	r3, r3, #2
   114d8:	e2833008 	add	r3, r3, #8
   114dc:	e51b2014 	ldr	r2, [fp, #-20]	; 0xffffffec
   114e0:	e0823003 	add	r3, r2, r3
   114e4:	e2833008 	add	r3, r3, #8
   114e8:	e51b2028 	ldr	r2, [fp, #-40]	; 0xffffffd8
   114ec:	e5832000 	str	r2, [r3]
   114f0:	e51b3014 	ldr	r3, [fp, #-20]	; 0xffffffec
   114f4:	e5d33001 	ldrb	r3, [r3, #1]
   114f8:	e1a02003 	mov	r2, r3
   114fc:	e51b3014 	ldr	r3, [fp, #-20]	; 0xffffffec
   11500:	e5d33001 	ldrb	r3, [r3, #1]
   11504:	e1a01003 	mov	r1, r3
   11508:	e51b0014 	ldr	r0, [fp, #-20]	; 0xffffffec
   1150c:	e1a03001 	mov	r3, r1
   11510:	e1a03103 	lsl	r3, r3, #2
   11514:	e0833001 	add	r3, r3, r1
   11518:	e1a03083 	lsl	r3, r3, #1
   1151c:	e0833001 	add	r3, r3, r1
   11520:	e1a03103 	lsl	r3, r3, #2
   11524:	e0803003 	add	r3, r0, r3
   11528:	e2833008 	add	r3, r3, #8
   1152c:	e5d33008 	ldrb	r3, [r3, #8]
   11530:	e1a030a3 	lsr	r3, r3, #1
   11534:	e2033001 	and	r3, r3, #1
   11538:	e20330ff 	and	r3, r3, #255	; 0xff
   1153c:	e3530000 	cmp	r3, #0
   11540:	0a000001 	beq	1154c <HidEnumerateActionAddField+0x3b4>
   11544:	e3a00001 	mov	r0, #1
   11548:	ea00000b 	b	1157c <HidEnumerateActionAddField+0x3e4>
   1154c:	e51b301c 	ldr	r3, [fp, #-28]	; 0xffffffe4
   11550:	e5d31004 	ldrb	r1, [r3, #4]
   11554:	e5d30005 	ldrb	r0, [r3, #5]
   11558:	e1a00400 	lsl	r0, r0, #8
   1155c:	e1801001 	orr	r1, r0, r1
   11560:	e5d30006 	ldrb	r0, [r3, #6]
   11564:	e1a00800 	lsl	r0, r0, #16
   11568:	e1801001 	orr	r1, r0, r1
   1156c:	e5d33007 	ldrb	r3, [r3, #7]
   11570:	e1a03c03 	lsl	r3, r3, #24
   11574:	e1833001 	orr	r3, r3, r1
   11578:	e20300ff 	and	r0, r3, #255	; 0xff
   1157c:	e51b1014 	ldr	r1, [fp, #-20]	; 0xffffffec
   11580:	e1a03002 	mov	r3, r2
   11584:	e1a03103 	lsl	r3, r3, #2
   11588:	e0833002 	add	r3, r3, r2
   1158c:	e1a03083 	lsl	r3, r3, #1
   11590:	e0833002 	add	r3, r3, r2
   11594:	e1a03103 	lsl	r3, r3, #2
   11598:	e0813003 	add	r3, r1, r3
   1159c:	e283300e 	add	r3, r3, #14
   115a0:	e1a02000 	mov	r2, r0
   115a4:	e5c32000 	strb	r2, [r3]
   115a8:	e51b3014 	ldr	r3, [fp, #-20]	; 0xffffffec
   115ac:	e5d33001 	ldrb	r3, [r3, #1]
   115b0:	e1a02003 	mov	r2, r3
   115b4:	e51b301c 	ldr	r3, [fp, #-28]	; 0xffffffe4
   115b8:	e5d31018 	ldrb	r1, [r3, #24]
   115bc:	e5d30019 	ldrb	r0, [r3, #25]
   115c0:	e1a00400 	lsl	r0, r0, #8
   115c4:	e1801001 	orr	r1, r0, r1
   115c8:	e5d3001a 	ldrb	r0, [r3, #26]
   115cc:	e1a00800 	lsl	r0, r0, #16
   115d0:	e1801001 	orr	r1, r0, r1
   115d4:	e5d3301b 	ldrb	r3, [r3, #27]
   115d8:	e1a03c03 	lsl	r3, r3, #24
   115dc:	e1833001 	orr	r3, r3, r1
   115e0:	e1a00003 	mov	r0, r3
   115e4:	e51b1014 	ldr	r1, [fp, #-20]	; 0xffffffec
   115e8:	e1a03002 	mov	r3, r2
   115ec:	e1a03103 	lsl	r3, r3, #2
   115f0:	e0833002 	add	r3, r3, r2
   115f4:	e1a03083 	lsl	r3, r3, #1
   115f8:	e0833002 	add	r3, r3, r2
   115fc:	e1a03103 	lsl	r3, r3, #2
   11600:	e0813003 	add	r3, r1, r3
   11604:	e2833020 	add	r3, r3, #32
   11608:	e5830000 	str	r0, [r3]
   1160c:	e51b3014 	ldr	r3, [fp, #-20]	; 0xffffffec
   11610:	e5d33001 	ldrb	r3, [r3, #1]
   11614:	e1a02003 	mov	r2, r3
   11618:	e51b301c 	ldr	r3, [fp, #-28]	; 0xffffffe4
   1161c:	e5d31014 	ldrb	r1, [r3, #20]
   11620:	e5d30015 	ldrb	r0, [r3, #21]
   11624:	e1a00400 	lsl	r0, r0, #8
   11628:	e1801001 	orr	r1, r0, r1
   1162c:	e5d30016 	ldrb	r0, [r3, #22]
   11630:	e1a00800 	lsl	r0, r0, #16
   11634:	e1801001 	orr	r1, r0, r1
   11638:	e5d33017 	ldrb	r3, [r3, #23]
   1163c:	e1a03c03 	lsl	r3, r3, #24
   11640:	e1833001 	orr	r3, r3, r1
   11644:	e1a00003 	mov	r0, r3
   11648:	e51b1014 	ldr	r1, [fp, #-20]	; 0xffffffec
   1164c:	e1a03002 	mov	r3, r2
   11650:	e1a03103 	lsl	r3, r3, #2
   11654:	e0833002 	add	r3, r3, r2
   11658:	e1a03083 	lsl	r3, r3, #1
   1165c:	e0833002 	add	r3, r3, r2
   11660:	e1a03103 	lsl	r3, r3, #2
   11664:	e0813003 	add	r3, r1, r3
   11668:	e283301c 	add	r3, r3, #28
   1166c:	e5830000 	str	r0, [r3]
   11670:	e51b3014 	ldr	r3, [fp, #-20]	; 0xffffffec
   11674:	e5d33001 	ldrb	r3, [r3, #1]
   11678:	e1a02003 	mov	r2, r3
   1167c:	e51b3014 	ldr	r3, [fp, #-20]	; 0xffffffec
   11680:	e5d30004 	ldrb	r0, [r3, #4]
   11684:	e51b1014 	ldr	r1, [fp, #-20]	; 0xffffffec
   11688:	e1a03002 	mov	r3, r2
   1168c:	e1a03103 	lsl	r3, r3, #2
   11690:	e0833002 	add	r3, r3, r2
   11694:	e1a03083 	lsl	r3, r3, #1
   11698:	e0833002 	add	r3, r3, r2
   1169c:	e1a03103 	lsl	r3, r3, #2
   116a0:	e0813003 	add	r3, r1, r3
   116a4:	e283300d 	add	r3, r3, #13
   116a8:	e1a02000 	mov	r2, r0
   116ac:	e5c32000 	strb	r2, [r3]
   116b0:	e51b3014 	ldr	r3, [fp, #-20]	; 0xffffffec
   116b4:	e5d33001 	ldrb	r3, [r3, #1]
   116b8:	e1a02003 	mov	r2, r3
   116bc:	e51b301c 	ldr	r3, [fp, #-28]	; 0xffffffe4
   116c0:	e5d31020 	ldrb	r1, [r3, #32]
   116c4:	e5d30021 	ldrb	r0, [r3, #33]	; 0x21
   116c8:	e1a00400 	lsl	r0, r0, #8
   116cc:	e1801001 	orr	r1, r0, r1
   116d0:	e5d30022 	ldrb	r0, [r3, #34]	; 0x22
   116d4:	e1a00800 	lsl	r0, r0, #16
   116d8:	e1801001 	orr	r1, r0, r1
   116dc:	e5d33023 	ldrb	r3, [r3, #35]	; 0x23
   116e0:	e1a03c03 	lsl	r3, r3, #24
   116e4:	e1833001 	orr	r3, r3, r1
   116e8:	e1a00003 	mov	r0, r3
   116ec:	e51b1014 	ldr	r1, [fp, #-20]	; 0xffffffec
   116f0:	e1a03002 	mov	r3, r2
   116f4:	e1a03103 	lsl	r3, r3, #2
   116f8:	e0833002 	add	r3, r3, r2
   116fc:	e1a03083 	lsl	r3, r3, #1
   11700:	e0833002 	add	r3, r3, r2
   11704:	e1a03103 	lsl	r3, r3, #2
   11708:	e0813003 	add	r3, r1, r3
   1170c:	e2833028 	add	r3, r3, #40	; 0x28
   11710:	e5830000 	str	r0, [r3]
   11714:	e51b3014 	ldr	r3, [fp, #-20]	; 0xffffffec
   11718:	e5d33001 	ldrb	r3, [r3, #1]
   1171c:	e1a02003 	mov	r2, r3
   11720:	e51b301c 	ldr	r3, [fp, #-28]	; 0xffffffe4
   11724:	e5d3101c 	ldrb	r1, [r3, #28]
   11728:	e5d3001d 	ldrb	r0, [r3, #29]
   1172c:	e1a00400 	lsl	r0, r0, #8
   11730:	e1801001 	orr	r1, r0, r1
   11734:	e5d3001e 	ldrb	r0, [r3, #30]
   11738:	e1a00800 	lsl	r0, r0, #16
   1173c:	e1801001 	orr	r1, r0, r1
   11740:	e5d3301f 	ldrb	r3, [r3, #31]
   11744:	e1a03c03 	lsl	r3, r3, #24
   11748:	e1833001 	orr	r3, r3, r1
   1174c:	e1a00003 	mov	r0, r3
   11750:	e51b1014 	ldr	r1, [fp, #-20]	; 0xffffffec
   11754:	e1a03002 	mov	r3, r2
   11758:	e1a03103 	lsl	r3, r3, #2
   1175c:	e0833002 	add	r3, r3, r2
   11760:	e1a03083 	lsl	r3, r3, #1
   11764:	e0833002 	add	r3, r3, r2
   11768:	e1a03103 	lsl	r3, r3, #2
   1176c:	e0813003 	add	r3, r1, r3
   11770:	e2833024 	add	r3, r3, #36	; 0x24
   11774:	e5830000 	str	r0, [r3]
   11778:	e51b3014 	ldr	r3, [fp, #-20]	; 0xffffffec
   1177c:	e5d33001 	ldrb	r3, [r3, #1]
   11780:	e1a02003 	mov	r2, r3
   11784:	e1a03002 	mov	r3, r2
   11788:	e1a03103 	lsl	r3, r3, #2
   1178c:	e0833002 	add	r3, r3, r2
   11790:	e1a03083 	lsl	r3, r3, #1
   11794:	e0833002 	add	r3, r3, r2
   11798:	e1a03103 	lsl	r3, r3, #2
   1179c:	e2833010 	add	r3, r3, #16
   117a0:	e51b2014 	ldr	r2, [fp, #-20]	; 0xffffffec
   117a4:	e0823003 	add	r3, r2, r3
   117a8:	e2833008 	add	r3, r3, #8
   117ac:	e51b201c 	ldr	r2, [fp, #-28]	; 0xffffffe4
   117b0:	e2822010 	add	r2, r2, #16
   117b4:	e5922000 	ldr	r2, [r2]
   117b8:	e5832000 	str	r2, [r3]
   117bc:	e51b3014 	ldr	r3, [fp, #-20]	; 0xffffffec
   117c0:	e5d33001 	ldrb	r3, [r3, #1]
   117c4:	e1a02003 	mov	r2, r3
   117c8:	e51b301c 	ldr	r3, [fp, #-28]	; 0xffffffe4
   117cc:	e5d31008 	ldrb	r1, [r3, #8]
   117d0:	e5d30009 	ldrb	r0, [r3, #9]
   117d4:	e1a00400 	lsl	r0, r0, #8
   117d8:	e1801001 	orr	r1, r0, r1
   117dc:	e5d3000a 	ldrb	r0, [r3, #10]
   117e0:	e1a00800 	lsl	r0, r0, #16
   117e4:	e1801001 	orr	r1, r0, r1
   117e8:	e5d3300b 	ldrb	r3, [r3, #11]
   117ec:	e1a03c03 	lsl	r3, r3, #24
   117f0:	e1833001 	orr	r3, r3, r1
   117f4:	e20300ff 	and	r0, r3, #255	; 0xff
   117f8:	e51b1014 	ldr	r1, [fp, #-20]	; 0xffffffec
   117fc:	e1a03002 	mov	r3, r2
   11800:	e1a03103 	lsl	r3, r3, #2
   11804:	e0833002 	add	r3, r3, r2
   11808:	e1a03083 	lsl	r3, r3, #1
   1180c:	e0833002 	add	r3, r3, r2
   11810:	e1a03103 	lsl	r3, r3, #2
   11814:	e0813003 	add	r3, r1, r3
   11818:	e283300c 	add	r3, r3, #12
   1181c:	e1a02000 	mov	r2, r0
   11820:	e5c32000 	strb	r2, [r3]
   11824:	e51b3014 	ldr	r3, [fp, #-20]	; 0xffffffec
   11828:	e5d33001 	ldrb	r3, [r3, #1]
   1182c:	e1a02003 	mov	r2, r3
   11830:	e1a03002 	mov	r3, r2
   11834:	e1a03103 	lsl	r3, r3, #2
   11838:	e0833002 	add	r3, r3, r2
   1183c:	e1a03083 	lsl	r3, r3, #1
   11840:	e0833002 	add	r3, r3, r2
   11844:	e1a03103 	lsl	r3, r3, #2
   11848:	e2833028 	add	r3, r3, #40	; 0x28
   1184c:	e51b2014 	ldr	r2, [fp, #-20]	; 0xffffffec
   11850:	e0823003 	add	r3, r2, r3
   11854:	e2833004 	add	r3, r3, #4
   11858:	e51b201c 	ldr	r2, [fp, #-28]	; 0xffffffe4
   1185c:	e2822024 	add	r2, r2, #36	; 0x24
   11860:	e5922000 	ldr	r2, [r2]
   11864:	e5832000 	str	r2, [r3]
   11868:	e51b3014 	ldr	r3, [fp, #-20]	; 0xffffffec
   1186c:	e5d33001 	ldrb	r3, [r3, #1]
   11870:	e1a02003 	mov	r2, r3
   11874:	e51b301c 	ldr	r3, [fp, #-28]	; 0xffffffe4
   11878:	e5d31028 	ldrb	r1, [r3, #40]	; 0x28
   1187c:	e5d30029 	ldrb	r0, [r3, #41]	; 0x29
   11880:	e1a00400 	lsl	r0, r0, #8
   11884:	e1801001 	orr	r1, r0, r1
   11888:	e5d3002a 	ldrb	r0, [r3, #42]	; 0x2a
   1188c:	e1a00800 	lsl	r0, r0, #16
   11890:	e1801001 	orr	r1, r0, r1
   11894:	e5d3302b 	ldrb	r3, [r3, #43]	; 0x2b
   11898:	e1a03c03 	lsl	r3, r3, #24
   1189c:	e1833001 	orr	r3, r3, r1
   118a0:	e1a00003 	mov	r0, r3
   118a4:	e51b1014 	ldr	r1, [fp, #-20]	; 0xffffffec
   118a8:	e1a03002 	mov	r3, r2
   118ac:	e1a03103 	lsl	r3, r3, #2
   118b0:	e0833002 	add	r3, r3, r2
   118b4:	e1a03083 	lsl	r3, r3, #1
   118b8:	e0833002 	add	r3, r3, r2
   118bc:	e1a03103 	lsl	r3, r3, #2
   118c0:	e0813003 	add	r3, r1, r3
   118c4:	e2833030 	add	r3, r3, #48	; 0x30
   118c8:	e5830000 	str	r0, [r3]
   118cc:	e51b301c 	ldr	r3, [fp, #-28]	; 0xffffffe4
   118d0:	e5d3200c 	ldrb	r2, [r3, #12]
   118d4:	e5d3100d 	ldrb	r1, [r3, #13]
   118d8:	e1a01401 	lsl	r1, r1, #8
   118dc:	e1812002 	orr	r2, r1, r2
   118e0:	e5d3100e 	ldrb	r1, [r3, #14]
   118e4:	e1a01801 	lsl	r1, r1, #16
   118e8:	e1812002 	orr	r2, r1, r2
   118ec:	e5d3300f 	ldrb	r3, [r3, #15]
   118f0:	e1a03c03 	lsl	r3, r3, #24
   118f4:	e1833002 	orr	r3, r3, r2
   118f8:	e5d32002 	ldrb	r2, [r3, #2]
   118fc:	e5d33003 	ldrb	r3, [r3, #3]
   11900:	e1a03403 	lsl	r3, r3, #8
   11904:	e1833002 	orr	r3, r3, r2
   11908:	e1a03803 	lsl	r3, r3, #16
   1190c:	e1a03823 	lsr	r3, r3, #16
   11910:	e59f2f38 	ldr	r2, [pc, #3896]	; 12850 <HidEnumerateActionAddField+0x16b8>
   11914:	e1530002 	cmp	r3, r2
   11918:	1a000090 	bne	11b60 <HidEnumerateActionAddField+0x9c8>
   1191c:	e51b3014 	ldr	r3, [fp, #-20]	; 0xffffffec
   11920:	e5d33001 	ldrb	r3, [r3, #1]
   11924:	e1a02003 	mov	r2, r3
   11928:	e1a03002 	mov	r3, r2
   1192c:	e1a03103 	lsl	r3, r3, #2
   11930:	e0833002 	add	r3, r3, r2
   11934:	e1a03083 	lsl	r3, r3, #1
   11938:	e0833002 	add	r3, r3, r2
   1193c:	e1a03103 	lsl	r3, r3, #2
   11940:	e2833010 	add	r3, r3, #16
   11944:	e51b2014 	ldr	r2, [fp, #-20]	; 0xffffffec
   11948:	e0823003 	add	r3, r2, r3
   1194c:	e2832004 	add	r2, r3, #4
   11950:	e51b301c 	ldr	r3, [fp, #-28]	; 0xffffffe4
   11954:	e5d3100c 	ldrb	r1, [r3, #12]
   11958:	e5d3000d 	ldrb	r0, [r3, #13]
   1195c:	e1a00400 	lsl	r0, r0, #8
   11960:	e1801001 	orr	r1, r0, r1
   11964:	e5d3000e 	ldrb	r0, [r3, #14]
   11968:	e1a00800 	lsl	r0, r0, #16
   1196c:	e1801001 	orr	r1, r0, r1
   11970:	e5d3300f 	ldrb	r3, [r3, #15]
   11974:	e1a03c03 	lsl	r3, r3, #24
   11978:	e1833001 	orr	r3, r3, r1
   1197c:	e5133004 	ldr	r3, [r3, #-4]
   11980:	e5823000 	str	r3, [r2]
   11984:	e51b301c 	ldr	r3, [fp, #-28]	; 0xffffffe4
   11988:	e5d3200c 	ldrb	r2, [r3, #12]
   1198c:	e5d3100d 	ldrb	r1, [r3, #13]
   11990:	e1a01401 	lsl	r1, r1, #8
   11994:	e1812002 	orr	r2, r1, r2
   11998:	e5d3100e 	ldrb	r1, [r3, #14]
   1199c:	e1a01801 	lsl	r1, r1, #16
   119a0:	e1812002 	orr	r2, r1, r2
   119a4:	e5d3300f 	ldrb	r3, [r3, #15]
   119a8:	e1a03c03 	lsl	r3, r3, #24
   119ac:	e1833002 	orr	r3, r3, r2
   119b0:	e5d32000 	ldrb	r2, [r3]
   119b4:	e5d33001 	ldrb	r3, [r3, #1]
   119b8:	e1a03403 	lsl	r3, r3, #8
   119bc:	e1833002 	orr	r3, r3, r2
   119c0:	e1a03803 	lsl	r3, r3, #16
   119c4:	e1a02823 	lsr	r2, r3, #16
   119c8:	e51b301c 	ldr	r3, [fp, #-28]	; 0xffffffe4
   119cc:	e5d3100c 	ldrb	r1, [r3, #12]
   119d0:	e5d3000d 	ldrb	r0, [r3, #13]
   119d4:	e1a00400 	lsl	r0, r0, #8
   119d8:	e1801001 	orr	r1, r0, r1
   119dc:	e5d3000e 	ldrb	r0, [r3, #14]
   119e0:	e1a00800 	lsl	r0, r0, #16
   119e4:	e1801001 	orr	r1, r0, r1
   119e8:	e5d3300f 	ldrb	r3, [r3, #15]
   119ec:	e1a03c03 	lsl	r3, r3, #24
   119f0:	e1833001 	orr	r3, r3, r1
   119f4:	e2433004 	sub	r3, r3, #4
   119f8:	e5d31000 	ldrb	r1, [r3]
   119fc:	e5d33001 	ldrb	r3, [r3, #1]
   11a00:	e1a03403 	lsl	r3, r3, #8
   11a04:	e1833001 	orr	r3, r3, r1
   11a08:	e1a03803 	lsl	r3, r3, #16
   11a0c:	e1a03823 	lsr	r3, r3, #16
   11a10:	e1520003 	cmp	r2, r3
   11a14:	0a000011 	beq	11a60 <HidEnumerateActionAddField+0x8c8>
   11a18:	e51b3014 	ldr	r3, [fp, #-20]	; 0xffffffec
   11a1c:	e5d33001 	ldrb	r3, [r3, #1]
   11a20:	e1a02003 	mov	r2, r3
   11a24:	e51b1014 	ldr	r1, [fp, #-20]	; 0xffffffec
   11a28:	e1a03002 	mov	r3, r2
   11a2c:	e1a03103 	lsl	r3, r3, #2
   11a30:	e0833002 	add	r3, r3, r2
   11a34:	e1a03083 	lsl	r3, r3, #1
   11a38:	e0833002 	add	r3, r3, r2
   11a3c:	e1a03103 	lsl	r3, r3, #2
   11a40:	e0813003 	add	r3, r1, r3
   11a44:	e2833008 	add	r3, r3, #8
   11a48:	e5d33008 	ldrb	r3, [r3, #8]
   11a4c:	e1a030a3 	lsr	r3, r3, #1
   11a50:	e2033001 	and	r3, r3, #1
   11a54:	e20330ff 	and	r3, r3, #255	; 0xff
   11a58:	e3530000 	cmp	r3, #0
   11a5c:	1a00001f 	bne	11ae0 <HidEnumerateActionAddField+0x948>
   11a60:	e51b301c 	ldr	r3, [fp, #-28]	; 0xffffffe4
   11a64:	e5d3200c 	ldrb	r2, [r3, #12]
   11a68:	e5d3100d 	ldrb	r1, [r3, #13]
   11a6c:	e1a01401 	lsl	r1, r1, #8
   11a70:	e1812002 	orr	r2, r1, r2
   11a74:	e5d3100e 	ldrb	r1, [r3, #14]
   11a78:	e1a01801 	lsl	r1, r1, #16
   11a7c:	e1812002 	orr	r2, r1, r2
   11a80:	e5d3300f 	ldrb	r3, [r3, #15]
   11a84:	e1a03c03 	lsl	r3, r3, #24
   11a88:	e1833002 	orr	r3, r3, r2
   11a8c:	e2432008 	sub	r2, r3, #8
   11a90:	e51b301c 	ldr	r3, [fp, #-28]	; 0xffffffe4
   11a94:	e20210ff 	and	r1, r2, #255	; 0xff
   11a98:	e3a00000 	mov	r0, #0
   11a9c:	e1801001 	orr	r1, r0, r1
   11aa0:	e5c3100c 	strb	r1, [r3, #12]
   11aa4:	e1a01422 	lsr	r1, r2, #8
   11aa8:	e20110ff 	and	r1, r1, #255	; 0xff
   11aac:	e3a00000 	mov	r0, #0
   11ab0:	e1801001 	orr	r1, r0, r1
   11ab4:	e5c3100d 	strb	r1, [r3, #13]
   11ab8:	e1a01822 	lsr	r1, r2, #16
   11abc:	e20110ff 	and	r1, r1, #255	; 0xff
   11ac0:	e3a00000 	mov	r0, #0
   11ac4:	e1801001 	orr	r1, r0, r1
   11ac8:	e5c3100e 	strb	r1, [r3, #14]
   11acc:	e1a02c22 	lsr	r2, r2, #24
   11ad0:	e3a01000 	mov	r1, #0
   11ad4:	e1812002 	orr	r2, r1, r2
   11ad8:	e5c3200f 	strb	r2, [r3, #15]
   11adc:	ea00004e 	b	11c1c <HidEnumerateActionAddField+0xa84>
   11ae0:	e51b301c 	ldr	r3, [fp, #-28]	; 0xffffffe4
   11ae4:	e5d3200c 	ldrb	r2, [r3, #12]
   11ae8:	e5d3100d 	ldrb	r1, [r3, #13]
   11aec:	e1a01401 	lsl	r1, r1, #8
   11af0:	e1812002 	orr	r2, r1, r2
   11af4:	e5d3100e 	ldrb	r1, [r3, #14]
   11af8:	e1a01801 	lsl	r1, r1, #16
   11afc:	e1812002 	orr	r2, r1, r2
   11b00:	e5d3300f 	ldrb	r3, [r3, #15]
   11b04:	e1a03c03 	lsl	r3, r3, #24
   11b08:	e1833002 	orr	r3, r3, r2
   11b0c:	e2433004 	sub	r3, r3, #4
   11b10:	e5d32000 	ldrb	r2, [r3]
   11b14:	e5d31001 	ldrb	r1, [r3, #1]
   11b18:	e1a01401 	lsl	r1, r1, #8
   11b1c:	e1812002 	orr	r2, r1, r2
   11b20:	e1a02802 	lsl	r2, r2, #16
   11b24:	e1a02822 	lsr	r2, r2, #16
   11b28:	e2822001 	add	r2, r2, #1
   11b2c:	e1a02802 	lsl	r2, r2, #16
   11b30:	e1a02822 	lsr	r2, r2, #16
   11b34:	e20210ff 	and	r1, r2, #255	; 0xff
   11b38:	e3a00000 	mov	r0, #0
   11b3c:	e1801001 	orr	r1, r0, r1
   11b40:	e5c31000 	strb	r1, [r3]
   11b44:	e1a02422 	lsr	r2, r2, #8
   11b48:	e1a02802 	lsl	r2, r2, #16
   11b4c:	e1a02822 	lsr	r2, r2, #16
   11b50:	e3a01000 	mov	r1, #0
   11b54:	e1812002 	orr	r2, r1, r2
   11b58:	e5c32001 	strb	r2, [r3, #1]
   11b5c:	ea00002e 	b	11c1c <HidEnumerateActionAddField+0xa84>
   11b60:	e51b3014 	ldr	r3, [fp, #-20]	; 0xffffffec
   11b64:	e5d33001 	ldrb	r3, [r3, #1]
   11b68:	e1a02003 	mov	r2, r3
   11b6c:	e1a03002 	mov	r3, r2
   11b70:	e1a03103 	lsl	r3, r3, #2
   11b74:	e0833002 	add	r3, r3, r2
   11b78:	e1a03083 	lsl	r3, r3, #1
   11b7c:	e0833002 	add	r3, r3, r2
   11b80:	e1a03103 	lsl	r3, r3, #2
   11b84:	e2833010 	add	r3, r3, #16
   11b88:	e51b2014 	ldr	r2, [fp, #-20]	; 0xffffffec
   11b8c:	e0823003 	add	r3, r2, r3
   11b90:	e2830004 	add	r0, r3, #4
   11b94:	e51b301c 	ldr	r3, [fp, #-28]	; 0xffffffe4
   11b98:	e5d3200c 	ldrb	r2, [r3, #12]
   11b9c:	e5d3100d 	ldrb	r1, [r3, #13]
   11ba0:	e1a01401 	lsl	r1, r1, #8
   11ba4:	e1812002 	orr	r2, r1, r2
   11ba8:	e5d3100e 	ldrb	r1, [r3, #14]
   11bac:	e1a01801 	lsl	r1, r1, #16
   11bb0:	e1812002 	orr	r2, r1, r2
   11bb4:	e5d3300f 	ldrb	r3, [r3, #15]
   11bb8:	e1a03c03 	lsl	r3, r3, #24
   11bbc:	e1833002 	orr	r3, r3, r2
   11bc0:	e1a01003 	mov	r1, r3
   11bc4:	e2412004 	sub	r2, r1, #4
   11bc8:	e51b301c 	ldr	r3, [fp, #-28]	; 0xffffffe4
   11bcc:	e202c0ff 	and	ip, r2, #255	; 0xff
   11bd0:	e3a0e000 	mov	lr, #0
   11bd4:	e18ec00c 	orr	ip, lr, ip
   11bd8:	e5c3c00c 	strb	ip, [r3, #12]
   11bdc:	e1a0c422 	lsr	ip, r2, #8
   11be0:	e20cc0ff 	and	ip, ip, #255	; 0xff
   11be4:	e3a0e000 	mov	lr, #0
   11be8:	e18ec00c 	orr	ip, lr, ip
   11bec:	e5c3c00d 	strb	ip, [r3, #13]
   11bf0:	e1a0c822 	lsr	ip, r2, #16
   11bf4:	e20cc0ff 	and	ip, ip, #255	; 0xff
   11bf8:	e3a0e000 	mov	lr, #0
   11bfc:	e18ec00c 	orr	ip, lr, ip
   11c00:	e5c3c00e 	strb	ip, [r3, #14]
   11c04:	e1a02c22 	lsr	r2, r2, #24
   11c08:	e3a0c000 	mov	ip, #0
   11c0c:	e18c2002 	orr	r2, ip, r2
   11c10:	e5c3200f 	strb	r2, [r3, #15]
   11c14:	e5913000 	ldr	r3, [r1]
   11c18:	e5803000 	str	r3, [r0]
   11c1c:	e51b3014 	ldr	r3, [fp, #-20]	; 0xffffffec
   11c20:	e5d33001 	ldrb	r3, [r3, #1]
   11c24:	e1a02003 	mov	r2, r3
   11c28:	e51b1014 	ldr	r1, [fp, #-20]	; 0xffffffec
   11c2c:	e1a03002 	mov	r3, r2
   11c30:	e1a03103 	lsl	r3, r3, #2
   11c34:	e0833002 	add	r3, r3, r2
   11c38:	e1a03083 	lsl	r3, r3, #1
   11c3c:	e0833002 	add	r3, r3, r2
   11c40:	e1a03103 	lsl	r3, r3, #2
   11c44:	e0813003 	add	r3, r1, r3
   11c48:	e2833008 	add	r3, r3, #8
   11c4c:	e5d33008 	ldrb	r3, [r3, #8]
   11c50:	e1a030a3 	lsr	r3, r3, #1
   11c54:	e2033001 	and	r3, r3, #1
   11c58:	e20330ff 	and	r3, r3, #255	; 0xff
   11c5c:	e3530000 	cmp	r3, #0
   11c60:	0a000040 	beq	11d68 <HidEnumerateActionAddField+0xbd0>
   11c64:	e51b301c 	ldr	r3, [fp, #-28]	; 0xffffffe4
   11c68:	e5d32004 	ldrb	r2, [r3, #4]
   11c6c:	e5d31005 	ldrb	r1, [r3, #5]
   11c70:	e1a01401 	lsl	r1, r1, #8
   11c74:	e1812002 	orr	r2, r1, r2
   11c78:	e5d31006 	ldrb	r1, [r3, #6]
   11c7c:	e1a01801 	lsl	r1, r1, #16
   11c80:	e1812002 	orr	r2, r1, r2
   11c84:	e5d33007 	ldrb	r3, [r3, #7]
   11c88:	e1a03c03 	lsl	r3, r3, #24
   11c8c:	e1833002 	orr	r3, r3, r2
   11c90:	e2432001 	sub	r2, r3, #1
   11c94:	e51b301c 	ldr	r3, [fp, #-28]	; 0xffffffe4
   11c98:	e20210ff 	and	r1, r2, #255	; 0xff
   11c9c:	e3a00000 	mov	r0, #0
   11ca0:	e1801001 	orr	r1, r0, r1
   11ca4:	e5c31004 	strb	r1, [r3, #4]
   11ca8:	e1a01422 	lsr	r1, r2, #8
   11cac:	e20110ff 	and	r1, r1, #255	; 0xff
   11cb0:	e3a00000 	mov	r0, #0
   11cb4:	e1801001 	orr	r1, r0, r1
   11cb8:	e5c31005 	strb	r1, [r3, #5]
   11cbc:	e1a01822 	lsr	r1, r2, #16
   11cc0:	e20110ff 	and	r1, r1, #255	; 0xff
   11cc4:	e3a00000 	mov	r0, #0
   11cc8:	e1801001 	orr	r1, r0, r1
   11ccc:	e5c31006 	strb	r1, [r3, #6]
   11cd0:	e1a02c22 	lsr	r2, r2, #24
   11cd4:	e3a01000 	mov	r1, #0
   11cd8:	e1812002 	orr	r2, r1, r2
   11cdc:	e5c32007 	strb	r2, [r3, #7]
   11ce0:	e51b3014 	ldr	r3, [fp, #-20]	; 0xffffffec
   11ce4:	e5d31004 	ldrb	r1, [r3, #4]
   11ce8:	e51b3014 	ldr	r3, [fp, #-20]	; 0xffffffec
   11cec:	e5d33001 	ldrb	r3, [r3, #1]
   11cf0:	e1a02003 	mov	r2, r3
   11cf4:	e51b0014 	ldr	r0, [fp, #-20]	; 0xffffffec
   11cf8:	e1a03002 	mov	r3, r2
   11cfc:	e1a03103 	lsl	r3, r3, #2
   11d00:	e0833002 	add	r3, r3, r2
   11d04:	e1a03083 	lsl	r3, r3, #1
   11d08:	e0833002 	add	r3, r3, r2
   11d0c:	e1a03103 	lsl	r3, r3, #2
   11d10:	e0803003 	add	r3, r0, r3
   11d14:	e283300c 	add	r3, r3, #12
   11d18:	e5d33000 	ldrb	r3, [r3]
   11d1c:	e0813003 	add	r3, r1, r3
   11d20:	e20320ff 	and	r2, r3, #255	; 0xff
   11d24:	e51b3014 	ldr	r3, [fp, #-20]	; 0xffffffec
   11d28:	e5c32004 	strb	r2, [r3, #4]
   11d2c:	e51b3014 	ldr	r3, [fp, #-20]	; 0xffffffec
   11d30:	e5d33001 	ldrb	r3, [r3, #1]
   11d34:	e1a02003 	mov	r2, r3
   11d38:	e51b1014 	ldr	r1, [fp, #-20]	; 0xffffffec
   11d3c:	e1a03002 	mov	r3, r2
   11d40:	e1a03103 	lsl	r3, r3, #2
   11d44:	e0833002 	add	r3, r3, r2
   11d48:	e1a03083 	lsl	r3, r3, #1
   11d4c:	e0833002 	add	r3, r3, r2
   11d50:	e1a03103 	lsl	r3, r3, #2
   11d54:	e0813003 	add	r3, r1, r3
   11d58:	e2833034 	add	r3, r3, #52	; 0x34
   11d5c:	e3a02000 	mov	r2, #0
   11d60:	e5832000 	str	r2, [r3]
   11d64:	ea00005b 	b	11ed8 <HidEnumerateActionAddField+0xd40>
   11d68:	e51b301c 	ldr	r3, [fp, #-28]	; 0xffffffe4
   11d6c:	e3a02000 	mov	r2, #0
   11d70:	e5c32004 	strb	r2, [r3, #4]
   11d74:	e3a02000 	mov	r2, #0
   11d78:	e5c32005 	strb	r2, [r3, #5]
   11d7c:	e3a02000 	mov	r2, #0
   11d80:	e5c32006 	strb	r2, [r3, #6]
   11d84:	e3a02000 	mov	r2, #0
   11d88:	e5c32007 	strb	r2, [r3, #7]
   11d8c:	e51b3014 	ldr	r3, [fp, #-20]	; 0xffffffec
   11d90:	e5d31004 	ldrb	r1, [r3, #4]
   11d94:	e51b3014 	ldr	r3, [fp, #-20]	; 0xffffffec
   11d98:	e5d33001 	ldrb	r3, [r3, #1]
   11d9c:	e1a02003 	mov	r2, r3
   11da0:	e51b0014 	ldr	r0, [fp, #-20]	; 0xffffffec
   11da4:	e1a03002 	mov	r3, r2
   11da8:	e1a03103 	lsl	r3, r3, #2
   11dac:	e0833002 	add	r3, r3, r2
   11db0:	e1a03083 	lsl	r3, r3, #1
   11db4:	e0833002 	add	r3, r3, r2
   11db8:	e1a03103 	lsl	r3, r3, #2
   11dbc:	e0803003 	add	r3, r0, r3
   11dc0:	e283300c 	add	r3, r3, #12
   11dc4:	e5d30000 	ldrb	r0, [r3]
   11dc8:	e51b3014 	ldr	r3, [fp, #-20]	; 0xffffffec
   11dcc:	e5d33001 	ldrb	r3, [r3, #1]
   11dd0:	e1a02003 	mov	r2, r3
   11dd4:	e51bc014 	ldr	ip, [fp, #-20]	; 0xffffffec
   11dd8:	e1a03002 	mov	r3, r2
   11ddc:	e1a03103 	lsl	r3, r3, #2
   11de0:	e0833002 	add	r3, r3, r2
   11de4:	e1a03083 	lsl	r3, r3, #1
   11de8:	e0833002 	add	r3, r3, r2
   11dec:	e1a03103 	lsl	r3, r3, #2
   11df0:	e08c3003 	add	r3, ip, r3
   11df4:	e283300e 	add	r3, r3, #14
   11df8:	e5d33000 	ldrb	r3, [r3]
   11dfc:	e0030390 	mul	r3, r0, r3
   11e00:	e20330ff 	and	r3, r3, #255	; 0xff
   11e04:	e0813003 	add	r3, r1, r3
   11e08:	e20320ff 	and	r2, r3, #255	; 0xff
   11e0c:	e51b3014 	ldr	r3, [fp, #-20]	; 0xffffffec
   11e10:	e5c32004 	strb	r2, [r3, #4]
   11e14:	e51b3014 	ldr	r3, [fp, #-20]	; 0xffffffec
   11e18:	e5d33001 	ldrb	r3, [r3, #1]
   11e1c:	e1a04003 	mov	r4, r3
   11e20:	e51b3014 	ldr	r3, [fp, #-20]	; 0xffffffec
   11e24:	e5d33001 	ldrb	r3, [r3, #1]
   11e28:	e1a02003 	mov	r2, r3
   11e2c:	e51b1014 	ldr	r1, [fp, #-20]	; 0xffffffec
   11e30:	e1a03002 	mov	r3, r2
   11e34:	e1a03103 	lsl	r3, r3, #2
   11e38:	e0833002 	add	r3, r3, r2
   11e3c:	e1a03083 	lsl	r3, r3, #1
   11e40:	e0833002 	add	r3, r3, r2
   11e44:	e1a03103 	lsl	r3, r3, #2
   11e48:	e0813003 	add	r3, r1, r3
   11e4c:	e283300c 	add	r3, r3, #12
   11e50:	e5d33000 	ldrb	r3, [r3]
   11e54:	e1a00003 	mov	r0, r3
   11e58:	e51b3014 	ldr	r3, [fp, #-20]	; 0xffffffec
   11e5c:	e5d33001 	ldrb	r3, [r3, #1]
   11e60:	e1a02003 	mov	r2, r3
   11e64:	e51b1014 	ldr	r1, [fp, #-20]	; 0xffffffec
   11e68:	e1a03002 	mov	r3, r2
   11e6c:	e1a03103 	lsl	r3, r3, #2
   11e70:	e0833002 	add	r3, r3, r2
   11e74:	e1a03083 	lsl	r3, r3, #1
   11e78:	e0833002 	add	r3, r3, r2
   11e7c:	e1a03103 	lsl	r3, r3, #2
   11e80:	e0813003 	add	r3, r1, r3
   11e84:	e283300e 	add	r3, r3, #14
   11e88:	e5d33000 	ldrb	r3, [r3]
   11e8c:	e0030390 	mul	r3, r0, r3
   11e90:	e2832007 	add	r2, r3, #7
   11e94:	e3530000 	cmp	r3, #0
   11e98:	b1a03002 	movlt	r3, r2
   11e9c:	a1a03003 	movge	r3, r3
   11ea0:	e1a031c3 	asr	r3, r3, #3
   11ea4:	e1a00003 	mov	r0, r3
   11ea8:	ebffe455 	bl	b004 <MemoryAllocate>
   11eac:	e1a01000 	mov	r1, r0
   11eb0:	e51b2014 	ldr	r2, [fp, #-20]	; 0xffffffec
   11eb4:	e1a03004 	mov	r3, r4
   11eb8:	e1a03103 	lsl	r3, r3, #2
   11ebc:	e0833004 	add	r3, r3, r4
   11ec0:	e1a03083 	lsl	r3, r3, #1
   11ec4:	e0833004 	add	r3, r3, r4
   11ec8:	e1a03103 	lsl	r3, r3, #2
   11ecc:	e0823003 	add	r3, r2, r3
   11ed0:	e2833034 	add	r3, r3, #52	; 0x34
   11ed4:	e5831000 	str	r1, [r3]
   11ed8:	e51b3014 	ldr	r3, [fp, #-20]	; 0xffffffec
   11edc:	e5d33001 	ldrb	r3, [r3, #1]
   11ee0:	e2833001 	add	r3, r3, #1
   11ee4:	e20320ff 	and	r2, r3, #255	; 0xff
   11ee8:	e51b3014 	ldr	r3, [fp, #-20]	; 0xffffffec
   11eec:	e5c32001 	strb	r2, [r3, #1]
   11ef0:	e51b301c 	ldr	r3, [fp, #-28]	; 0xffffffe4
   11ef4:	e5d32004 	ldrb	r2, [r3, #4]
   11ef8:	e5d31005 	ldrb	r1, [r3, #5]
   11efc:	e1a01401 	lsl	r1, r1, #8
   11f00:	e1812002 	orr	r2, r1, r2
   11f04:	e5d31006 	ldrb	r1, [r3, #6]
   11f08:	e1a01801 	lsl	r1, r1, #16
   11f0c:	e1812002 	orr	r2, r1, r2
   11f10:	e5d33007 	ldrb	r3, [r3, #7]
   11f14:	e1a03c03 	lsl	r3, r3, #24
   11f18:	e1833002 	orr	r3, r3, r2
   11f1c:	e3530000 	cmp	r3, #0
   11f20:	1afffd36 	bne	11400 <HidEnumerateActionAddField+0x268>
   11f24:	e51b301c 	ldr	r3, [fp, #-28]	; 0xffffffe4
   11f28:	e5d3200c 	ldrb	r2, [r3, #12]
   11f2c:	e5d3100d 	ldrb	r1, [r3, #13]
   11f30:	e1a01401 	lsl	r1, r1, #8
   11f34:	e1812002 	orr	r2, r1, r2
   11f38:	e5d3100e 	ldrb	r1, [r3, #14]
   11f3c:	e1a01801 	lsl	r1, r1, #16
   11f40:	e1812002 	orr	r2, r1, r2
   11f44:	e5d3300f 	ldrb	r3, [r3, #15]
   11f48:	e1a03c03 	lsl	r3, r3, #24
   11f4c:	e1833002 	orr	r3, r3, r2
   11f50:	e2833004 	add	r3, r3, #4
   11f54:	e3a02000 	mov	r2, #0
   11f58:	e5832000 	str	r2, [r3]
   11f5c:	ea000237 	b	12840 <HidEnumerateActionAddField+0x16a8>
   11f60:	e51b301c 	ldr	r3, [fp, #-28]	; 0xffffffe4
   11f64:	e5d3200c 	ldrb	r2, [r3, #12]
   11f68:	e5d3100d 	ldrb	r1, [r3, #13]
   11f6c:	e1a01401 	lsl	r1, r1, #8
   11f70:	e1812002 	orr	r2, r1, r2
   11f74:	e5d3100e 	ldrb	r1, [r3, #14]
   11f78:	e1a01801 	lsl	r1, r1, #16
   11f7c:	e1812002 	orr	r2, r1, r2
   11f80:	e5d3300f 	ldrb	r3, [r3, #15]
   11f84:	e1a03c03 	lsl	r3, r3, #24
   11f88:	e1833002 	orr	r3, r3, r2
   11f8c:	e5933000 	ldr	r3, [r3]
   11f90:	e3730001 	cmn	r3, #1
   11f94:	1a00001e 	bne	12014 <HidEnumerateActionAddField+0xe7c>
   11f98:	e51b301c 	ldr	r3, [fp, #-28]	; 0xffffffe4
   11f9c:	e5d3200c 	ldrb	r2, [r3, #12]
   11fa0:	e5d3100d 	ldrb	r1, [r3, #13]
   11fa4:	e1a01401 	lsl	r1, r1, #8
   11fa8:	e1812002 	orr	r2, r1, r2
   11fac:	e5d3100e 	ldrb	r1, [r3, #14]
   11fb0:	e1a01801 	lsl	r1, r1, #16
   11fb4:	e1812002 	orr	r2, r1, r2
   11fb8:	e5d3300f 	ldrb	r3, [r3, #15]
   11fbc:	e1a03c03 	lsl	r3, r3, #24
   11fc0:	e1833002 	orr	r3, r3, r2
   11fc4:	e2832004 	add	r2, r3, #4
   11fc8:	e51b301c 	ldr	r3, [fp, #-28]	; 0xffffffe4
   11fcc:	e20210ff 	and	r1, r2, #255	; 0xff
   11fd0:	e3a00000 	mov	r0, #0
   11fd4:	e1801001 	orr	r1, r0, r1
   11fd8:	e5c3100c 	strb	r1, [r3, #12]
   11fdc:	e1a01422 	lsr	r1, r2, #8
   11fe0:	e20110ff 	and	r1, r1, #255	; 0xff
   11fe4:	e3a00000 	mov	r0, #0
   11fe8:	e1801001 	orr	r1, r0, r1
   11fec:	e5c3100d 	strb	r1, [r3, #13]
   11ff0:	e1a01822 	lsr	r1, r2, #16
   11ff4:	e20110ff 	and	r1, r1, #255	; 0xff
   11ff8:	e3a00000 	mov	r0, #0
   11ffc:	e1801001 	orr	r1, r0, r1
   12000:	e5c3100e 	strb	r1, [r3, #14]
   12004:	e1a02c22 	lsr	r2, r2, #24
   12008:	e3a01000 	mov	r1, #0
   1200c:	e1812002 	orr	r2, r1, r2
   12010:	e5c3200f 	strb	r2, [r3, #15]
   12014:	e51b3028 	ldr	r3, [fp, #-40]	; 0xffffffd8
   12018:	e20330ff 	and	r3, r3, #255	; 0xff
   1201c:	e3530000 	cmp	r3, #0
   12020:	0a00001c 	beq	12098 <HidEnumerateActionAddField+0xf00>
   12024:	e3530001 	cmp	r3, #1
   12028:	0a000000 	beq	12030 <HidEnumerateActionAddField+0xe98>
   1202c:	ea000029 	b	120d8 <HidEnumerateActionAddField+0xf40>
   12030:	e51b301c 	ldr	r3, [fp, #-28]	; 0xffffffe4
   12034:	e5d32000 	ldrb	r2, [r3]
   12038:	e5d31001 	ldrb	r1, [r3, #1]
   1203c:	e1a01401 	lsl	r1, r1, #8
   12040:	e1812002 	orr	r2, r1, r2
   12044:	e5d31002 	ldrb	r1, [r3, #2]
   12048:	e1a01801 	lsl	r1, r1, #16
   1204c:	e1812002 	orr	r2, r1, r2
   12050:	e5d33003 	ldrb	r3, [r3, #3]
   12054:	e1a03c03 	lsl	r3, r3, #24
   12058:	e1833002 	orr	r3, r3, r2
   1205c:	e1a00003 	mov	r0, r3
   12060:	e51b301c 	ldr	r3, [fp, #-28]	; 0xffffffe4
   12064:	e5d3200c 	ldrb	r2, [r3, #12]
   12068:	e5d3100d 	ldrb	r1, [r3, #13]
   1206c:	e1a01401 	lsl	r1, r1, #8
   12070:	e1812002 	orr	r2, r1, r2
   12074:	e5d3100e 	ldrb	r1, [r3, #14]
   12078:	e1a01801 	lsl	r1, r1, #16
   1207c:	e1812002 	orr	r2, r1, r2
   12080:	e5d3300f 	ldrb	r3, [r3, #15]
   12084:	e1a03c03 	lsl	r3, r3, #24
   12088:	e1833002 	orr	r3, r3, r2
   1208c:	e5933000 	ldr	r3, [r3]
   12090:	e5803000 	str	r3, [r0]
   12094:	ea00000f 	b	120d8 <HidEnumerateActionAddField+0xf40>
   12098:	e51b301c 	ldr	r3, [fp, #-28]	; 0xffffffe4
   1209c:	e2832010 	add	r2, r3, #16
   120a0:	e51b301c 	ldr	r3, [fp, #-28]	; 0xffffffe4
   120a4:	e5d3100c 	ldrb	r1, [r3, #12]
   120a8:	e5d3000d 	ldrb	r0, [r3, #13]
   120ac:	e1a00400 	lsl	r0, r0, #8
   120b0:	e1801001 	orr	r1, r0, r1
   120b4:	e5d3000e 	ldrb	r0, [r3, #14]
   120b8:	e1a00800 	lsl	r0, r0, #16
   120bc:	e1801001 	orr	r1, r0, r1
   120c0:	e5d3300f 	ldrb	r3, [r3, #15]
   120c4:	e1a03c03 	lsl	r3, r3, #24
   120c8:	e1833001 	orr	r3, r3, r1
   120cc:	e5933000 	ldr	r3, [r3]
   120d0:	e5823000 	str	r3, [r2]
   120d4:	e1a00000 	nop			; (mov r0, r0)
   120d8:	e51b301c 	ldr	r3, [fp, #-28]	; 0xffffffe4
   120dc:	e5d3200c 	ldrb	r2, [r3, #12]
   120e0:	e5d3100d 	ldrb	r1, [r3, #13]
   120e4:	e1a01401 	lsl	r1, r1, #8
   120e8:	e1812002 	orr	r2, r1, r2
   120ec:	e5d3100e 	ldrb	r1, [r3, #14]
   120f0:	e1a01801 	lsl	r1, r1, #16
   120f4:	e1812002 	orr	r2, r1, r2
   120f8:	e5d3300f 	ldrb	r3, [r3, #15]
   120fc:	e1a03c03 	lsl	r3, r3, #24
   12100:	e1833002 	orr	r3, r3, r2
   12104:	e2432004 	sub	r2, r3, #4
   12108:	e51b301c 	ldr	r3, [fp, #-28]	; 0xffffffe4
   1210c:	e20210ff 	and	r1, r2, #255	; 0xff
   12110:	e3a00000 	mov	r0, #0
   12114:	e1801001 	orr	r1, r0, r1
   12118:	e5c3100c 	strb	r1, [r3, #12]
   1211c:	e1a01422 	lsr	r1, r2, #8
   12120:	e20110ff 	and	r1, r1, #255	; 0xff
   12124:	e3a00000 	mov	r0, #0
   12128:	e1801001 	orr	r1, r0, r1
   1212c:	e5c3100d 	strb	r1, [r3, #13]
   12130:	e1a01822 	lsr	r1, r2, #16
   12134:	e20110ff 	and	r1, r1, #255	; 0xff
   12138:	e3a00000 	mov	r0, #0
   1213c:	e1801001 	orr	r1, r0, r1
   12140:	e5c3100e 	strb	r1, [r3, #14]
   12144:	e1a02c22 	lsr	r2, r2, #24
   12148:	e3a01000 	mov	r1, #0
   1214c:	e1812002 	orr	r2, r1, r2
   12150:	e5c3200f 	strb	r2, [r3, #15]
   12154:	ea0001b9 	b	12840 <HidEnumerateActionAddField+0x16a8>
   12158:	e51b3028 	ldr	r3, [fp, #-40]	; 0xffffffd8
   1215c:	e20330ff 	and	r3, r3, #255	; 0xff
   12160:	e3530000 	cmp	r3, #0
   12164:	0a000000 	beq	1216c <HidEnumerateActionAddField+0xfd4>
   12168:	ea000004 	b	12180 <HidEnumerateActionAddField+0xfe8>
   1216c:	e51b301c 	ldr	r3, [fp, #-28]	; 0xffffffe4
   12170:	e2833010 	add	r3, r3, #16
   12174:	e3a02000 	mov	r2, #0
   12178:	e5832000 	str	r2, [r3]
   1217c:	e1a00000 	nop			; (mov r0, r0)
   12180:	ea0001ae 	b	12840 <HidEnumerateActionAddField+0x16a8>
   12184:	e51b3028 	ldr	r3, [fp, #-40]	; 0xffffffd8
   12188:	e1a03803 	lsl	r3, r3, #16
   1218c:	e1a02823 	lsr	r2, r3, #16
   12190:	e51b301c 	ldr	r3, [fp, #-28]	; 0xffffffe4
   12194:	e20210ff 	and	r1, r2, #255	; 0xff
   12198:	e3a00000 	mov	r0, #0
   1219c:	e1801001 	orr	r1, r0, r1
   121a0:	e5c3102c 	strb	r1, [r3, #44]	; 0x2c
   121a4:	e1a02422 	lsr	r2, r2, #8
   121a8:	e1a02802 	lsl	r2, r2, #16
   121ac:	e1a02822 	lsr	r2, r2, #16
   121b0:	e3a01000 	mov	r1, #0
   121b4:	e1812002 	orr	r2, r1, r2
   121b8:	e5c3202d 	strb	r2, [r3, #45]	; 0x2d
   121bc:	ea00019f 	b	12840 <HidEnumerateActionAddField+0x16a8>
   121c0:	e51b2028 	ldr	r2, [fp, #-40]	; 0xffffffd8
   121c4:	e51b301c 	ldr	r3, [fp, #-28]	; 0xffffffe4
   121c8:	e20210ff 	and	r1, r2, #255	; 0xff
   121cc:	e3a00000 	mov	r0, #0
   121d0:	e1801001 	orr	r1, r0, r1
   121d4:	e5c31014 	strb	r1, [r3, #20]
   121d8:	e1a01422 	lsr	r1, r2, #8
   121dc:	e20110ff 	and	r1, r1, #255	; 0xff
   121e0:	e3a00000 	mov	r0, #0
   121e4:	e1801001 	orr	r1, r0, r1
   121e8:	e5c31015 	strb	r1, [r3, #21]
   121ec:	e1a01822 	lsr	r1, r2, #16
   121f0:	e20110ff 	and	r1, r1, #255	; 0xff
   121f4:	e3a00000 	mov	r0, #0
   121f8:	e1801001 	orr	r1, r0, r1
   121fc:	e5c31016 	strb	r1, [r3, #22]
   12200:	e1a02c22 	lsr	r2, r2, #24
   12204:	e3a01000 	mov	r1, #0
   12208:	e1812002 	orr	r2, r1, r2
   1220c:	e5c32017 	strb	r2, [r3, #23]
   12210:	ea00018a 	b	12840 <HidEnumerateActionAddField+0x16a8>
   12214:	e51b2028 	ldr	r2, [fp, #-40]	; 0xffffffd8
   12218:	e51b301c 	ldr	r3, [fp, #-28]	; 0xffffffe4
   1221c:	e20210ff 	and	r1, r2, #255	; 0xff
   12220:	e3a00000 	mov	r0, #0
   12224:	e1801001 	orr	r1, r0, r1
   12228:	e5c31018 	strb	r1, [r3, #24]
   1222c:	e1a01422 	lsr	r1, r2, #8
   12230:	e20110ff 	and	r1, r1, #255	; 0xff
   12234:	e3a00000 	mov	r0, #0
   12238:	e1801001 	orr	r1, r0, r1
   1223c:	e5c31019 	strb	r1, [r3, #25]
   12240:	e1a01822 	lsr	r1, r2, #16
   12244:	e20110ff 	and	r1, r1, #255	; 0xff
   12248:	e3a00000 	mov	r0, #0
   1224c:	e1801001 	orr	r1, r0, r1
   12250:	e5c3101a 	strb	r1, [r3, #26]
   12254:	e1a02c22 	lsr	r2, r2, #24
   12258:	e3a01000 	mov	r1, #0
   1225c:	e1812002 	orr	r2, r1, r2
   12260:	e5c3201b 	strb	r2, [r3, #27]
   12264:	ea000175 	b	12840 <HidEnumerateActionAddField+0x16a8>
   12268:	e51b2028 	ldr	r2, [fp, #-40]	; 0xffffffd8
   1226c:	e51b301c 	ldr	r3, [fp, #-28]	; 0xffffffe4
   12270:	e20210ff 	and	r1, r2, #255	; 0xff
   12274:	e3a00000 	mov	r0, #0
   12278:	e1801001 	orr	r1, r0, r1
   1227c:	e5c3101c 	strb	r1, [r3, #28]
   12280:	e1a01422 	lsr	r1, r2, #8
   12284:	e20110ff 	and	r1, r1, #255	; 0xff
   12288:	e3a00000 	mov	r0, #0
   1228c:	e1801001 	orr	r1, r0, r1
   12290:	e5c3101d 	strb	r1, [r3, #29]
   12294:	e1a01822 	lsr	r1, r2, #16
   12298:	e20110ff 	and	r1, r1, #255	; 0xff
   1229c:	e3a00000 	mov	r0, #0
   122a0:	e1801001 	orr	r1, r0, r1
   122a4:	e5c3101e 	strb	r1, [r3, #30]
   122a8:	e1a02c22 	lsr	r2, r2, #24
   122ac:	e3a01000 	mov	r1, #0
   122b0:	e1812002 	orr	r2, r1, r2
   122b4:	e5c3201f 	strb	r2, [r3, #31]
   122b8:	ea000160 	b	12840 <HidEnumerateActionAddField+0x16a8>
   122bc:	e51b2028 	ldr	r2, [fp, #-40]	; 0xffffffd8
   122c0:	e51b301c 	ldr	r3, [fp, #-28]	; 0xffffffe4
   122c4:	e20210ff 	and	r1, r2, #255	; 0xff
   122c8:	e3a00000 	mov	r0, #0
   122cc:	e1801001 	orr	r1, r0, r1
   122d0:	e5c31020 	strb	r1, [r3, #32]
   122d4:	e1a01422 	lsr	r1, r2, #8
   122d8:	e20110ff 	and	r1, r1, #255	; 0xff
   122dc:	e3a00000 	mov	r0, #0
   122e0:	e1801001 	orr	r1, r0, r1
   122e4:	e5c31021 	strb	r1, [r3, #33]	; 0x21
   122e8:	e1a01822 	lsr	r1, r2, #16
   122ec:	e20110ff 	and	r1, r1, #255	; 0xff
   122f0:	e3a00000 	mov	r0, #0
   122f4:	e1801001 	orr	r1, r0, r1
   122f8:	e5c31022 	strb	r1, [r3, #34]	; 0x22
   122fc:	e1a02c22 	lsr	r2, r2, #24
   12300:	e3a01000 	mov	r1, #0
   12304:	e1812002 	orr	r2, r1, r2
   12308:	e5c32023 	strb	r2, [r3, #35]	; 0x23
   1230c:	ea00014b 	b	12840 <HidEnumerateActionAddField+0x16a8>
   12310:	e51b2028 	ldr	r2, [fp, #-40]	; 0xffffffd8
   12314:	e51b301c 	ldr	r3, [fp, #-28]	; 0xffffffe4
   12318:	e20210ff 	and	r1, r2, #255	; 0xff
   1231c:	e3a00000 	mov	r0, #0
   12320:	e1801001 	orr	r1, r0, r1
   12324:	e5c31028 	strb	r1, [r3, #40]	; 0x28
   12328:	e1a01422 	lsr	r1, r2, #8
   1232c:	e20110ff 	and	r1, r1, #255	; 0xff
   12330:	e3a00000 	mov	r0, #0
   12334:	e1801001 	orr	r1, r0, r1
   12338:	e5c31029 	strb	r1, [r3, #41]	; 0x29
   1233c:	e1a01822 	lsr	r1, r2, #16
   12340:	e20110ff 	and	r1, r1, #255	; 0xff
   12344:	e3a00000 	mov	r0, #0
   12348:	e1801001 	orr	r1, r0, r1
   1234c:	e5c3102a 	strb	r1, [r3, #42]	; 0x2a
   12350:	e1a02c22 	lsr	r2, r2, #24
   12354:	e3a01000 	mov	r1, #0
   12358:	e1812002 	orr	r2, r1, r2
   1235c:	e5c3202b 	strb	r2, [r3, #43]	; 0x2b
   12360:	ea000136 	b	12840 <HidEnumerateActionAddField+0x16a8>
   12364:	e51b301c 	ldr	r3, [fp, #-28]	; 0xffffffe4
   12368:	e2833024 	add	r3, r3, #36	; 0x24
   1236c:	e51b2028 	ldr	r2, [fp, #-40]	; 0xffffffd8
   12370:	e5832000 	str	r2, [r3]
   12374:	ea000131 	b	12840 <HidEnumerateActionAddField+0x16a8>
   12378:	e51b301c 	ldr	r3, [fp, #-28]	; 0xffffffe4
   1237c:	e55b2028 	ldrb	r2, [fp, #-40]	; 0xffffffd8
   12380:	e3a01000 	mov	r1, #0
   12384:	e1812002 	orr	r2, r1, r2
   12388:	e5c32008 	strb	r2, [r3, #8]
   1238c:	e55b2027 	ldrb	r2, [fp, #-39]	; 0xffffffd9
   12390:	e3a01000 	mov	r1, #0
   12394:	e1812002 	orr	r2, r1, r2
   12398:	e5c32009 	strb	r2, [r3, #9]
   1239c:	e55b2026 	ldrb	r2, [fp, #-38]	; 0xffffffda
   123a0:	e3a01000 	mov	r1, #0
   123a4:	e1812002 	orr	r2, r1, r2
   123a8:	e5c3200a 	strb	r2, [r3, #10]
   123ac:	e55b2025 	ldrb	r2, [fp, #-37]	; 0xffffffdb
   123b0:	e3a01000 	mov	r1, #0
   123b4:	e1812002 	orr	r2, r1, r2
   123b8:	e5c3200b 	strb	r2, [r3, #11]
   123bc:	ea00011f 	b	12840 <HidEnumerateActionAddField+0x16a8>
   123c0:	e51b3028 	ldr	r3, [fp, #-40]	; 0xffffffd8
   123c4:	e20320ff 	and	r2, r3, #255	; 0xff
   123c8:	e51b301c 	ldr	r3, [fp, #-28]	; 0xffffffe4
   123cc:	e5c3202e 	strb	r2, [r3, #46]	; 0x2e
   123d0:	ea00011a 	b	12840 <HidEnumerateActionAddField+0x16a8>
   123d4:	e51b301c 	ldr	r3, [fp, #-28]	; 0xffffffe4
   123d8:	e55b2028 	ldrb	r2, [fp, #-40]	; 0xffffffd8
   123dc:	e3a01000 	mov	r1, #0
   123e0:	e1812002 	orr	r2, r1, r2
   123e4:	e5c32004 	strb	r2, [r3, #4]
   123e8:	e55b2027 	ldrb	r2, [fp, #-39]	; 0xffffffd9
   123ec:	e3a01000 	mov	r1, #0
   123f0:	e1812002 	orr	r2, r1, r2
   123f4:	e5c32005 	strb	r2, [r3, #5]
   123f8:	e55b2026 	ldrb	r2, [fp, #-38]	; 0xffffffda
   123fc:	e3a01000 	mov	r1, #0
   12400:	e1812002 	orr	r2, r1, r2
   12404:	e5c32006 	strb	r2, [r3, #6]
   12408:	e55b2025 	ldrb	r2, [fp, #-37]	; 0xffffffdb
   1240c:	e3a01000 	mov	r1, #0
   12410:	e1812002 	orr	r2, r1, r2
   12414:	e5c32007 	strb	r2, [r3, #7]
   12418:	ea000108 	b	12840 <HidEnumerateActionAddField+0x16a8>
   1241c:	e51b301c 	ldr	r3, [fp, #-28]	; 0xffffffe4
   12420:	e5d3200c 	ldrb	r2, [r3, #12]
   12424:	e5d3100d 	ldrb	r1, [r3, #13]
   12428:	e1a01401 	lsl	r1, r1, #8
   1242c:	e1812002 	orr	r2, r1, r2
   12430:	e5d3100e 	ldrb	r1, [r3, #14]
   12434:	e1a01801 	lsl	r1, r1, #16
   12438:	e1812002 	orr	r2, r1, r2
   1243c:	e5d3300f 	ldrb	r3, [r3, #15]
   12440:	e1a03c03 	lsl	r3, r3, #24
   12444:	e1833002 	orr	r3, r3, r2
   12448:	e2832004 	add	r2, r3, #4
   1244c:	e51b301c 	ldr	r3, [fp, #-28]	; 0xffffffe4
   12450:	e20210ff 	and	r1, r2, #255	; 0xff
   12454:	e3a00000 	mov	r0, #0
   12458:	e1801001 	orr	r1, r0, r1
   1245c:	e5c3100c 	strb	r1, [r3, #12]
   12460:	e1a01422 	lsr	r1, r2, #8
   12464:	e20110ff 	and	r1, r1, #255	; 0xff
   12468:	e3a00000 	mov	r0, #0
   1246c:	e1801001 	orr	r1, r0, r1
   12470:	e5c3100d 	strb	r1, [r3, #13]
   12474:	e1a01822 	lsr	r1, r2, #16
   12478:	e20110ff 	and	r1, r1, #255	; 0xff
   1247c:	e3a00000 	mov	r0, #0
   12480:	e1801001 	orr	r1, r0, r1
   12484:	e5c3100e 	strb	r1, [r3, #14]
   12488:	e1a02c22 	lsr	r2, r2, #24
   1248c:	e3a01000 	mov	r1, #0
   12490:	e1812002 	orr	r2, r1, r2
   12494:	e5c3200f 	strb	r2, [r3, #15]
   12498:	e51b3028 	ldr	r3, [fp, #-40]	; 0xffffffd8
   1249c:	e1a03823 	lsr	r3, r3, #16
   124a0:	e1a03803 	lsl	r3, r3, #16
   124a4:	e3530000 	cmp	r3, #0
   124a8:	0a000004 	beq	124c0 <HidEnumerateActionAddField+0x1328>
   124ac:	e51b301c 	ldr	r3, [fp, #-28]	; 0xffffffe4
   124b0:	e283300c 	add	r3, r3, #12
   124b4:	e51b2028 	ldr	r2, [fp, #-40]	; 0xffffffd8
   124b8:	e5832000 	str	r2, [r3]
   124bc:	ea0000df 	b	12840 <HidEnumerateActionAddField+0x16a8>
   124c0:	e51b301c 	ldr	r3, [fp, #-28]	; 0xffffffe4
   124c4:	e5d3200c 	ldrb	r2, [r3, #12]
   124c8:	e5d3100d 	ldrb	r1, [r3, #13]
   124cc:	e1a01401 	lsl	r1, r1, #8
   124d0:	e1812002 	orr	r2, r1, r2
   124d4:	e5d3100e 	ldrb	r1, [r3, #14]
   124d8:	e1a01801 	lsl	r1, r1, #16
   124dc:	e1812002 	orr	r2, r1, r2
   124e0:	e5d3300f 	ldrb	r3, [r3, #15]
   124e4:	e1a03c03 	lsl	r3, r3, #24
   124e8:	e1833002 	orr	r3, r3, r2
   124ec:	e1a02003 	mov	r2, r3
   124f0:	e51b3028 	ldr	r3, [fp, #-40]	; 0xffffffd8
   124f4:	e1a03803 	lsl	r3, r3, #16
   124f8:	e1a03823 	lsr	r3, r3, #16
   124fc:	e20310ff 	and	r1, r3, #255	; 0xff
   12500:	e3a00000 	mov	r0, #0
   12504:	e1801001 	orr	r1, r0, r1
   12508:	e5c21000 	strb	r1, [r2]
   1250c:	e1a03423 	lsr	r3, r3, #8
   12510:	e1a03803 	lsl	r3, r3, #16
   12514:	e1a03823 	lsr	r3, r3, #16
   12518:	e3a01000 	mov	r1, #0
   1251c:	e1813003 	orr	r3, r1, r3
   12520:	e5c23001 	strb	r3, [r2, #1]
   12524:	e51b301c 	ldr	r3, [fp, #-28]	; 0xffffffe4
   12528:	e5d3200c 	ldrb	r2, [r3, #12]
   1252c:	e5d3100d 	ldrb	r1, [r3, #13]
   12530:	e1a01401 	lsl	r1, r1, #8
   12534:	e1812002 	orr	r2, r1, r2
   12538:	e5d3100e 	ldrb	r1, [r3, #14]
   1253c:	e1a01801 	lsl	r1, r1, #16
   12540:	e1812002 	orr	r2, r1, r2
   12544:	e5d3300f 	ldrb	r3, [r3, #15]
   12548:	e1a03c03 	lsl	r3, r3, #24
   1254c:	e1833002 	orr	r3, r3, r2
   12550:	e1a02003 	mov	r2, r3
   12554:	e51b301c 	ldr	r3, [fp, #-28]	; 0xffffffe4
   12558:	e5d3102c 	ldrb	r1, [r3, #44]	; 0x2c
   1255c:	e5d3302d 	ldrb	r3, [r3, #45]	; 0x2d
   12560:	e1a03403 	lsl	r3, r3, #8
   12564:	e1833001 	orr	r3, r3, r1
   12568:	e1a03803 	lsl	r3, r3, #16
   1256c:	e1a03823 	lsr	r3, r3, #16
   12570:	e20310ff 	and	r1, r3, #255	; 0xff
   12574:	e3a00000 	mov	r0, #0
   12578:	e1801001 	orr	r1, r0, r1
   1257c:	e5c21002 	strb	r1, [r2, #2]
   12580:	e1a03423 	lsr	r3, r3, #8
   12584:	e1a03803 	lsl	r3, r3, #16
   12588:	e1a03823 	lsr	r3, r3, #16
   1258c:	e3a01000 	mov	r1, #0
   12590:	e1813003 	orr	r3, r1, r3
   12594:	e5c23003 	strb	r3, [r2, #3]
   12598:	ea0000a8 	b	12840 <HidEnumerateActionAddField+0x16a8>
   1259c:	e51b301c 	ldr	r3, [fp, #-28]	; 0xffffffe4
   125a0:	e5d3200c 	ldrb	r2, [r3, #12]
   125a4:	e5d3100d 	ldrb	r1, [r3, #13]
   125a8:	e1a01401 	lsl	r1, r1, #8
   125ac:	e1812002 	orr	r2, r1, r2
   125b0:	e5d3100e 	ldrb	r1, [r3, #14]
   125b4:	e1a01801 	lsl	r1, r1, #16
   125b8:	e1812002 	orr	r2, r1, r2
   125bc:	e5d3300f 	ldrb	r3, [r3, #15]
   125c0:	e1a03c03 	lsl	r3, r3, #24
   125c4:	e1833002 	orr	r3, r3, r2
   125c8:	e2832004 	add	r2, r3, #4
   125cc:	e51b301c 	ldr	r3, [fp, #-28]	; 0xffffffe4
   125d0:	e20210ff 	and	r1, r2, #255	; 0xff
   125d4:	e3a00000 	mov	r0, #0
   125d8:	e1801001 	orr	r1, r0, r1
   125dc:	e5c3100c 	strb	r1, [r3, #12]
   125e0:	e1a01422 	lsr	r1, r2, #8
   125e4:	e20110ff 	and	r1, r1, #255	; 0xff
   125e8:	e3a00000 	mov	r0, #0
   125ec:	e1801001 	orr	r1, r0, r1
   125f0:	e5c3100d 	strb	r1, [r3, #13]
   125f4:	e1a01822 	lsr	r1, r2, #16
   125f8:	e20110ff 	and	r1, r1, #255	; 0xff
   125fc:	e3a00000 	mov	r0, #0
   12600:	e1801001 	orr	r1, r0, r1
   12604:	e5c3100e 	strb	r1, [r3, #14]
   12608:	e1a02c22 	lsr	r2, r2, #24
   1260c:	e3a01000 	mov	r1, #0
   12610:	e1812002 	orr	r2, r1, r2
   12614:	e5c3200f 	strb	r2, [r3, #15]
   12618:	e51b3028 	ldr	r3, [fp, #-40]	; 0xffffffd8
   1261c:	e1a03823 	lsr	r3, r3, #16
   12620:	e1a03803 	lsl	r3, r3, #16
   12624:	e3530000 	cmp	r3, #0
   12628:	0a000004 	beq	12640 <HidEnumerateActionAddField+0x14a8>
   1262c:	e51b301c 	ldr	r3, [fp, #-28]	; 0xffffffe4
   12630:	e283300c 	add	r3, r3, #12
   12634:	e51b2028 	ldr	r2, [fp, #-40]	; 0xffffffd8
   12638:	e5832000 	str	r2, [r3]
   1263c:	ea00007f 	b	12840 <HidEnumerateActionAddField+0x16a8>
   12640:	e51b301c 	ldr	r3, [fp, #-28]	; 0xffffffe4
   12644:	e5d3200c 	ldrb	r2, [r3, #12]
   12648:	e5d3100d 	ldrb	r1, [r3, #13]
   1264c:	e1a01401 	lsl	r1, r1, #8
   12650:	e1812002 	orr	r2, r1, r2
   12654:	e5d3100e 	ldrb	r1, [r3, #14]
   12658:	e1a01801 	lsl	r1, r1, #16
   1265c:	e1812002 	orr	r2, r1, r2
   12660:	e5d3300f 	ldrb	r3, [r3, #15]
   12664:	e1a03c03 	lsl	r3, r3, #24
   12668:	e1833002 	orr	r3, r3, r2
   1266c:	e1a02003 	mov	r2, r3
   12670:	e51b3028 	ldr	r3, [fp, #-40]	; 0xffffffd8
   12674:	e1a03803 	lsl	r3, r3, #16
   12678:	e1a03823 	lsr	r3, r3, #16
   1267c:	e20310ff 	and	r1, r3, #255	; 0xff
   12680:	e3a00000 	mov	r0, #0
   12684:	e1801001 	orr	r1, r0, r1
   12688:	e5c21000 	strb	r1, [r2]
   1268c:	e1a03423 	lsr	r3, r3, #8
   12690:	e1a03803 	lsl	r3, r3, #16
   12694:	e1a03823 	lsr	r3, r3, #16
   12698:	e3a01000 	mov	r1, #0
   1269c:	e1813003 	orr	r3, r1, r3
   126a0:	e5c23001 	strb	r3, [r2, #1]
   126a4:	e51b301c 	ldr	r3, [fp, #-28]	; 0xffffffe4
   126a8:	e5d3200c 	ldrb	r2, [r3, #12]
   126ac:	e5d3100d 	ldrb	r1, [r3, #13]
   126b0:	e1a01401 	lsl	r1, r1, #8
   126b4:	e1812002 	orr	r2, r1, r2
   126b8:	e5d3100e 	ldrb	r1, [r3, #14]
   126bc:	e1a01801 	lsl	r1, r1, #16
   126c0:	e1812002 	orr	r2, r1, r2
   126c4:	e5d3300f 	ldrb	r3, [r3, #15]
   126c8:	e1a03c03 	lsl	r3, r3, #24
   126cc:	e1833002 	orr	r3, r3, r2
   126d0:	e1a02003 	mov	r2, r3
   126d4:	e51b301c 	ldr	r3, [fp, #-28]	; 0xffffffe4
   126d8:	e5d3102c 	ldrb	r1, [r3, #44]	; 0x2c
   126dc:	e5d3302d 	ldrb	r3, [r3, #45]	; 0x2d
   126e0:	e1a03403 	lsl	r3, r3, #8
   126e4:	e1833001 	orr	r3, r3, r1
   126e8:	e1a03803 	lsl	r3, r3, #16
   126ec:	e1a03823 	lsr	r3, r3, #16
   126f0:	e20310ff 	and	r1, r3, #255	; 0xff
   126f4:	e3a00000 	mov	r0, #0
   126f8:	e1801001 	orr	r1, r0, r1
   126fc:	e5c21002 	strb	r1, [r2, #2]
   12700:	e1a03423 	lsr	r3, r3, #8
   12704:	e1a03803 	lsl	r3, r3, #16
   12708:	e1a03823 	lsr	r3, r3, #16
   1270c:	e3a01000 	mov	r1, #0
   12710:	e1813003 	orr	r3, r1, r3
   12714:	e5c23003 	strb	r3, [r2, #3]
   12718:	ea000048 	b	12840 <HidEnumerateActionAddField+0x16a8>
   1271c:	e51b301c 	ldr	r3, [fp, #-28]	; 0xffffffe4
   12720:	e5d3200c 	ldrb	r2, [r3, #12]
   12724:	e5d3100d 	ldrb	r1, [r3, #13]
   12728:	e1a01401 	lsl	r1, r1, #8
   1272c:	e1812002 	orr	r2, r1, r2
   12730:	e5d3100e 	ldrb	r1, [r3, #14]
   12734:	e1a01801 	lsl	r1, r1, #16
   12738:	e1812002 	orr	r2, r1, r2
   1273c:	e5d3300f 	ldrb	r3, [r3, #15]
   12740:	e1a03c03 	lsl	r3, r3, #24
   12744:	e1833002 	orr	r3, r3, r2
   12748:	e2832004 	add	r2, r3, #4
   1274c:	e51b301c 	ldr	r3, [fp, #-28]	; 0xffffffe4
   12750:	e20210ff 	and	r1, r2, #255	; 0xff
   12754:	e3a00000 	mov	r0, #0
   12758:	e1801001 	orr	r1, r0, r1
   1275c:	e5c3100c 	strb	r1, [r3, #12]
   12760:	e1a01422 	lsr	r1, r2, #8
   12764:	e20110ff 	and	r1, r1, #255	; 0xff
   12768:	e3a00000 	mov	r0, #0
   1276c:	e1801001 	orr	r1, r0, r1
   12770:	e5c3100d 	strb	r1, [r3, #13]
   12774:	e1a01822 	lsr	r1, r2, #16
   12778:	e20110ff 	and	r1, r1, #255	; 0xff
   1277c:	e3a00000 	mov	r0, #0
   12780:	e1801001 	orr	r1, r0, r1
   12784:	e5c3100e 	strb	r1, [r3, #14]
   12788:	e1a02c22 	lsr	r2, r2, #24
   1278c:	e3a01000 	mov	r1, #0
   12790:	e1812002 	orr	r2, r1, r2
   12794:	e5c3200f 	strb	r2, [r3, #15]
   12798:	e51b301c 	ldr	r3, [fp, #-28]	; 0xffffffe4
   1279c:	e5d3200c 	ldrb	r2, [r3, #12]
   127a0:	e5d3100d 	ldrb	r1, [r3, #13]
   127a4:	e1a01401 	lsl	r1, r1, #8
   127a8:	e1812002 	orr	r2, r1, r2
   127ac:	e5d3100e 	ldrb	r1, [r3, #14]
   127b0:	e1a01801 	lsl	r1, r1, #16
   127b4:	e1812002 	orr	r2, r1, r2
   127b8:	e5d3300f 	ldrb	r3, [r3, #15]
   127bc:	e1a03c03 	lsl	r3, r3, #24
   127c0:	e1833002 	orr	r3, r3, r2
   127c4:	e1a02003 	mov	r2, r3
   127c8:	e51b3028 	ldr	r3, [fp, #-40]	; 0xffffffd8
   127cc:	e1a03803 	lsl	r3, r3, #16
   127d0:	e1a03823 	lsr	r3, r3, #16
   127d4:	e20310ff 	and	r1, r3, #255	; 0xff
   127d8:	e3a00000 	mov	r0, #0
   127dc:	e1801001 	orr	r1, r0, r1
   127e0:	e5c21000 	strb	r1, [r2]
   127e4:	e1a03423 	lsr	r3, r3, #8
   127e8:	e1a03803 	lsl	r3, r3, #16
   127ec:	e1a03823 	lsr	r3, r3, #16
   127f0:	e3a01000 	mov	r1, #0
   127f4:	e1813003 	orr	r3, r1, r3
   127f8:	e5c23001 	strb	r3, [r2, #1]
   127fc:	e51b301c 	ldr	r3, [fp, #-28]	; 0xffffffe4
   12800:	e5d3200c 	ldrb	r2, [r3, #12]
   12804:	e5d3100d 	ldrb	r1, [r3, #13]
   12808:	e1a01401 	lsl	r1, r1, #8
   1280c:	e1812002 	orr	r2, r1, r2
   12810:	e5d3100e 	ldrb	r1, [r3, #14]
   12814:	e1a01801 	lsl	r1, r1, #16
   12818:	e1812002 	orr	r2, r1, r2
   1281c:	e5d3300f 	ldrb	r3, [r3, #15]
   12820:	e1a03c03 	lsl	r3, r3, #24
   12824:	e1833002 	orr	r3, r3, r2
   12828:	e3e02000 	mvn	r2, #0
   1282c:	e5c32002 	strb	r2, [r3, #2]
   12830:	e3e02000 	mvn	r2, #0
   12834:	e5c32003 	strb	r2, [r3, #3]
   12838:	ea000000 	b	12840 <HidEnumerateActionAddField+0x16a8>
   1283c:	e1a00000 	nop			; (mov r0, r0)
   12840:	e1a00000 	nop			; (mov r0, r0)
   12844:	e24bd008 	sub	sp, fp, #8
   12848:	e8bd4810 	pop	{r4, fp, lr}
   1284c:	e12fff1e 	bx	lr
   12850:	0000ffff 	.word	0x0000ffff

00012854 <HidParseReportDescriptor>:
   12854:	e92d4800 	push	{fp, lr}
   12858:	e28db004 	add	fp, sp, #4
   1285c:	e24dd040 	sub	sp, sp, #64	; 0x40
   12860:	e50b0038 	str	r0, [fp, #-56]	; 0xffffffc8
   12864:	e50b103c 	str	r1, [fp, #-60]	; 0xffffffc4
   12868:	e1a03002 	mov	r3, r2
   1286c:	e14b33be 	strh	r3, [fp, #-62]	; 0xffffffc2
   12870:	e3a03000 	mov	r3, #0
   12874:	e50b300c 	str	r3, [fp, #-12]
   12878:	e24b3030 	sub	r3, fp, #48	; 0x30
   1287c:	e3a02000 	mov	r2, #0
   12880:	e5832000 	str	r2, [r3]
   12884:	e5c32004 	strb	r2, [r3, #4]
   12888:	e3a03000 	mov	r3, #0
   1288c:	e50b3010 	str	r3, [fp, #-16]
   12890:	e3a03000 	mov	r3, #0
   12894:	e50b3014 	str	r3, [fp, #-20]	; 0xffffffec
   12898:	e3a03000 	mov	r3, #0
   1289c:	e50b3018 	str	r3, [fp, #-24]	; 0xffffffe8
   128a0:	e51b3038 	ldr	r3, [fp, #-56]	; 0xffffffc8
   128a4:	e5933414 	ldr	r3, [r3, #1044]	; 0x414
   128a8:	e50b3028 	str	r3, [fp, #-40]	; 0xffffffd8
   128ac:	e24b3030 	sub	r3, fp, #48	; 0x30
   128b0:	e15b13be 	ldrh	r1, [fp, #-62]	; 0xffffffc2
   128b4:	e59f25e8 	ldr	r2, [pc, #1512]	; 12ea4 <HidParseReportDescriptor+0x650>
   128b8:	e51b003c 	ldr	r0, [fp, #-60]	; 0xffffffc4
   128bc:	ebfff86d 	bl	10a78 <HidEnumerateReport>
   128c0:	e55b3030 	ldrb	r3, [fp, #-48]	; 0xffffffd0
   128c4:	e1a03103 	lsl	r3, r3, #2
   128c8:	e2833008 	add	r3, r3, #8
   128cc:	e1a00003 	mov	r0, r3
   128d0:	ebffe1cb 	bl	b004 <MemoryAllocate>
   128d4:	e50b000c 	str	r0, [fp, #-12]
   128d8:	e51b300c 	ldr	r3, [fp, #-12]
   128dc:	e3530000 	cmp	r3, #0
   128e0:	1a000002 	bne	128f0 <HidParseReportDescriptor+0x9c>
   128e4:	e3e03006 	mvn	r3, #6
   128e8:	e54b3005 	strb	r3, [fp, #-5]
   128ec:	ea00013c 	b	12de4 <HidParseReportDescriptor+0x590>
   128f0:	e3a03000 	mov	r3, #0
   128f4:	e50b301c 	str	r3, [fp, #-28]	; 0xffffffe4
   128f8:	ea000007 	b	1291c <HidParseReportDescriptor+0xc8>
   128fc:	e51b300c 	ldr	r3, [fp, #-12]
   12900:	e51b201c 	ldr	r2, [fp, #-28]	; 0xffffffe4
   12904:	e2822002 	add	r2, r2, #2
   12908:	e3a01000 	mov	r1, #0
   1290c:	e7831102 	str	r1, [r3, r2, lsl #2]
   12910:	e51b301c 	ldr	r3, [fp, #-28]	; 0xffffffe4
   12914:	e2833001 	add	r3, r3, #1
   12918:	e50b301c 	str	r3, [fp, #-28]	; 0xffffffe4
   1291c:	e55b3030 	ldrb	r3, [fp, #-48]	; 0xffffffd0
   12920:	e1a02003 	mov	r2, r3
   12924:	e51b301c 	ldr	r3, [fp, #-28]	; 0xffffffe4
   12928:	e1520003 	cmp	r2, r3
   1292c:	8afffff2 	bhi	128fc <HidParseReportDescriptor+0xa8>
   12930:	e55b3030 	ldrb	r3, [fp, #-48]	; 0xffffffd0
   12934:	e1a02003 	mov	r2, r3
   12938:	e1a03002 	mov	r3, r2
   1293c:	e1a03083 	lsl	r3, r3, #1
   12940:	e0833002 	add	r3, r3, r2
   12944:	e2833006 	add	r3, r3, #6
   12948:	e1a00003 	mov	r0, r3
   1294c:	ebffe1ac 	bl	b004 <MemoryAllocate>
   12950:	e50b0010 	str	r0, [fp, #-16]
   12954:	e51b3010 	ldr	r3, [fp, #-16]
   12958:	e3530000 	cmp	r3, #0
   1295c:	1a000002 	bne	1296c <HidParseReportDescriptor+0x118>
   12960:	e3e03006 	mvn	r3, #6
   12964:	e54b3005 	strb	r3, [fp, #-5]
   12968:	ea00011d 	b	12de4 <HidParseReportDescriptor+0x590>
   1296c:	e55b2030 	ldrb	r2, [fp, #-48]	; 0xffffffd0
   12970:	e51b300c 	ldr	r3, [fp, #-12]
   12974:	e5c32004 	strb	r2, [r3, #4]
   12978:	e51b3010 	ldr	r3, [fp, #-16]
   1297c:	e3a02000 	mov	r2, #0
   12980:	e5c32000 	strb	r2, [r3]
   12984:	e3a02000 	mov	r2, #0
   12988:	e5c32001 	strb	r2, [r3, #1]
   1298c:	e3a02000 	mov	r2, #0
   12990:	e5c32002 	strb	r2, [r3, #2]
   12994:	e3a02000 	mov	r2, #0
   12998:	e5c32003 	strb	r2, [r3, #3]
   1299c:	e51b3010 	ldr	r3, [fp, #-16]
   129a0:	e3a02000 	mov	r2, #0
   129a4:	e5c32004 	strb	r2, [r3, #4]
   129a8:	e51b3010 	ldr	r3, [fp, #-16]
   129ac:	e3a02000 	mov	r2, #0
   129b0:	e5c32005 	strb	r2, [r3, #5]
   129b4:	e15b13be 	ldrh	r1, [fp, #-62]	; 0xffffffc2
   129b8:	e51b3010 	ldr	r3, [fp, #-16]
   129bc:	e59f24e4 	ldr	r2, [pc, #1252]	; 12ea8 <HidParseReportDescriptor+0x654>
   129c0:	e51b003c 	ldr	r0, [fp, #-60]	; 0xffffffc4
   129c4:	ebfff82b 	bl	10a78 <HidEnumerateReport>
   129c8:	e3a03000 	mov	r3, #0
   129cc:	e50b3020 	str	r3, [fp, #-32]	; 0xffffffe0
   129d0:	ea00005b 	b	12b44 <HidParseReportDescriptor+0x2f0>
   129d4:	e51b1010 	ldr	r1, [fp, #-16]
   129d8:	e51b2020 	ldr	r2, [fp, #-32]	; 0xffffffe0
   129dc:	e1a03002 	mov	r3, r2
   129e0:	e1a03083 	lsl	r3, r3, #1
   129e4:	e0833002 	add	r3, r3, r2
   129e8:	e0813003 	add	r3, r1, r3
   129ec:	e2833007 	add	r3, r3, #7
   129f0:	e5d33000 	ldrb	r3, [r3]
   129f4:	e1a02003 	mov	r2, r3
   129f8:	e1a03002 	mov	r3, r2
   129fc:	e1a03103 	lsl	r3, r3, #2
   12a00:	e0833002 	add	r3, r3, r2
   12a04:	e1a03083 	lsl	r3, r3, #1
   12a08:	e0833002 	add	r3, r3, r2
   12a0c:	e1a03103 	lsl	r3, r3, #2
   12a10:	e283300c 	add	r3, r3, #12
   12a14:	e1a00003 	mov	r0, r3
   12a18:	ebffe179 	bl	b004 <MemoryAllocate>
   12a1c:	e1a01000 	mov	r1, r0
   12a20:	e51b300c 	ldr	r3, [fp, #-12]
   12a24:	e51b2020 	ldr	r2, [fp, #-32]	; 0xffffffe0
   12a28:	e2822002 	add	r2, r2, #2
   12a2c:	e7831102 	str	r1, [r3, r2, lsl #2]
   12a30:	e51b300c 	ldr	r3, [fp, #-12]
   12a34:	e51b2020 	ldr	r2, [fp, #-32]	; 0xffffffe0
   12a38:	e2822002 	add	r2, r2, #2
   12a3c:	e7933102 	ldr	r3, [r3, r2, lsl #2]
   12a40:	e3530000 	cmp	r3, #0
   12a44:	1a000002 	bne	12a54 <HidParseReportDescriptor+0x200>
   12a48:	e3e03006 	mvn	r3, #6
   12a4c:	e54b3005 	strb	r3, [fp, #-5]
   12a50:	ea0000e3 	b	12de4 <HidParseReportDescriptor+0x590>
   12a54:	e51b300c 	ldr	r3, [fp, #-12]
   12a58:	e51b2020 	ldr	r2, [fp, #-32]	; 0xffffffe0
   12a5c:	e2822002 	add	r2, r2, #2
   12a60:	e7933102 	ldr	r3, [r3, r2, lsl #2]
   12a64:	e51b2020 	ldr	r2, [fp, #-32]	; 0xffffffe0
   12a68:	e20220ff 	and	r2, r2, #255	; 0xff
   12a6c:	e5c32000 	strb	r2, [r3]
   12a70:	e51b300c 	ldr	r3, [fp, #-12]
   12a74:	e51b2020 	ldr	r2, [fp, #-32]	; 0xffffffe0
   12a78:	e2822002 	add	r2, r2, #2
   12a7c:	e7933102 	ldr	r3, [r3, r2, lsl #2]
   12a80:	e3a02000 	mov	r2, #0
   12a84:	e5c32001 	strb	r2, [r3, #1]
   12a88:	e51b300c 	ldr	r3, [fp, #-12]
   12a8c:	e51b2020 	ldr	r2, [fp, #-32]	; 0xffffffe0
   12a90:	e2822002 	add	r2, r2, #2
   12a94:	e7931102 	ldr	r1, [r3, r2, lsl #2]
   12a98:	e51b0010 	ldr	r0, [fp, #-16]
   12a9c:	e51b2020 	ldr	r2, [fp, #-32]	; 0xffffffe0
   12aa0:	e1a03002 	mov	r3, r2
   12aa4:	e1a03083 	lsl	r3, r3, #1
   12aa8:	e0833002 	add	r3, r3, r2
   12aac:	e0803003 	add	r3, r0, r3
   12ab0:	e2833006 	add	r3, r3, #6
   12ab4:	e5d33000 	ldrb	r3, [r3]
   12ab8:	e5c13002 	strb	r3, [r1, #2]
   12abc:	e51b300c 	ldr	r3, [fp, #-12]
   12ac0:	e51b2020 	ldr	r2, [fp, #-32]	; 0xffffffe0
   12ac4:	e2822002 	add	r2, r2, #2
   12ac8:	e7931102 	ldr	r1, [r3, r2, lsl #2]
   12acc:	e51b0010 	ldr	r0, [fp, #-16]
   12ad0:	e51b2020 	ldr	r2, [fp, #-32]	; 0xffffffe0
   12ad4:	e1a03002 	mov	r3, r2
   12ad8:	e1a03083 	lsl	r3, r3, #1
   12adc:	e0833002 	add	r3, r3, r2
   12ae0:	e0803003 	add	r3, r0, r3
   12ae4:	e2833008 	add	r3, r3, #8
   12ae8:	e5d33000 	ldrb	r3, [r3]
   12aec:	e5c13003 	strb	r3, [r1, #3]
   12af0:	e51b300c 	ldr	r3, [fp, #-12]
   12af4:	e51b2020 	ldr	r2, [fp, #-32]	; 0xffffffe0
   12af8:	e2822002 	add	r2, r2, #2
   12afc:	e7933102 	ldr	r3, [r3, r2, lsl #2]
   12b00:	e3a02000 	mov	r2, #0
   12b04:	e5c32004 	strb	r2, [r3, #4]
   12b08:	e51b300c 	ldr	r3, [fp, #-12]
   12b0c:	e51b2020 	ldr	r2, [fp, #-32]	; 0xffffffe0
   12b10:	e2822002 	add	r2, r2, #2
   12b14:	e7933102 	ldr	r3, [r3, r2, lsl #2]
   12b18:	e3a02000 	mov	r2, #0
   12b1c:	e5c32005 	strb	r2, [r3, #5]
   12b20:	e3a02000 	mov	r2, #0
   12b24:	e5c32006 	strb	r2, [r3, #6]
   12b28:	e3a02000 	mov	r2, #0
   12b2c:	e5c32007 	strb	r2, [r3, #7]
   12b30:	e3a02000 	mov	r2, #0
   12b34:	e5c32008 	strb	r2, [r3, #8]
   12b38:	e51b3020 	ldr	r3, [fp, #-32]	; 0xffffffe0
   12b3c:	e2833001 	add	r3, r3, #1
   12b40:	e50b3020 	str	r3, [fp, #-32]	; 0xffffffe0
   12b44:	e55b3030 	ldrb	r3, [fp, #-48]	; 0xffffffd0
   12b48:	e1a02003 	mov	r2, r3
   12b4c:	e51b3020 	ldr	r3, [fp, #-32]	; 0xffffffe0
   12b50:	e1520003 	cmp	r2, r3
   12b54:	8affff9e 	bhi	129d4 <HidParseReportDescriptor+0x180>
   12b58:	e51b0010 	ldr	r0, [fp, #-16]
   12b5c:	ebffe392 	bl	b9ac <MemoryDeallocate>
   12b60:	e3a03000 	mov	r3, #0
   12b64:	e50b3010 	str	r3, [fp, #-16]
   12b68:	e3a0002f 	mov	r0, #47	; 0x2f
   12b6c:	ebffe124 	bl	b004 <MemoryAllocate>
   12b70:	e50b0014 	str	r0, [fp, #-20]	; 0xffffffec
   12b74:	e51b3014 	ldr	r3, [fp, #-20]	; 0xffffffec
   12b78:	e3530000 	cmp	r3, #0
   12b7c:	1a000002 	bne	12b8c <HidParseReportDescriptor+0x338>
   12b80:	e3e03006 	mvn	r3, #6
   12b84:	e54b3005 	strb	r3, [fp, #-5]
   12b88:	ea000095 	b	12de4 <HidParseReportDescriptor+0x590>
   12b8c:	e3a00040 	mov	r0, #64	; 0x40
   12b90:	ebffe11b 	bl	b004 <MemoryAllocate>
   12b94:	e50b0018 	str	r0, [fp, #-24]	; 0xffffffe8
   12b98:	e51b3014 	ldr	r3, [fp, #-20]	; 0xffffffec
   12b9c:	e55b2018 	ldrb	r2, [fp, #-24]	; 0xffffffe8
   12ba0:	e3a01000 	mov	r1, #0
   12ba4:	e1812002 	orr	r2, r1, r2
   12ba8:	e5c3200c 	strb	r2, [r3, #12]
   12bac:	e55b2017 	ldrb	r2, [fp, #-23]	; 0xffffffe9
   12bb0:	e3a01000 	mov	r1, #0
   12bb4:	e1812002 	orr	r2, r1, r2
   12bb8:	e5c3200d 	strb	r2, [r3, #13]
   12bbc:	e55b2016 	ldrb	r2, [fp, #-22]	; 0xffffffea
   12bc0:	e3a01000 	mov	r1, #0
   12bc4:	e1812002 	orr	r2, r1, r2
   12bc8:	e5c3200e 	strb	r2, [r3, #14]
   12bcc:	e55b2015 	ldrb	r2, [fp, #-21]	; 0xffffffeb
   12bd0:	e3a01000 	mov	r1, #0
   12bd4:	e1812002 	orr	r2, r1, r2
   12bd8:	e5c3200f 	strb	r2, [r3, #15]
   12bdc:	e51b3014 	ldr	r3, [fp, #-20]	; 0xffffffec
   12be0:	e5d3200c 	ldrb	r2, [r3, #12]
   12be4:	e5d3100d 	ldrb	r1, [r3, #13]
   12be8:	e1a01401 	lsl	r1, r1, #8
   12bec:	e1812002 	orr	r2, r1, r2
   12bf0:	e5d3100e 	ldrb	r1, [r3, #14]
   12bf4:	e1a01801 	lsl	r1, r1, #16
   12bf8:	e1812002 	orr	r2, r1, r2
   12bfc:	e5d3300f 	ldrb	r3, [r3, #15]
   12c00:	e1a03c03 	lsl	r3, r3, #24
   12c04:	e1833002 	orr	r3, r3, r2
   12c08:	e3530000 	cmp	r3, #0
   12c0c:	1a000002 	bne	12c1c <HidParseReportDescriptor+0x3c8>
   12c10:	e3e03006 	mvn	r3, #6
   12c14:	e54b3005 	strb	r3, [fp, #-5]
   12c18:	ea000071 	b	12de4 <HidParseReportDescriptor+0x590>
   12c1c:	e51b3014 	ldr	r3, [fp, #-20]	; 0xffffffec
   12c20:	e3a02000 	mov	r2, #0
   12c24:	e5c32004 	strb	r2, [r3, #4]
   12c28:	e3a02000 	mov	r2, #0
   12c2c:	e5c32005 	strb	r2, [r3, #5]
   12c30:	e3a02000 	mov	r2, #0
   12c34:	e5c32006 	strb	r2, [r3, #6]
   12c38:	e3a02000 	mov	r2, #0
   12c3c:	e5c32007 	strb	r2, [r3, #7]
   12c40:	e51b3014 	ldr	r3, [fp, #-20]	; 0xffffffec
   12c44:	e3a02000 	mov	r2, #0
   12c48:	e5c32018 	strb	r2, [r3, #24]
   12c4c:	e3a02000 	mov	r2, #0
   12c50:	e5c32019 	strb	r2, [r3, #25]
   12c54:	e3a02000 	mov	r2, #0
   12c58:	e5c3201a 	strb	r2, [r3, #26]
   12c5c:	e3a02000 	mov	r2, #0
   12c60:	e5c3201b 	strb	r2, [r3, #27]
   12c64:	e51b3014 	ldr	r3, [fp, #-20]	; 0xffffffec
   12c68:	e3a02000 	mov	r2, #0
   12c6c:	e5c32014 	strb	r2, [r3, #20]
   12c70:	e3a02000 	mov	r2, #0
   12c74:	e5c32015 	strb	r2, [r3, #21]
   12c78:	e3a02000 	mov	r2, #0
   12c7c:	e5c32016 	strb	r2, [r3, #22]
   12c80:	e3a02000 	mov	r2, #0
   12c84:	e5c32017 	strb	r2, [r3, #23]
   12c88:	e51b3014 	ldr	r3, [fp, #-20]	; 0xffffffec
   12c8c:	e3a02000 	mov	r2, #0
   12c90:	e5c32020 	strb	r2, [r3, #32]
   12c94:	e3a02000 	mov	r2, #0
   12c98:	e5c32021 	strb	r2, [r3, #33]	; 0x21
   12c9c:	e3a02000 	mov	r2, #0
   12ca0:	e5c32022 	strb	r2, [r3, #34]	; 0x22
   12ca4:	e3a02000 	mov	r2, #0
   12ca8:	e5c32023 	strb	r2, [r3, #35]	; 0x23
   12cac:	e51b3014 	ldr	r3, [fp, #-20]	; 0xffffffec
   12cb0:	e3a02000 	mov	r2, #0
   12cb4:	e5c3201c 	strb	r2, [r3, #28]
   12cb8:	e3a02000 	mov	r2, #0
   12cbc:	e5c3201d 	strb	r2, [r3, #29]
   12cc0:	e3a02000 	mov	r2, #0
   12cc4:	e5c3201e 	strb	r2, [r3, #30]
   12cc8:	e3a02000 	mov	r2, #0
   12ccc:	e5c3201f 	strb	r2, [r3, #31]
   12cd0:	e51b3014 	ldr	r3, [fp, #-20]	; 0xffffffec
   12cd4:	e3a02000 	mov	r2, #0
   12cd8:	e5c3202e 	strb	r2, [r3, #46]	; 0x2e
   12cdc:	e51b3014 	ldr	r3, [fp, #-20]	; 0xffffffec
   12ce0:	e3a02000 	mov	r2, #0
   12ce4:	e5c32008 	strb	r2, [r3, #8]
   12ce8:	e3a02000 	mov	r2, #0
   12cec:	e5c32009 	strb	r2, [r3, #9]
   12cf0:	e3a02000 	mov	r2, #0
   12cf4:	e5c3200a 	strb	r2, [r3, #10]
   12cf8:	e3a02000 	mov	r2, #0
   12cfc:	e5c3200b 	strb	r2, [r3, #11]
   12d00:	e51b3014 	ldr	r3, [fp, #-20]	; 0xffffffec
   12d04:	e5d3200c 	ldrb	r2, [r3, #12]
   12d08:	e5d3100d 	ldrb	r1, [r3, #13]
   12d0c:	e1a01401 	lsl	r1, r1, #8
   12d10:	e1812002 	orr	r2, r1, r2
   12d14:	e5d3100e 	ldrb	r1, [r3, #14]
   12d18:	e1a01801 	lsl	r1, r1, #16
   12d1c:	e1812002 	orr	r2, r1, r2
   12d20:	e5d3300f 	ldrb	r3, [r3, #15]
   12d24:	e1a03c03 	lsl	r3, r3, #24
   12d28:	e1833002 	orr	r3, r3, r2
   12d2c:	e1a02003 	mov	r2, r3
   12d30:	e3e03000 	mvn	r3, #0
   12d34:	e5823000 	str	r3, [r2]
   12d38:	e51b3014 	ldr	r3, [fp, #-20]	; 0xffffffec
   12d3c:	e55b200c 	ldrb	r2, [fp, #-12]
   12d40:	e3a01000 	mov	r1, #0
   12d44:	e1812002 	orr	r2, r1, r2
   12d48:	e5c32000 	strb	r2, [r3]
   12d4c:	e55b200b 	ldrb	r2, [fp, #-11]
   12d50:	e3a01000 	mov	r1, #0
   12d54:	e1812002 	orr	r2, r1, r2
   12d58:	e5c32001 	strb	r2, [r3, #1]
   12d5c:	e55b200a 	ldrb	r2, [fp, #-10]
   12d60:	e3a01000 	mov	r1, #0
   12d64:	e1812002 	orr	r2, r1, r2
   12d68:	e5c32002 	strb	r2, [r3, #2]
   12d6c:	e55b2009 	ldrb	r2, [fp, #-9]
   12d70:	e3a01000 	mov	r1, #0
   12d74:	e1812002 	orr	r2, r1, r2
   12d78:	e5c32003 	strb	r2, [r3, #3]
   12d7c:	e15b13be 	ldrh	r1, [fp, #-62]	; 0xffffffc2
   12d80:	e51b3014 	ldr	r3, [fp, #-20]	; 0xffffffec
   12d84:	e59f2120 	ldr	r2, [pc, #288]	; 12eac <HidParseReportDescriptor+0x658>
   12d88:	e51b003c 	ldr	r0, [fp, #-60]	; 0xffffffc4
   12d8c:	ebfff739 	bl	10a78 <HidEnumerateReport>
   12d90:	e51b3028 	ldr	r3, [fp, #-40]	; 0xffffffd8
   12d94:	e55b200c 	ldrb	r2, [fp, #-12]
   12d98:	e3a01000 	mov	r1, #0
   12d9c:	e1812002 	orr	r2, r1, r2
   12da0:	e5c3200c 	strb	r2, [r3, #12]
   12da4:	e55b200b 	ldrb	r2, [fp, #-11]
   12da8:	e3a01000 	mov	r1, #0
   12dac:	e1812002 	orr	r2, r1, r2
   12db0:	e5c3200d 	strb	r2, [r3, #13]
   12db4:	e55b200a 	ldrb	r2, [fp, #-10]
   12db8:	e3a01000 	mov	r1, #0
   12dbc:	e1812002 	orr	r2, r1, r2
   12dc0:	e5c3200e 	strb	r2, [r3, #14]
   12dc4:	e55b2009 	ldrb	r2, [fp, #-9]
   12dc8:	e3a01000 	mov	r1, #0
   12dcc:	e1812002 	orr	r2, r1, r2
   12dd0:	e5c3200f 	strb	r2, [r3, #15]
   12dd4:	e3a03000 	mov	r3, #0
   12dd8:	e50b300c 	str	r3, [fp, #-12]
   12ddc:	e3a03000 	mov	r3, #0
   12de0:	e54b3005 	strb	r3, [fp, #-5]
   12de4:	e51b3018 	ldr	r3, [fp, #-24]	; 0xffffffe8
   12de8:	e3530000 	cmp	r3, #0
   12dec:	0a000001 	beq	12df8 <HidParseReportDescriptor+0x5a4>
   12df0:	e51b0018 	ldr	r0, [fp, #-24]	; 0xffffffe8
   12df4:	ebffe2ec 	bl	b9ac <MemoryDeallocate>
   12df8:	e51b3014 	ldr	r3, [fp, #-20]	; 0xffffffec
   12dfc:	e3530000 	cmp	r3, #0
   12e00:	0a000001 	beq	12e0c <HidParseReportDescriptor+0x5b8>
   12e04:	e51b0014 	ldr	r0, [fp, #-20]	; 0xffffffec
   12e08:	ebffe2e7 	bl	b9ac <MemoryDeallocate>
   12e0c:	e51b3010 	ldr	r3, [fp, #-16]
   12e10:	e3530000 	cmp	r3, #0
   12e14:	0a000001 	beq	12e20 <HidParseReportDescriptor+0x5cc>
   12e18:	e51b0010 	ldr	r0, [fp, #-16]
   12e1c:	ebffe2e2 	bl	b9ac <MemoryDeallocate>
   12e20:	e51b300c 	ldr	r3, [fp, #-12]
   12e24:	e3530000 	cmp	r3, #0
   12e28:	0a000018 	beq	12e90 <HidParseReportDescriptor+0x63c>
   12e2c:	e3a03000 	mov	r3, #0
   12e30:	e50b3024 	str	r3, [fp, #-36]	; 0xffffffdc
   12e34:	ea00000e 	b	12e74 <HidParseReportDescriptor+0x620>
   12e38:	e51b300c 	ldr	r3, [fp, #-12]
   12e3c:	e51b2024 	ldr	r2, [fp, #-36]	; 0xffffffdc
   12e40:	e2822002 	add	r2, r2, #2
   12e44:	e7933102 	ldr	r3, [r3, r2, lsl #2]
   12e48:	e3530000 	cmp	r3, #0
   12e4c:	0a000005 	beq	12e68 <HidParseReportDescriptor+0x614>
   12e50:	e51b300c 	ldr	r3, [fp, #-12]
   12e54:	e51b2024 	ldr	r2, [fp, #-36]	; 0xffffffdc
   12e58:	e2822002 	add	r2, r2, #2
   12e5c:	e7933102 	ldr	r3, [r3, r2, lsl #2]
   12e60:	e1a00003 	mov	r0, r3
   12e64:	ebffe2d0 	bl	b9ac <MemoryDeallocate>
   12e68:	e51b3024 	ldr	r3, [fp, #-36]	; 0xffffffdc
   12e6c:	e2833001 	add	r3, r3, #1
   12e70:	e50b3024 	str	r3, [fp, #-36]	; 0xffffffdc
   12e74:	e55b3030 	ldrb	r3, [fp, #-48]	; 0xffffffd0
   12e78:	e1a02003 	mov	r2, r3
   12e7c:	e51b3024 	ldr	r3, [fp, #-36]	; 0xffffffdc
   12e80:	e1520003 	cmp	r2, r3
   12e84:	8affffeb 	bhi	12e38 <HidParseReportDescriptor+0x5e4>
   12e88:	e51b000c 	ldr	r0, [fp, #-12]
   12e8c:	ebffe2c6 	bl	b9ac <MemoryDeallocate>
   12e90:	e15b30d5 	ldrsb	r3, [fp, #-5]
   12e94:	e1a00003 	mov	r0, r3
   12e98:	e24bd004 	sub	sp, fp, #4
   12e9c:	e8bd4800 	pop	{fp, lr}
   12ea0:	e12fff1e 	bx	lr
   12ea4:	00010cac 	.word	0x00010cac
   12ea8:	00010ee0 	.word	0x00010ee0
   12eac:	00011198 	.word	0x00011198

00012eb0 <HidDetached>:
   12eb0:	e92d4800 	push	{fp, lr}
   12eb4:	e28db004 	add	fp, sp, #4
   12eb8:	e24dd010 	sub	sp, sp, #16
   12ebc:	e50b0010 	str	r0, [fp, #-16]
   12ec0:	e51b3010 	ldr	r3, [fp, #-16]
   12ec4:	e5933414 	ldr	r3, [r3, #1044]	; 0x414
   12ec8:	e3530000 	cmp	r3, #0
   12ecc:	0a00001d 	beq	12f48 <HidDetached+0x98>
   12ed0:	e51b3010 	ldr	r3, [fp, #-16]
   12ed4:	e5933414 	ldr	r3, [r3, #1044]	; 0x414
   12ed8:	e50b3008 	str	r3, [fp, #-8]
   12edc:	e51b3008 	ldr	r3, [fp, #-8]
   12ee0:	e5d32014 	ldrb	r2, [r3, #20]
   12ee4:	e5d31015 	ldrb	r1, [r3, #21]
   12ee8:	e1a01401 	lsl	r1, r1, #8
   12eec:	e1812002 	orr	r2, r1, r2
   12ef0:	e5d31016 	ldrb	r1, [r3, #22]
   12ef4:	e1a01801 	lsl	r1, r1, #16
   12ef8:	e1812002 	orr	r2, r1, r2
   12efc:	e5d33017 	ldrb	r3, [r3, #23]
   12f00:	e1a03c03 	lsl	r3, r3, #24
   12f04:	e1833002 	orr	r3, r3, r2
   12f08:	e3530000 	cmp	r3, #0
   12f0c:	0a00000d 	beq	12f48 <HidDetached+0x98>
   12f10:	e51b3008 	ldr	r3, [fp, #-8]
   12f14:	e5d32014 	ldrb	r2, [r3, #20]
   12f18:	e5d31015 	ldrb	r1, [r3, #21]
   12f1c:	e1a01401 	lsl	r1, r1, #8
   12f20:	e1812002 	orr	r2, r1, r2
   12f24:	e5d31016 	ldrb	r1, [r3, #22]
   12f28:	e1a01801 	lsl	r1, r1, #16
   12f2c:	e1812002 	orr	r2, r1, r2
   12f30:	e5d33017 	ldrb	r3, [r3, #23]
   12f34:	e1a03c03 	lsl	r3, r3, #24
   12f38:	e1833002 	orr	r3, r3, r2
   12f3c:	e51b0010 	ldr	r0, [fp, #-16]
   12f40:	e1a0e00f 	mov	lr, pc
   12f44:	e12fff13 	bx	r3
   12f48:	e1a00000 	nop			; (mov r0, r0)
   12f4c:	e24bd004 	sub	sp, fp, #4
   12f50:	e8bd4800 	pop	{fp, lr}
   12f54:	e12fff1e 	bx	lr

00012f58 <HidDeallocate>:
   12f58:	e92d4800 	push	{fp, lr}
   12f5c:	e28db004 	add	fp, sp, #4
   12f60:	e24dd018 	sub	sp, sp, #24
   12f64:	e50b0018 	str	r0, [fp, #-24]	; 0xffffffe8
   12f68:	e51b3018 	ldr	r3, [fp, #-24]	; 0xffffffe8
   12f6c:	e5933414 	ldr	r3, [r3, #1044]	; 0x414
   12f70:	e3530000 	cmp	r3, #0
   12f74:	0a0000ba 	beq	13264 <HidDeallocate+0x30c>
   12f78:	e51b3018 	ldr	r3, [fp, #-24]	; 0xffffffe8
   12f7c:	e5933414 	ldr	r3, [r3, #1044]	; 0x414
   12f80:	e50b3010 	str	r3, [fp, #-16]
   12f84:	e51b3010 	ldr	r3, [fp, #-16]
   12f88:	e5d32018 	ldrb	r2, [r3, #24]
   12f8c:	e5d31019 	ldrb	r1, [r3, #25]
   12f90:	e1a01401 	lsl	r1, r1, #8
   12f94:	e1812002 	orr	r2, r1, r2
   12f98:	e5d3101a 	ldrb	r1, [r3, #26]
   12f9c:	e1a01801 	lsl	r1, r1, #16
   12fa0:	e1812002 	orr	r2, r1, r2
   12fa4:	e5d3301b 	ldrb	r3, [r3, #27]
   12fa8:	e1a03c03 	lsl	r3, r3, #24
   12fac:	e1833002 	orr	r3, r3, r2
   12fb0:	e3530000 	cmp	r3, #0
   12fb4:	0a00000d 	beq	12ff0 <HidDeallocate+0x98>
   12fb8:	e51b3010 	ldr	r3, [fp, #-16]
   12fbc:	e5d32018 	ldrb	r2, [r3, #24]
   12fc0:	e5d31019 	ldrb	r1, [r3, #25]
   12fc4:	e1a01401 	lsl	r1, r1, #8
   12fc8:	e1812002 	orr	r2, r1, r2
   12fcc:	e5d3101a 	ldrb	r1, [r3, #26]
   12fd0:	e1a01801 	lsl	r1, r1, #16
   12fd4:	e1812002 	orr	r2, r1, r2
   12fd8:	e5d3301b 	ldrb	r3, [r3, #27]
   12fdc:	e1a03c03 	lsl	r3, r3, #24
   12fe0:	e1833002 	orr	r3, r3, r2
   12fe4:	e51b0018 	ldr	r0, [fp, #-24]	; 0xffffffe8
   12fe8:	e1a0e00f 	mov	lr, pc
   12fec:	e12fff13 	bx	r3
   12ff0:	e51b3010 	ldr	r3, [fp, #-16]
   12ff4:	e5d3200c 	ldrb	r2, [r3, #12]
   12ff8:	e5d3100d 	ldrb	r1, [r3, #13]
   12ffc:	e1a01401 	lsl	r1, r1, #8
   13000:	e1812002 	orr	r2, r1, r2
   13004:	e5d3100e 	ldrb	r1, [r3, #14]
   13008:	e1a01801 	lsl	r1, r1, #16
   1300c:	e1812002 	orr	r2, r1, r2
   13010:	e5d3300f 	ldrb	r3, [r3, #15]
   13014:	e1a03c03 	lsl	r3, r3, #24
   13018:	e1833002 	orr	r3, r3, r2
   1301c:	e3530000 	cmp	r3, #0
   13020:	0a00008d 	beq	1325c <HidDeallocate+0x304>
   13024:	e3a03000 	mov	r3, #0
   13028:	e50b3008 	str	r3, [fp, #-8]
   1302c:	ea00006d 	b	131e8 <HidDeallocate+0x290>
   13030:	e51b3010 	ldr	r3, [fp, #-16]
   13034:	e5d3200c 	ldrb	r2, [r3, #12]
   13038:	e5d3100d 	ldrb	r1, [r3, #13]
   1303c:	e1a01401 	lsl	r1, r1, #8
   13040:	e1812002 	orr	r2, r1, r2
   13044:	e5d3100e 	ldrb	r1, [r3, #14]
   13048:	e1a01801 	lsl	r1, r1, #16
   1304c:	e1812002 	orr	r2, r1, r2
   13050:	e5d3300f 	ldrb	r3, [r3, #15]
   13054:	e1a03c03 	lsl	r3, r3, #24
   13058:	e1833002 	orr	r3, r3, r2
   1305c:	e1a02003 	mov	r2, r3
   13060:	e51b3008 	ldr	r3, [fp, #-8]
   13064:	e2833002 	add	r3, r3, #2
   13068:	e7923103 	ldr	r3, [r2, r3, lsl #2]
   1306c:	e3530000 	cmp	r3, #0
   13070:	0a000059 	beq	131dc <HidDeallocate+0x284>
   13074:	e51b3010 	ldr	r3, [fp, #-16]
   13078:	e5d3200c 	ldrb	r2, [r3, #12]
   1307c:	e5d3100d 	ldrb	r1, [r3, #13]
   13080:	e1a01401 	lsl	r1, r1, #8
   13084:	e1812002 	orr	r2, r1, r2
   13088:	e5d3100e 	ldrb	r1, [r3, #14]
   1308c:	e1a01801 	lsl	r1, r1, #16
   13090:	e1812002 	orr	r2, r1, r2
   13094:	e5d3300f 	ldrb	r3, [r3, #15]
   13098:	e1a03c03 	lsl	r3, r3, #24
   1309c:	e1833002 	orr	r3, r3, r2
   130a0:	e1a02003 	mov	r2, r3
   130a4:	e51b3008 	ldr	r3, [fp, #-8]
   130a8:	e2833002 	add	r3, r3, #2
   130ac:	e7923103 	ldr	r3, [r2, r3, lsl #2]
   130b0:	e50b3014 	str	r3, [fp, #-20]	; 0xffffffec
   130b4:	e51b3014 	ldr	r3, [fp, #-20]	; 0xffffffec
   130b8:	e5932004 	ldr	r2, [r3, #4]
   130bc:	e1a02422 	lsr	r2, r2, #8
   130c0:	e5d33008 	ldrb	r3, [r3, #8]
   130c4:	e1a03c03 	lsl	r3, r3, #24
   130c8:	e1833002 	orr	r3, r3, r2
   130cc:	e3530000 	cmp	r3, #0
   130d0:	0a000007 	beq	130f4 <HidDeallocate+0x19c>
   130d4:	e51b3014 	ldr	r3, [fp, #-20]	; 0xffffffec
   130d8:	e5932004 	ldr	r2, [r3, #4]
   130dc:	e1a02422 	lsr	r2, r2, #8
   130e0:	e5d33008 	ldrb	r3, [r3, #8]
   130e4:	e1a03c03 	lsl	r3, r3, #24
   130e8:	e1833002 	orr	r3, r3, r2
   130ec:	e1a00003 	mov	r0, r3
   130f0:	ebffe22d 	bl	b9ac <MemoryDeallocate>
   130f4:	e3a03000 	mov	r3, #0
   130f8:	e50b300c 	str	r3, [fp, #-12]
   130fc:	ea00001f 	b	13180 <HidDeallocate+0x228>
   13100:	e51b1014 	ldr	r1, [fp, #-20]	; 0xffffffec
   13104:	e51b200c 	ldr	r2, [fp, #-12]
   13108:	e1a03002 	mov	r3, r2
   1310c:	e1a03103 	lsl	r3, r3, #2
   13110:	e0833002 	add	r3, r3, r2
   13114:	e1a03083 	lsl	r3, r3, #1
   13118:	e0833002 	add	r3, r3, r2
   1311c:	e1a03103 	lsl	r3, r3, #2
   13120:	e0813003 	add	r3, r1, r3
   13124:	e2833008 	add	r3, r3, #8
   13128:	e5d33008 	ldrb	r3, [r3, #8]
   1312c:	e1a030a3 	lsr	r3, r3, #1
   13130:	e2033001 	and	r3, r3, #1
   13134:	e20330ff 	and	r3, r3, #255	; 0xff
   13138:	e3530000 	cmp	r3, #0
   1313c:	1a00000c 	bne	13174 <HidDeallocate+0x21c>
   13140:	e51b1014 	ldr	r1, [fp, #-20]	; 0xffffffec
   13144:	e51b200c 	ldr	r2, [fp, #-12]
   13148:	e1a03002 	mov	r3, r2
   1314c:	e1a03103 	lsl	r3, r3, #2
   13150:	e0833002 	add	r3, r3, r2
   13154:	e1a03083 	lsl	r3, r3, #1
   13158:	e0833002 	add	r3, r3, r2
   1315c:	e1a03103 	lsl	r3, r3, #2
   13160:	e0813003 	add	r3, r1, r3
   13164:	e2833034 	add	r3, r3, #52	; 0x34
   13168:	e5933000 	ldr	r3, [r3]
   1316c:	e1a00003 	mov	r0, r3
   13170:	ebffe20d 	bl	b9ac <MemoryDeallocate>
   13174:	e51b300c 	ldr	r3, [fp, #-12]
   13178:	e2833001 	add	r3, r3, #1
   1317c:	e50b300c 	str	r3, [fp, #-12]
   13180:	e51b3014 	ldr	r3, [fp, #-20]	; 0xffffffec
   13184:	e5d33001 	ldrb	r3, [r3, #1]
   13188:	e1a02003 	mov	r2, r3
   1318c:	e51b300c 	ldr	r3, [fp, #-12]
   13190:	e1520003 	cmp	r2, r3
   13194:	8affffd9 	bhi	13100 <HidDeallocate+0x1a8>
   13198:	e51b3010 	ldr	r3, [fp, #-16]
   1319c:	e5d3200c 	ldrb	r2, [r3, #12]
   131a0:	e5d3100d 	ldrb	r1, [r3, #13]
   131a4:	e1a01401 	lsl	r1, r1, #8
   131a8:	e1812002 	orr	r2, r1, r2
   131ac:	e5d3100e 	ldrb	r1, [r3, #14]
   131b0:	e1a01801 	lsl	r1, r1, #16
   131b4:	e1812002 	orr	r2, r1, r2
   131b8:	e5d3300f 	ldrb	r3, [r3, #15]
   131bc:	e1a03c03 	lsl	r3, r3, #24
   131c0:	e1833002 	orr	r3, r3, r2
   131c4:	e1a02003 	mov	r2, r3
   131c8:	e51b3008 	ldr	r3, [fp, #-8]
   131cc:	e2833002 	add	r3, r3, #2
   131d0:	e7923103 	ldr	r3, [r2, r3, lsl #2]
   131d4:	e1a00003 	mov	r0, r3
   131d8:	ebffe1f3 	bl	b9ac <MemoryDeallocate>
   131dc:	e51b3008 	ldr	r3, [fp, #-8]
   131e0:	e2833001 	add	r3, r3, #1
   131e4:	e50b3008 	str	r3, [fp, #-8]
   131e8:	e51b3010 	ldr	r3, [fp, #-16]
   131ec:	e5d3200c 	ldrb	r2, [r3, #12]
   131f0:	e5d3100d 	ldrb	r1, [r3, #13]
   131f4:	e1a01401 	lsl	r1, r1, #8
   131f8:	e1812002 	orr	r2, r1, r2
   131fc:	e5d3100e 	ldrb	r1, [r3, #14]
   13200:	e1a01801 	lsl	r1, r1, #16
   13204:	e1812002 	orr	r2, r1, r2
   13208:	e5d3300f 	ldrb	r3, [r3, #15]
   1320c:	e1a03c03 	lsl	r3, r3, #24
   13210:	e1833002 	orr	r3, r3, r2
   13214:	e5d33004 	ldrb	r3, [r3, #4]
   13218:	e1a02003 	mov	r2, r3
   1321c:	e51b3008 	ldr	r3, [fp, #-8]
   13220:	e1520003 	cmp	r2, r3
   13224:	8affff81 	bhi	13030 <HidDeallocate+0xd8>
   13228:	e51b3010 	ldr	r3, [fp, #-16]
   1322c:	e5d3200c 	ldrb	r2, [r3, #12]
   13230:	e5d3100d 	ldrb	r1, [r3, #13]
   13234:	e1a01401 	lsl	r1, r1, #8
   13238:	e1812002 	orr	r2, r1, r2
   1323c:	e5d3100e 	ldrb	r1, [r3, #14]
   13240:	e1a01801 	lsl	r1, r1, #16
   13244:	e1812002 	orr	r2, r1, r2
   13248:	e5d3300f 	ldrb	r3, [r3, #15]
   1324c:	e1a03c03 	lsl	r3, r3, #24
   13250:	e1833002 	orr	r3, r3, r2
   13254:	e1a00003 	mov	r0, r3
   13258:	ebffe1d3 	bl	b9ac <MemoryDeallocate>
   1325c:	e51b0010 	ldr	r0, [fp, #-16]
   13260:	ebffe1d1 	bl	b9ac <MemoryDeallocate>
   13264:	e51b3018 	ldr	r3, [fp, #-24]	; 0xffffffe8
   13268:	e3a02000 	mov	r2, #0
   1326c:	e5832010 	str	r2, [r3, #16]
   13270:	e51b3018 	ldr	r3, [fp, #-24]	; 0xffffffe8
   13274:	e3a02000 	mov	r2, #0
   13278:	e583200c 	str	r2, [r3, #12]
   1327c:	e1a00000 	nop			; (mov r0, r0)
   13280:	e24bd004 	sub	sp, fp, #4
   13284:	e8bd4800 	pop	{fp, lr}
   13288:	e12fff1e 	bx	lr

0001328c <HidAttach>:
   1328c:	e92d4800 	push	{fp, lr}
   13290:	e28db004 	add	fp, sp, #4
   13294:	e24dd030 	sub	sp, sp, #48	; 0x30
   13298:	e50b0020 	str	r0, [fp, #-32]	; 0xffffffe0
   1329c:	e50b1024 	str	r1, [fp, #-36]	; 0xffffffdc
   132a0:	e3a03000 	mov	r3, #0
   132a4:	e50b3010 	str	r3, [fp, #-16]
   132a8:	e51b1020 	ldr	r1, [fp, #-32]	; 0xffffffe0
   132ac:	e51b2024 	ldr	r2, [fp, #-36]	; 0xffffffdc
   132b0:	e1a03002 	mov	r3, r2
   132b4:	e1a03183 	lsl	r3, r3, #3
   132b8:	e0833002 	add	r3, r3, r2
   132bc:	e0813003 	add	r3, r1, r3
   132c0:	e2833049 	add	r3, r3, #73	; 0x49
   132c4:	e5d33000 	ldrb	r3, [r3]
   132c8:	e20330ff 	and	r3, r3, #255	; 0xff
   132cc:	e3530003 	cmp	r3, #3
   132d0:	0a000001 	beq	132dc <HidAttach+0x50>
   132d4:	e3e03001 	mvn	r3, #1
   132d8:	ea0001b4 	b	139b0 <HidAttach+0x724>
   132dc:	e51b1020 	ldr	r1, [fp, #-32]	; 0xffffffe0
   132e0:	e51b2024 	ldr	r2, [fp, #-36]	; 0xffffffdc
   132e4:	e1a03002 	mov	r3, r2
   132e8:	e1a03183 	lsl	r3, r3, #3
   132ec:	e0833002 	add	r3, r3, r2
   132f0:	e0813003 	add	r3, r1, r3
   132f4:	e2833048 	add	r3, r3, #72	; 0x48
   132f8:	e5d33000 	ldrb	r3, [r3]
   132fc:	e20330ff 	and	r3, r3, #255	; 0xff
   13300:	e3530000 	cmp	r3, #0
   13304:	1a000001 	bne	13310 <HidAttach+0x84>
   13308:	e3e03004 	mvn	r3, #4
   1330c:	ea0001a7 	b	139b0 <HidAttach+0x724>
   13310:	e51b1020 	ldr	r1, [fp, #-32]	; 0xffffffe0
   13314:	e51b2024 	ldr	r2, [fp, #-36]	; 0xffffffdc
   13318:	e1a03002 	mov	r3, r2
   1331c:	e1a03183 	lsl	r3, r3, #3
   13320:	e0623003 	rsb	r3, r2, r3
   13324:	e1a03203 	lsl	r3, r3, #4
   13328:	e0813003 	add	r3, r1, r3
   1332c:	e2833088 	add	r3, r3, #136	; 0x88
   13330:	e5d33006 	ldrb	r3, [r3, #6]
   13334:	e20330ff 	and	r3, r3, #255	; 0xff
   13338:	e1a033a3 	lsr	r3, r3, #7
   1333c:	e20330ff 	and	r3, r3, #255	; 0xff
   13340:	e3530001 	cmp	r3, #1
   13344:	1a00000c 	bne	1337c <HidAttach+0xf0>
   13348:	e51b1020 	ldr	r1, [fp, #-32]	; 0xffffffe0
   1334c:	e51b2024 	ldr	r2, [fp, #-36]	; 0xffffffdc
   13350:	e1a03002 	mov	r3, r2
   13354:	e1a03183 	lsl	r3, r3, #3
   13358:	e0623003 	rsb	r3, r2, r3
   1335c:	e1a03203 	lsl	r3, r3, #4
   13360:	e0813003 	add	r3, r1, r3
   13364:	e2833088 	add	r3, r3, #136	; 0x88
   13368:	e5d33007 	ldrb	r3, [r3, #7]
   1336c:	e2033003 	and	r3, r3, #3
   13370:	e20330ff 	and	r3, r3, #255	; 0xff
   13374:	e3530003 	cmp	r3, #3
   13378:	0a000001 	beq	13384 <HidAttach+0xf8>
   1337c:	e3e03004 	mvn	r3, #4
   13380:	ea00018a 	b	139b0 <HidAttach+0x724>
   13384:	e51b1020 	ldr	r1, [fp, #-32]	; 0xffffffe0
   13388:	e51b2024 	ldr	r2, [fp, #-36]	; 0xffffffdc
   1338c:	e1a03002 	mov	r3, r2
   13390:	e1a03183 	lsl	r3, r3, #3
   13394:	e0833002 	add	r3, r3, r2
   13398:	e0813003 	add	r3, r1, r3
   1339c:	e2833048 	add	r3, r3, #72	; 0x48
   133a0:	e5d33000 	ldrb	r3, [r3]
   133a4:	e20330ff 	and	r3, r3, #255	; 0xff
   133a8:	e3530001 	cmp	r3, #1
   133ac:	9a00001c 	bls	13424 <HidAttach+0x198>
   133b0:	e51b1020 	ldr	r1, [fp, #-32]	; 0xffffffe0
   133b4:	e51b2024 	ldr	r2, [fp, #-36]	; 0xffffffdc
   133b8:	e1a03002 	mov	r3, r2
   133bc:	e1a03183 	lsl	r3, r3, #3
   133c0:	e0623003 	rsb	r3, r2, r3
   133c4:	e1a03203 	lsl	r3, r3, #4
   133c8:	e0813003 	add	r3, r1, r3
   133cc:	e283308f 	add	r3, r3, #143	; 0x8f
   133d0:	e5d33006 	ldrb	r3, [r3, #6]
   133d4:	e20330ff 	and	r3, r3, #255	; 0xff
   133d8:	e1a033a3 	lsr	r3, r3, #7
   133dc:	e20330ff 	and	r3, r3, #255	; 0xff
   133e0:	e3530000 	cmp	r3, #0
   133e4:	1a00000c 	bne	1341c <HidAttach+0x190>
   133e8:	e51b1020 	ldr	r1, [fp, #-32]	; 0xffffffe0
   133ec:	e51b2024 	ldr	r2, [fp, #-36]	; 0xffffffdc
   133f0:	e1a03002 	mov	r3, r2
   133f4:	e1a03183 	lsl	r3, r3, #3
   133f8:	e0623003 	rsb	r3, r2, r3
   133fc:	e1a03203 	lsl	r3, r3, #4
   13400:	e0813003 	add	r3, r1, r3
   13404:	e283308f 	add	r3, r3, #143	; 0x8f
   13408:	e5d33007 	ldrb	r3, [r3, #7]
   1340c:	e2033003 	and	r3, r3, #3
   13410:	e20330ff 	and	r3, r3, #255	; 0xff
   13414:	e3530003 	cmp	r3, #3
   13418:	0a000001 	beq	13424 <HidAttach+0x198>
   1341c:	e3e03004 	mvn	r3, #4
   13420:	ea000162 	b	139b0 <HidAttach+0x724>
   13424:	e51b3020 	ldr	r3, [fp, #-32]	; 0xffffffe0
   13428:	e5d33005 	ldrb	r3, [r3, #5]
   1342c:	e3530004 	cmp	r3, #4
   13430:	0a000001 	beq	1343c <HidAttach+0x1b0>
   13434:	e3e03003 	mvn	r3, #3
   13438:	ea00015c 	b	139b0 <HidAttach+0x724>
   1343c:	e51b1020 	ldr	r1, [fp, #-32]	; 0xffffffe0
   13440:	e51b2024 	ldr	r2, [fp, #-36]	; 0xffffffdc
   13444:	e1a03002 	mov	r3, r2
   13448:	e1a03183 	lsl	r3, r3, #3
   1344c:	e0833002 	add	r3, r3, r2
   13450:	e0813003 	add	r3, r1, r3
   13454:	e283304a 	add	r3, r3, #74	; 0x4a
   13458:	e5d33000 	ldrb	r3, [r3]
   1345c:	e20330ff 	and	r3, r3, #255	; 0xff
   13460:	e3530001 	cmp	r3, #1
   13464:	1a00001f 	bne	134e8 <HidAttach+0x25c>
   13468:	e51b1020 	ldr	r1, [fp, #-32]	; 0xffffffe0
   1346c:	e51b2024 	ldr	r2, [fp, #-36]	; 0xffffffdc
   13470:	e1a03002 	mov	r3, r2
   13474:	e1a03183 	lsl	r3, r3, #3
   13478:	e0833002 	add	r3, r3, r2
   1347c:	e0813003 	add	r3, r1, r3
   13480:	e283304b 	add	r3, r3, #75	; 0x4b
   13484:	e5d33000 	ldrb	r3, [r3]
   13488:	e20330ff 	and	r3, r3, #255	; 0xff
   1348c:	e3530001 	cmp	r3, #1
   13490:	0a000007 	beq	134b4 <HidAttach+0x228>
   13494:	e51b1020 	ldr	r1, [fp, #-32]	; 0xffffffe0
   13498:	e51b2024 	ldr	r2, [fp, #-36]	; 0xffffffdc
   1349c:	e1a03002 	mov	r3, r2
   134a0:	e1a03183 	lsl	r3, r3, #3
   134a4:	e0833002 	add	r3, r3, r2
   134a8:	e0813003 	add	r3, r1, r3
   134ac:	e283304b 	add	r3, r3, #75	; 0x4b
   134b0:	e5d33000 	ldrb	r3, [r3]
   134b4:	e51b3024 	ldr	r3, [fp, #-36]	; 0xffffffdc
   134b8:	e20330ff 	and	r3, r3, #255	; 0xff
   134bc:	e3a02001 	mov	r2, #1
   134c0:	e1a01003 	mov	r1, r3
   134c4:	e51b0020 	ldr	r0, [fp, #-32]	; 0xffffffe0
   134c8:	ebfff523 	bl	1095c <HidSetProtocol>
   134cc:	e1a03000 	mov	r3, r0
   134d0:	e54b3011 	strb	r3, [fp, #-17]	; 0xffffffef
   134d4:	e15b31d1 	ldrsb	r3, [fp, #-17]	; 0xffffffef
   134d8:	e3530000 	cmp	r3, #0
   134dc:	0a000001 	beq	134e8 <HidAttach+0x25c>
   134e0:	e15b31d1 	ldrsb	r3, [fp, #-17]	; 0xffffffef
   134e4:	ea000131 	b	139b0 <HidAttach+0x724>
   134e8:	e51b3020 	ldr	r3, [fp, #-32]	; 0xffffffe0
   134ec:	e5933410 	ldr	r3, [r3, #1040]	; 0x410
   134f0:	e50b300c 	str	r3, [fp, #-12]
   134f4:	e3a03000 	mov	r3, #0
   134f8:	e50b3008 	str	r3, [fp, #-8]
   134fc:	e51b3024 	ldr	r3, [fp, #-36]	; 0xffffffdc
   13500:	e2833001 	add	r3, r3, #1
   13504:	e50b3018 	str	r3, [fp, #-24]	; 0xffffffe8
   13508:	e51b300c 	ldr	r3, [fp, #-12]
   1350c:	e5d33000 	ldrb	r3, [r3]
   13510:	e3530000 	cmp	r3, #0
   13514:	0a00001b 	beq	13588 <HidAttach+0x2fc>
   13518:	e51b300c 	ldr	r3, [fp, #-12]
   1351c:	e5d33001 	ldrb	r3, [r3, #1]
   13520:	e3530004 	cmp	r3, #4
   13524:	0a000002 	beq	13534 <HidAttach+0x2a8>
   13528:	e3530021 	cmp	r3, #33	; 0x21
   1352c:	0a000004 	beq	13544 <HidAttach+0x2b8>
   13530:	ea00000a 	b	13560 <HidAttach+0x2d4>
   13534:	e51b300c 	ldr	r3, [fp, #-12]
   13538:	e5d33002 	ldrb	r3, [r3, #2]
   1353c:	e50b3018 	str	r3, [fp, #-24]	; 0xffffffe8
   13540:	ea000006 	b	13560 <HidAttach+0x2d4>
   13544:	e51b2018 	ldr	r2, [fp, #-24]	; 0xffffffe8
   13548:	e51b3024 	ldr	r3, [fp, #-36]	; 0xffffffdc
   1354c:	e1520003 	cmp	r2, r3
   13550:	1a000001 	bne	1355c <HidAttach+0x2d0>
   13554:	e51b300c 	ldr	r3, [fp, #-12]
   13558:	e50b3008 	str	r3, [fp, #-8]
   1355c:	e1a00000 	nop			; (mov r0, r0)
   13560:	e51b3008 	ldr	r3, [fp, #-8]
   13564:	e3530000 	cmp	r3, #0
   13568:	1a000008 	bne	13590 <HidAttach+0x304>
   1356c:	e51b300c 	ldr	r3, [fp, #-12]
   13570:	e5d33000 	ldrb	r3, [r3]
   13574:	e1a02003 	mov	r2, r3
   13578:	e51b300c 	ldr	r3, [fp, #-12]
   1357c:	e0833002 	add	r3, r3, r2
   13580:	e50b300c 	str	r3, [fp, #-12]
   13584:	eaffffdf 	b	13508 <HidAttach+0x27c>
   13588:	e1a00000 	nop			; (mov r0, r0)
   1358c:	ea000000 	b	13594 <HidAttach+0x308>
   13590:	e1a00000 	nop			; (mov r0, r0)
   13594:	e51b3008 	ldr	r3, [fp, #-8]
   13598:	e3530000 	cmp	r3, #0
   1359c:	1a000001 	bne	135a8 <HidAttach+0x31c>
   135a0:	e3e03004 	mvn	r3, #4
   135a4:	ea000101 	b	139b0 <HidAttach+0x724>
   135a8:	e51b3008 	ldr	r3, [fp, #-8]
   135ac:	e5d32002 	ldrb	r2, [r3, #2]
   135b0:	e5d33003 	ldrb	r3, [r3, #3]
   135b4:	e1a03403 	lsl	r3, r3, #8
   135b8:	e1833002 	orr	r3, r3, r2
   135bc:	e1a03803 	lsl	r3, r3, #16
   135c0:	e1a03823 	lsr	r3, r3, #16
   135c4:	e59f23f4 	ldr	r2, [pc, #1012]	; 139c0 <HidAttach+0x734>
   135c8:	e1530002 	cmp	r3, r2
   135cc:	9a000001 	bls	135d8 <HidAttach+0x34c>
   135d0:	e3e03004 	mvn	r3, #4
   135d4:	ea0000f5 	b	139b0 <HidAttach+0x724>
   135d8:	e51b3020 	ldr	r3, [fp, #-32]	; 0xffffffe0
   135dc:	e59f23e0 	ldr	r2, [pc, #992]	; 139c4 <HidAttach+0x738>
   135e0:	e5832010 	str	r2, [r3, #16]
   135e4:	e51b3020 	ldr	r3, [fp, #-32]	; 0xffffffe0
   135e8:	e59f23d8 	ldr	r2, [pc, #984]	; 139c8 <HidAttach+0x73c>
   135ec:	e583200c 	str	r2, [r3, #12]
   135f0:	e3a0001c 	mov	r0, #28
   135f4:	ebffde82 	bl	b004 <MemoryAllocate>
   135f8:	e1a02000 	mov	r2, r0
   135fc:	e51b3020 	ldr	r3, [fp, #-32]	; 0xffffffe0
   13600:	e5832414 	str	r2, [r3, #1044]	; 0x414
   13604:	e51b3020 	ldr	r3, [fp, #-32]	; 0xffffffe0
   13608:	e5933414 	ldr	r3, [r3, #1044]	; 0x414
   1360c:	e3530000 	cmp	r3, #0
   13610:	1a000002 	bne	13620 <HidAttach+0x394>
   13614:	e3e03006 	mvn	r3, #6
   13618:	e54b3011 	strb	r3, [fp, #-17]	; 0xffffffef
   1361c:	ea0000db 	b	13990 <HidAttach+0x704>
   13620:	e51b3020 	ldr	r3, [fp, #-32]	; 0xffffffe0
   13624:	e5933414 	ldr	r3, [r3, #1044]	; 0x414
   13628:	e5d32004 	ldrb	r2, [r3, #4]
   1362c:	e3a02000 	mov	r2, #0
   13630:	e382201c 	orr	r2, r2, #28
   13634:	e5c32004 	strb	r2, [r3, #4]
   13638:	e5d32005 	ldrb	r2, [r3, #5]
   1363c:	e3a02000 	mov	r2, #0
   13640:	e5c32005 	strb	r2, [r3, #5]
   13644:	e5d32006 	ldrb	r2, [r3, #6]
   13648:	e3a02000 	mov	r2, #0
   1364c:	e5c32006 	strb	r2, [r3, #6]
   13650:	e5d32007 	ldrb	r2, [r3, #7]
   13654:	e3a02000 	mov	r2, #0
   13658:	e5c32007 	strb	r2, [r3, #7]
   1365c:	e51b3020 	ldr	r3, [fp, #-32]	; 0xffffffe0
   13660:	e5933414 	ldr	r3, [r3, #1044]	; 0x414
   13664:	e5d32000 	ldrb	r2, [r3]
   13668:	e3a02000 	mov	r2, #0
   1366c:	e3822030 	orr	r2, r2, #48	; 0x30
   13670:	e5c32000 	strb	r2, [r3]
   13674:	e5d32001 	ldrb	r2, [r3, #1]
   13678:	e3a02000 	mov	r2, #0
   1367c:	e3822044 	orr	r2, r2, #68	; 0x44
   13680:	e5c32001 	strb	r2, [r3, #1]
   13684:	e5d32002 	ldrb	r2, [r3, #2]
   13688:	e3a02000 	mov	r2, #0
   1368c:	e3822049 	orr	r2, r2, #73	; 0x49
   13690:	e5c32002 	strb	r2, [r3, #2]
   13694:	e5d32003 	ldrb	r2, [r3, #3]
   13698:	e3a02000 	mov	r2, #0
   1369c:	e3822048 	orr	r2, r2, #72	; 0x48
   136a0:	e5c32003 	strb	r2, [r3, #3]
   136a4:	e51b3020 	ldr	r3, [fp, #-32]	; 0xffffffe0
   136a8:	e5933414 	ldr	r3, [r3, #1044]	; 0x414
   136ac:	e50b301c 	str	r3, [fp, #-28]	; 0xffffffe4
   136b0:	e51b301c 	ldr	r3, [fp, #-28]	; 0xffffffe4
   136b4:	e55b2008 	ldrb	r2, [fp, #-8]
   136b8:	e3a01000 	mov	r1, #0
   136bc:	e1812002 	orr	r2, r1, r2
   136c0:	e5c32008 	strb	r2, [r3, #8]
   136c4:	e55b2007 	ldrb	r2, [fp, #-7]
   136c8:	e3a01000 	mov	r1, #0
   136cc:	e1812002 	orr	r2, r1, r2
   136d0:	e5c32009 	strb	r2, [r3, #9]
   136d4:	e55b2006 	ldrb	r2, [fp, #-6]
   136d8:	e3a01000 	mov	r1, #0
   136dc:	e1812002 	orr	r2, r1, r2
   136e0:	e5c3200a 	strb	r2, [r3, #10]
   136e4:	e55b2005 	ldrb	r2, [fp, #-5]
   136e8:	e3a01000 	mov	r1, #0
   136ec:	e1812002 	orr	r2, r1, r2
   136f0:	e5c3200b 	strb	r2, [r3, #11]
   136f4:	e51b301c 	ldr	r3, [fp, #-28]	; 0xffffffe4
   136f8:	e3a02000 	mov	r2, #0
   136fc:	e5c32010 	strb	r2, [r3, #16]
   13700:	e3a02000 	mov	r2, #0
   13704:	e5c32011 	strb	r2, [r3, #17]
   13708:	e3a02000 	mov	r2, #0
   1370c:	e5c32012 	strb	r2, [r3, #18]
   13710:	e3a02000 	mov	r2, #0
   13714:	e5c32013 	strb	r2, [r3, #19]
   13718:	e51b3008 	ldr	r3, [fp, #-8]
   1371c:	e5d32007 	ldrb	r2, [r3, #7]
   13720:	e5d33008 	ldrb	r3, [r3, #8]
   13724:	e1a03403 	lsl	r3, r3, #8
   13728:	e1833002 	orr	r3, r3, r2
   1372c:	e1a03803 	lsl	r3, r3, #16
   13730:	e1a03823 	lsr	r3, r3, #16
   13734:	e1a00003 	mov	r0, r3
   13738:	ebffde31 	bl	b004 <MemoryAllocate>
   1373c:	e50b0010 	str	r0, [fp, #-16]
   13740:	e51b3010 	ldr	r3, [fp, #-16]
   13744:	e3530000 	cmp	r3, #0
   13748:	1a000002 	bne	13758 <HidAttach+0x4cc>
   1374c:	e3e03006 	mvn	r3, #6
   13750:	e54b3011 	strb	r3, [fp, #-17]	; 0xffffffef
   13754:	ea00008d 	b	13990 <HidAttach+0x704>
   13758:	e51b3024 	ldr	r3, [fp, #-36]	; 0xffffffdc
   1375c:	e1a03803 	lsl	r3, r3, #16
   13760:	e1a01823 	lsr	r1, r3, #16
   13764:	e51b3008 	ldr	r3, [fp, #-8]
   13768:	e5d32007 	ldrb	r2, [r3, #7]
   1376c:	e5d33008 	ldrb	r3, [r3, #8]
   13770:	e1a03403 	lsl	r3, r3, #8
   13774:	e1833002 	orr	r3, r3, r2
   13778:	e1a03803 	lsl	r3, r3, #16
   1377c:	e1a03823 	lsr	r3, r3, #16
   13780:	e1a00003 	mov	r0, r3
   13784:	e51b3008 	ldr	r3, [fp, #-8]
   13788:	e5d32007 	ldrb	r2, [r3, #7]
   1378c:	e5d33008 	ldrb	r3, [r3, #8]
   13790:	e1a03403 	lsl	r3, r3, #8
   13794:	e1833002 	orr	r3, r3, r2
   13798:	e1a03803 	lsl	r3, r3, #16
   1379c:	e1a03823 	lsr	r3, r3, #16
   137a0:	e1a02003 	mov	r2, r3
   137a4:	e3a03001 	mov	r3, #1
   137a8:	e58d300c 	str	r3, [sp, #12]
   137ac:	e58d2008 	str	r2, [sp, #8]
   137b0:	e58d0004 	str	r0, [sp, #4]
   137b4:	e51b3010 	ldr	r3, [fp, #-16]
   137b8:	e58d3000 	str	r3, [sp]
   137bc:	e1a03001 	mov	r3, r1
   137c0:	e3a02000 	mov	r2, #0
   137c4:	e3a01022 	mov	r1, #34	; 0x22
   137c8:	e51b0020 	ldr	r0, [fp, #-32]	; 0xffffffe0
   137cc:	ebffe1df 	bl	bf50 <UsbGetDescriptor>
   137d0:	e1a03000 	mov	r3, r0
   137d4:	e54b3011 	strb	r3, [fp, #-17]	; 0xffffffef
   137d8:	e15b31d1 	ldrsb	r3, [fp, #-17]	; 0xffffffef
   137dc:	e3530000 	cmp	r3, #0
   137e0:	0a000002 	beq	137f0 <HidAttach+0x564>
   137e4:	e51b0010 	ldr	r0, [fp, #-16]
   137e8:	ebffe06f 	bl	b9ac <MemoryDeallocate>
   137ec:	ea000067 	b	13990 <HidAttach+0x704>
   137f0:	e51b3008 	ldr	r3, [fp, #-8]
   137f4:	e5d32007 	ldrb	r2, [r3, #7]
   137f8:	e5d33008 	ldrb	r3, [r3, #8]
   137fc:	e1a03403 	lsl	r3, r3, #8
   13800:	e1833002 	orr	r3, r3, r2
   13804:	e1a03803 	lsl	r3, r3, #16
   13808:	e1a03823 	lsr	r3, r3, #16
   1380c:	e1a02003 	mov	r2, r3
   13810:	e51b1010 	ldr	r1, [fp, #-16]
   13814:	e51b0020 	ldr	r0, [fp, #-32]	; 0xffffffe0
   13818:	ebfffc0d 	bl	12854 <HidParseReportDescriptor>
   1381c:	e1a03000 	mov	r3, r0
   13820:	e54b3011 	strb	r3, [fp, #-17]	; 0xffffffef
   13824:	e15b31d1 	ldrsb	r3, [fp, #-17]	; 0xffffffef
   13828:	e3530000 	cmp	r3, #0
   1382c:	0a000002 	beq	1383c <HidAttach+0x5b0>
   13830:	e51b0010 	ldr	r0, [fp, #-16]
   13834:	ebffe05c 	bl	b9ac <MemoryDeallocate>
   13838:	ea000054 	b	13990 <HidAttach+0x704>
   1383c:	e51b0010 	ldr	r0, [fp, #-16]
   13840:	ebffe059 	bl	b9ac <MemoryDeallocate>
   13844:	e3a03000 	mov	r3, #0
   13848:	e50b3010 	str	r3, [fp, #-16]
   1384c:	e51b301c 	ldr	r3, [fp, #-28]	; 0xffffffe4
   13850:	e5d3200c 	ldrb	r2, [r3, #12]
   13854:	e5d3100d 	ldrb	r1, [r3, #13]
   13858:	e1a01401 	lsl	r1, r1, #8
   1385c:	e1812002 	orr	r2, r1, r2
   13860:	e5d3100e 	ldrb	r1, [r3, #14]
   13864:	e1a01801 	lsl	r1, r1, #16
   13868:	e1812002 	orr	r2, r1, r2
   1386c:	e5d3300f 	ldrb	r3, [r3, #15]
   13870:	e1a03c03 	lsl	r3, r3, #24
   13874:	e1833002 	orr	r3, r3, r2
   13878:	e1a02003 	mov	r2, r3
   1387c:	e51b3024 	ldr	r3, [fp, #-36]	; 0xffffffdc
   13880:	e20330ff 	and	r3, r3, #255	; 0xff
   13884:	e5c23005 	strb	r3, [r2, #5]
   13888:	e51b301c 	ldr	r3, [fp, #-28]	; 0xffffffe4
   1388c:	e5d3200c 	ldrb	r2, [r3, #12]
   13890:	e5d3100d 	ldrb	r1, [r3, #13]
   13894:	e1a01401 	lsl	r1, r1, #8
   13898:	e1812002 	orr	r2, r1, r2
   1389c:	e5d3100e 	ldrb	r1, [r3, #14]
   138a0:	e1a01801 	lsl	r1, r1, #16
   138a4:	e1812002 	orr	r2, r1, r2
   138a8:	e5d3300f 	ldrb	r3, [r3, #15]
   138ac:	e1a03c03 	lsl	r3, r3, #24
   138b0:	e1833002 	orr	r3, r3, r2
   138b4:	e1d330b2 	ldrh	r3, [r3, #2]
   138b8:	e3530001 	cmp	r3, #1
   138bc:	1a000031 	bne	13988 <HidAttach+0x6fc>
   138c0:	e51b301c 	ldr	r3, [fp, #-28]	; 0xffffffe4
   138c4:	e5d3200c 	ldrb	r2, [r3, #12]
   138c8:	e5d3100d 	ldrb	r1, [r3, #13]
   138cc:	e1a01401 	lsl	r1, r1, #8
   138d0:	e1812002 	orr	r2, r1, r2
   138d4:	e5d3100e 	ldrb	r1, [r3, #14]
   138d8:	e1a01801 	lsl	r1, r1, #16
   138dc:	e1812002 	orr	r2, r1, r2
   138e0:	e5d3300f 	ldrb	r3, [r3, #15]
   138e4:	e1a03c03 	lsl	r3, r3, #24
   138e8:	e1833002 	orr	r3, r3, r2
   138ec:	e1d330b0 	ldrh	r3, [r3]
   138f0:	e3530009 	cmp	r3, #9
   138f4:	8a000023 	bhi	13988 <HidAttach+0x6fc>
   138f8:	e51b301c 	ldr	r3, [fp, #-28]	; 0xffffffe4
   138fc:	e5d3200c 	ldrb	r2, [r3, #12]
   13900:	e5d3100d 	ldrb	r1, [r3, #13]
   13904:	e1a01401 	lsl	r1, r1, #8
   13908:	e1812002 	orr	r2, r1, r2
   1390c:	e5d3100e 	ldrb	r1, [r3, #14]
   13910:	e1a01801 	lsl	r1, r1, #16
   13914:	e1812002 	orr	r2, r1, r2
   13918:	e5d3300f 	ldrb	r3, [r3, #15]
   1391c:	e1a03c03 	lsl	r3, r3, #24
   13920:	e1833002 	orr	r3, r3, r2
   13924:	e1d330b0 	ldrh	r3, [r3]
   13928:	e1a02003 	mov	r2, r3
   1392c:	e59f3098 	ldr	r3, [pc, #152]	; 139cc <HidAttach+0x740>
   13930:	e7933102 	ldr	r3, [r3, r2, lsl #2]
   13934:	e3530000 	cmp	r3, #0
   13938:	0a000012 	beq	13988 <HidAttach+0x6fc>
   1393c:	e51b301c 	ldr	r3, [fp, #-28]	; 0xffffffe4
   13940:	e5d3200c 	ldrb	r2, [r3, #12]
   13944:	e5d3100d 	ldrb	r1, [r3, #13]
   13948:	e1a01401 	lsl	r1, r1, #8
   1394c:	e1812002 	orr	r2, r1, r2
   13950:	e5d3100e 	ldrb	r1, [r3, #14]
   13954:	e1a01801 	lsl	r1, r1, #16
   13958:	e1812002 	orr	r2, r1, r2
   1395c:	e5d3300f 	ldrb	r3, [r3, #15]
   13960:	e1a03c03 	lsl	r3, r3, #24
   13964:	e1833002 	orr	r3, r3, r2
   13968:	e1d330b0 	ldrh	r3, [r3]
   1396c:	e1a02003 	mov	r2, r3
   13970:	e59f3054 	ldr	r3, [pc, #84]	; 139cc <HidAttach+0x740>
   13974:	e7933102 	ldr	r3, [r3, r2, lsl #2]
   13978:	e51b1024 	ldr	r1, [fp, #-36]	; 0xffffffdc
   1397c:	e51b0020 	ldr	r0, [fp, #-32]	; 0xffffffe0
   13980:	e1a0e00f 	mov	lr, pc
   13984:	e12fff13 	bx	r3
   13988:	e3a03000 	mov	r3, #0
   1398c:	ea000007 	b	139b0 <HidAttach+0x724>
   13990:	e51b3010 	ldr	r3, [fp, #-16]
   13994:	e3530000 	cmp	r3, #0
   13998:	0a000001 	beq	139a4 <HidAttach+0x718>
   1399c:	e51b0010 	ldr	r0, [fp, #-16]
   139a0:	ebffe001 	bl	b9ac <MemoryDeallocate>
   139a4:	e51b0020 	ldr	r0, [fp, #-32]	; 0xffffffe0
   139a8:	ebfffd6a 	bl	12f58 <HidDeallocate>
   139ac:	e15b31d1 	ldrsb	r3, [fp, #-17]	; 0xffffffef
   139b0:	e1a00003 	mov	r0, r3
   139b4:	e24bd004 	sub	sp, fp, #4
   139b8:	e8bd4800 	pop	{fp, lr}
   139bc:	e12fff1e 	bx	lr
   139c0:	00000111 	.word	0x00000111
   139c4:	00012f58 	.word	0x00012f58
   139c8:	00012eb0 	.word	0x00012eb0
   139cc:	00029858 	.word	0x00029858

000139d0 <HidGetFieldValue>:
   139d0:	e92d4800 	push	{fp, lr}
   139d4:	e28db004 	add	fp, sp, #4
   139d8:	e24dd008 	sub	sp, sp, #8
   139dc:	e50b0008 	str	r0, [fp, #-8]
   139e0:	e50b100c 	str	r1, [fp, #-12]
   139e4:	e51b3008 	ldr	r3, [fp, #-8]
   139e8:	e5930028 	ldr	r0, [r3, #40]	; 0x28
   139ec:	e51b3008 	ldr	r3, [fp, #-8]
   139f0:	e5d33000 	ldrb	r3, [r3]
   139f4:	e1a02003 	mov	r2, r3
   139f8:	e51b300c 	ldr	r3, [fp, #-12]
   139fc:	e0010293 	mul	r1, r3, r2
   13a00:	e51b3008 	ldr	r3, [fp, #-8]
   13a04:	e5d33000 	ldrb	r3, [r3]
   13a08:	e1a02003 	mov	r2, r3
   13a0c:	ebfff1da 	bl	1017c <BitGetSigned>
   13a10:	e1a03000 	mov	r3, r0
   13a14:	e1a00003 	mov	r0, r3
   13a18:	e24bd004 	sub	sp, fp, #4
   13a1c:	e8bd4800 	pop	{fp, lr}
   13a20:	e12fff1e 	bx	lr

00013a24 <MouseLoad>:
   13a24:	e52db004 	push	{fp}		; (str fp, [sp, #-4]!)
   13a28:	e28db000 	add	fp, sp, #0
   13a2c:	e24dd00c 	sub	sp, sp, #12
   13a30:	e59f3064 	ldr	r3, [pc, #100]	; 13a9c <MouseLoad+0x78>
   13a34:	e3a02000 	mov	r2, #0
   13a38:	e5832000 	str	r2, [r3]
   13a3c:	e3a03000 	mov	r3, #0
   13a40:	e50b3008 	str	r3, [fp, #-8]
   13a44:	ea00000a 	b	13a74 <MouseLoad+0x50>
   13a48:	e59f2050 	ldr	r2, [pc, #80]	; 13aa0 <MouseLoad+0x7c>
   13a4c:	e51b3008 	ldr	r3, [fp, #-8]
   13a50:	e3a01000 	mov	r1, #0
   13a54:	e7821103 	str	r1, [r2, r3, lsl #2]
   13a58:	e59f2044 	ldr	r2, [pc, #68]	; 13aa4 <MouseLoad+0x80>
   13a5c:	e51b3008 	ldr	r3, [fp, #-8]
   13a60:	e3a01000 	mov	r1, #0
   13a64:	e7821103 	str	r1, [r2, r3, lsl #2]
   13a68:	e51b3008 	ldr	r3, [fp, #-8]
   13a6c:	e2833001 	add	r3, r3, #1
   13a70:	e50b3008 	str	r3, [fp, #-8]
   13a74:	e51b3008 	ldr	r3, [fp, #-8]
   13a78:	e3530003 	cmp	r3, #3
   13a7c:	9afffff1 	bls	13a48 <MouseLoad+0x24>
   13a80:	e59f3020 	ldr	r3, [pc, #32]	; 13aa8 <MouseLoad+0x84>
   13a84:	e59f2020 	ldr	r2, [pc, #32]	; 13aac <MouseLoad+0x88>
   13a88:	e5832008 	str	r2, [r3, #8]
   13a8c:	e1a00000 	nop			; (mov r0, r0)
   13a90:	e24bd000 	sub	sp, fp, #0
   13a94:	e49db004 	pop	{fp}		; (ldr fp, [sp], #4)
   13a98:	e12fff1e 	bx	lr
   13a9c:	00029880 	.word	0x00029880
   13aa0:	00029884 	.word	0x00029884
   13aa4:	00029894 	.word	0x00029894
   13aa8:	00029858 	.word	0x00029858
   13aac:	00013e00 	.word	0x00013e00

00013ab0 <MouseIndex>:
   13ab0:	e52db004 	push	{fp}		; (str fp, [sp, #-4]!)
   13ab4:	e28db000 	add	fp, sp, #0
   13ab8:	e24dd014 	sub	sp, sp, #20
   13abc:	e50b0010 	str	r0, [fp, #-16]
   13ac0:	e51b3010 	ldr	r3, [fp, #-16]
   13ac4:	e3530000 	cmp	r3, #0
   13ac8:	1a000001 	bne	13ad4 <MouseIndex+0x24>
   13acc:	e3e03000 	mvn	r3, #0
   13ad0:	ea000013 	b	13b24 <MouseIndex+0x74>
   13ad4:	e3a03000 	mov	r3, #0
   13ad8:	e50b3008 	str	r3, [fp, #-8]
   13adc:	ea00000a 	b	13b0c <MouseIndex+0x5c>
   13ae0:	e59f204c 	ldr	r2, [pc, #76]	; 13b34 <MouseIndex+0x84>
   13ae4:	e51b3008 	ldr	r3, [fp, #-8]
   13ae8:	e7922103 	ldr	r2, [r2, r3, lsl #2]
   13aec:	e51b3010 	ldr	r3, [fp, #-16]
   13af0:	e1520003 	cmp	r2, r3
   13af4:	1a000001 	bne	13b00 <MouseIndex+0x50>
   13af8:	e51b3008 	ldr	r3, [fp, #-8]
   13afc:	ea000008 	b	13b24 <MouseIndex+0x74>
   13b00:	e51b3008 	ldr	r3, [fp, #-8]
   13b04:	e2833001 	add	r3, r3, #1
   13b08:	e50b3008 	str	r3, [fp, #-8]
   13b0c:	e59f3024 	ldr	r3, [pc, #36]	; 13b38 <MouseIndex+0x88>
   13b10:	e5933000 	ldr	r3, [r3]
   13b14:	e51b2008 	ldr	r2, [fp, #-8]
   13b18:	e1520003 	cmp	r2, r3
   13b1c:	3affffef 	bcc	13ae0 <MouseIndex+0x30>
   13b20:	e3e03000 	mvn	r3, #0
   13b24:	e1a00003 	mov	r0, r3
   13b28:	e24bd000 	sub	sp, fp, #0
   13b2c:	e49db004 	pop	{fp}		; (ldr fp, [sp], #4)
   13b30:	e12fff1e 	bx	lr
   13b34:	00029884 	.word	0x00029884
   13b38:	00029880 	.word	0x00029880

00013b3c <MouseGetAddress>:
   13b3c:	e52db004 	push	{fp}		; (str fp, [sp, #-4]!)
   13b40:	e28db000 	add	fp, sp, #0
   13b44:	e24dd014 	sub	sp, sp, #20
   13b48:	e50b0010 	str	r0, [fp, #-16]
   13b4c:	e59f3084 	ldr	r3, [pc, #132]	; 13bd8 <MouseGetAddress+0x9c>
   13b50:	e5933000 	ldr	r3, [r3]
   13b54:	e51b2010 	ldr	r2, [fp, #-16]
   13b58:	e1520003 	cmp	r2, r3
   13b5c:	9a000001 	bls	13b68 <MouseGetAddress+0x2c>
   13b60:	e3a03000 	mov	r3, #0
   13b64:	ea000017 	b	13bc8 <MouseGetAddress+0x8c>
   13b68:	e3a03000 	mov	r3, #0
   13b6c:	e50b3008 	str	r3, [fp, #-8]
   13b70:	ea000010 	b	13bb8 <MouseGetAddress+0x7c>
   13b74:	e59f2060 	ldr	r2, [pc, #96]	; 13bdc <MouseGetAddress+0xa0>
   13b78:	e51b3008 	ldr	r3, [fp, #-8]
   13b7c:	e7923103 	ldr	r3, [r2, r3, lsl #2]
   13b80:	e3530000 	cmp	r3, #0
   13b84:	0a000008 	beq	13bac <MouseGetAddress+0x70>
   13b88:	e51b3010 	ldr	r3, [fp, #-16]
   13b8c:	e2432001 	sub	r2, r3, #1
   13b90:	e50b2010 	str	r2, [fp, #-16]
   13b94:	e3530000 	cmp	r3, #0
   13b98:	1a000003 	bne	13bac <MouseGetAddress+0x70>
   13b9c:	e59f2038 	ldr	r2, [pc, #56]	; 13bdc <MouseGetAddress+0xa0>
   13ba0:	e51b3008 	ldr	r3, [fp, #-8]
   13ba4:	e7923103 	ldr	r3, [r2, r3, lsl #2]
   13ba8:	ea000006 	b	13bc8 <MouseGetAddress+0x8c>
   13bac:	e51b3008 	ldr	r3, [fp, #-8]
   13bb0:	e2833001 	add	r3, r3, #1
   13bb4:	e50b3008 	str	r3, [fp, #-8]
   13bb8:	e51b3008 	ldr	r3, [fp, #-8]
   13bbc:	e3530003 	cmp	r3, #3
   13bc0:	9affffeb 	bls	13b74 <MouseGetAddress+0x38>
   13bc4:	e3a03000 	mov	r3, #0
   13bc8:	e1a00003 	mov	r0, r3
   13bcc:	e24bd000 	sub	sp, fp, #0
   13bd0:	e49db004 	pop	{fp}		; (ldr fp, [sp], #4)
   13bd4:	e12fff1e 	bx	lr
   13bd8:	00029880 	.word	0x00029880
   13bdc:	00029884 	.word	0x00029884

00013be0 <MouseDetached>:
   13be0:	e52db004 	push	{fp}		; (str fp, [sp, #-4]!)
   13be4:	e28db000 	add	fp, sp, #0
   13be8:	e24dd014 	sub	sp, sp, #20
   13bec:	e50b0010 	str	r0, [fp, #-16]
   13bf0:	e51b3010 	ldr	r3, [fp, #-16]
   13bf4:	e5933414 	ldr	r3, [r3, #1044]	; 0x414
   13bf8:	e5d32010 	ldrb	r2, [r3, #16]
   13bfc:	e5d31011 	ldrb	r1, [r3, #17]
   13c00:	e1a01401 	lsl	r1, r1, #8
   13c04:	e1812002 	orr	r2, r1, r2
   13c08:	e5d31012 	ldrb	r1, [r3, #18]
   13c0c:	e1a01801 	lsl	r1, r1, #16
   13c10:	e1812002 	orr	r2, r1, r2
   13c14:	e5d33013 	ldrb	r3, [r3, #19]
   13c18:	e1a03c03 	lsl	r3, r3, #24
   13c1c:	e1833002 	orr	r3, r3, r2
   13c20:	e50b3008 	str	r3, [fp, #-8]
   13c24:	e51b3008 	ldr	r3, [fp, #-8]
   13c28:	e3530000 	cmp	r3, #0
   13c2c:	0a000034 	beq	13d04 <MouseDetached+0x124>
   13c30:	e51b3008 	ldr	r3, [fp, #-8]
   13c34:	e5d32008 	ldrb	r2, [r3, #8]
   13c38:	e5d31009 	ldrb	r1, [r3, #9]
   13c3c:	e1a01401 	lsl	r1, r1, #8
   13c40:	e1812002 	orr	r2, r1, r2
   13c44:	e5d3100a 	ldrb	r1, [r3, #10]
   13c48:	e1a01801 	lsl	r1, r1, #16
   13c4c:	e1812002 	orr	r2, r1, r2
   13c50:	e5d3300b 	ldrb	r3, [r3, #11]
   13c54:	e1a03c03 	lsl	r3, r3, #24
   13c58:	e1833002 	orr	r3, r3, r2
   13c5c:	e1a02003 	mov	r2, r3
   13c60:	e59f30ac 	ldr	r3, [pc, #172]	; 13d14 <MouseDetached+0x134>
   13c64:	e7932102 	ldr	r2, [r3, r2, lsl #2]
   13c68:	e51b3010 	ldr	r3, [fp, #-16]
   13c6c:	e5933000 	ldr	r3, [r3]
   13c70:	e1520003 	cmp	r2, r3
   13c74:	1a000022 	bne	13d04 <MouseDetached+0x124>
   13c78:	e51b3008 	ldr	r3, [fp, #-8]
   13c7c:	e5d32008 	ldrb	r2, [r3, #8]
   13c80:	e5d31009 	ldrb	r1, [r3, #9]
   13c84:	e1a01401 	lsl	r1, r1, #8
   13c88:	e1812002 	orr	r2, r1, r2
   13c8c:	e5d3100a 	ldrb	r1, [r3, #10]
   13c90:	e1a01801 	lsl	r1, r1, #16
   13c94:	e1812002 	orr	r2, r1, r2
   13c98:	e5d3300b 	ldrb	r3, [r3, #11]
   13c9c:	e1a03c03 	lsl	r3, r3, #24
   13ca0:	e1833002 	orr	r3, r3, r2
   13ca4:	e1a01003 	mov	r1, r3
   13ca8:	e59f3064 	ldr	r3, [pc, #100]	; 13d14 <MouseDetached+0x134>
   13cac:	e3a02000 	mov	r2, #0
   13cb0:	e7832101 	str	r2, [r3, r1, lsl #2]
   13cb4:	e59f305c 	ldr	r3, [pc, #92]	; 13d18 <MouseDetached+0x138>
   13cb8:	e5933000 	ldr	r3, [r3]
   13cbc:	e2433001 	sub	r3, r3, #1
   13cc0:	e59f2050 	ldr	r2, [pc, #80]	; 13d18 <MouseDetached+0x138>
   13cc4:	e5823000 	str	r3, [r2]
   13cc8:	e51b3008 	ldr	r3, [fp, #-8]
   13ccc:	e5d32008 	ldrb	r2, [r3, #8]
   13cd0:	e5d31009 	ldrb	r1, [r3, #9]
   13cd4:	e1a01401 	lsl	r1, r1, #8
   13cd8:	e1812002 	orr	r2, r1, r2
   13cdc:	e5d3100a 	ldrb	r1, [r3, #10]
   13ce0:	e1a01801 	lsl	r1, r1, #16
   13ce4:	e1812002 	orr	r2, r1, r2
   13ce8:	e5d3300b 	ldrb	r3, [r3, #11]
   13cec:	e1a03c03 	lsl	r3, r3, #24
   13cf0:	e1833002 	orr	r3, r3, r2
   13cf4:	e1a01003 	mov	r1, r3
   13cf8:	e59f301c 	ldr	r3, [pc, #28]	; 13d1c <MouseDetached+0x13c>
   13cfc:	e3a02000 	mov	r2, #0
   13d00:	e7832101 	str	r2, [r3, r1, lsl #2]
   13d04:	e1a00000 	nop			; (mov r0, r0)
   13d08:	e24bd000 	sub	sp, fp, #0
   13d0c:	e49db004 	pop	{fp}		; (ldr fp, [sp], #4)
   13d10:	e12fff1e 	bx	lr
   13d14:	00029884 	.word	0x00029884
   13d18:	00029880 	.word	0x00029880
   13d1c:	00029894 	.word	0x00029894

00013d20 <MouseDeallocate>:
   13d20:	e92d4800 	push	{fp, lr}
   13d24:	e28db004 	add	fp, sp, #4
   13d28:	e24dd010 	sub	sp, sp, #16
   13d2c:	e50b0010 	str	r0, [fp, #-16]
   13d30:	e51b3010 	ldr	r3, [fp, #-16]
   13d34:	e5933414 	ldr	r3, [r3, #1044]	; 0x414
   13d38:	e5d32010 	ldrb	r2, [r3, #16]
   13d3c:	e5d31011 	ldrb	r1, [r3, #17]
   13d40:	e1a01401 	lsl	r1, r1, #8
   13d44:	e1812002 	orr	r2, r1, r2
   13d48:	e5d31012 	ldrb	r1, [r3, #18]
   13d4c:	e1a01801 	lsl	r1, r1, #16
   13d50:	e1812002 	orr	r2, r1, r2
   13d54:	e5d33013 	ldrb	r3, [r3, #19]
   13d58:	e1a03c03 	lsl	r3, r3, #24
   13d5c:	e1833002 	orr	r3, r3, r2
   13d60:	e50b3008 	str	r3, [fp, #-8]
   13d64:	e51b3008 	ldr	r3, [fp, #-8]
   13d68:	e3530000 	cmp	r3, #0
   13d6c:	0a00000b 	beq	13da0 <MouseDeallocate+0x80>
   13d70:	e51b0008 	ldr	r0, [fp, #-8]
   13d74:	ebffdf0c 	bl	b9ac <MemoryDeallocate>
   13d78:	e51b3010 	ldr	r3, [fp, #-16]
   13d7c:	e5933414 	ldr	r3, [r3, #1044]	; 0x414
   13d80:	e3a02000 	mov	r2, #0
   13d84:	e5c32010 	strb	r2, [r3, #16]
   13d88:	e3a02000 	mov	r2, #0
   13d8c:	e5c32011 	strb	r2, [r3, #17]
   13d90:	e3a02000 	mov	r2, #0
   13d94:	e5c32012 	strb	r2, [r3, #18]
   13d98:	e3a02000 	mov	r2, #0
   13d9c:	e5c32013 	strb	r2, [r3, #19]
   13da0:	e51b3010 	ldr	r3, [fp, #-16]
   13da4:	e5933414 	ldr	r3, [r3, #1044]	; 0x414
   13da8:	e3a02000 	mov	r2, #0
   13dac:	e5c32018 	strb	r2, [r3, #24]
   13db0:	e3a02000 	mov	r2, #0
   13db4:	e5c32019 	strb	r2, [r3, #25]
   13db8:	e3a02000 	mov	r2, #0
   13dbc:	e5c3201a 	strb	r2, [r3, #26]
   13dc0:	e3a02000 	mov	r2, #0
   13dc4:	e5c3201b 	strb	r2, [r3, #27]
   13dc8:	e51b3010 	ldr	r3, [fp, #-16]
   13dcc:	e5933414 	ldr	r3, [r3, #1044]	; 0x414
   13dd0:	e3a02000 	mov	r2, #0
   13dd4:	e5c32014 	strb	r2, [r3, #20]
   13dd8:	e3a02000 	mov	r2, #0
   13ddc:	e5c32015 	strb	r2, [r3, #21]
   13de0:	e3a02000 	mov	r2, #0
   13de4:	e5c32016 	strb	r2, [r3, #22]
   13de8:	e3a02000 	mov	r2, #0
   13dec:	e5c32017 	strb	r2, [r3, #23]
   13df0:	e1a00000 	nop			; (mov r0, r0)
   13df4:	e24bd004 	sub	sp, fp, #4
   13df8:	e8bd4800 	pop	{fp, lr}
   13dfc:	e12fff1e 	bx	lr

00013e00 <MouseAttach>:
   13e00:	e92d4800 	push	{fp, lr}
   13e04:	e28db004 	add	fp, sp, #4
   13e08:	e24dd020 	sub	sp, sp, #32
   13e0c:	e50b0020 	str	r0, [fp, #-32]	; 0xffffffe0
   13e10:	e50b1024 	str	r1, [fp, #-36]	; 0xffffffdc
   13e14:	e59f34bc 	ldr	r3, [pc, #1212]	; 142d8 <MouseAttach+0x4d8>
   13e18:	e5933000 	ldr	r3, [r3]
   13e1c:	e3530004 	cmp	r3, #4
   13e20:	1a000001 	bne	13e2c <MouseAttach+0x2c>
   13e24:	e3e03004 	mvn	r3, #4
   13e28:	ea000126 	b	142c8 <MouseAttach+0x4c8>
   13e2c:	e51b3020 	ldr	r3, [fp, #-32]	; 0xffffffe0
   13e30:	e5933414 	ldr	r3, [r3, #1044]	; 0x414
   13e34:	e50b3014 	str	r3, [fp, #-20]	; 0xffffffec
   13e38:	e51b3014 	ldr	r3, [fp, #-20]	; 0xffffffec
   13e3c:	e5d32000 	ldrb	r2, [r3]
   13e40:	e5d31001 	ldrb	r1, [r3, #1]
   13e44:	e1a01401 	lsl	r1, r1, #8
   13e48:	e1812002 	orr	r2, r1, r2
   13e4c:	e5d31002 	ldrb	r1, [r3, #2]
   13e50:	e1a01801 	lsl	r1, r1, #16
   13e54:	e1812002 	orr	r2, r1, r2
   13e58:	e5d33003 	ldrb	r3, [r3, #3]
   13e5c:	e1a03c03 	lsl	r3, r3, #24
   13e60:	e1833002 	orr	r3, r3, r2
   13e64:	e1a02003 	mov	r2, r3
   13e68:	e59f346c 	ldr	r3, [pc, #1132]	; 142dc <MouseAttach+0x4dc>
   13e6c:	e1520003 	cmp	r2, r3
   13e70:	0a000001 	beq	13e7c <MouseAttach+0x7c>
   13e74:	e3e03004 	mvn	r3, #4
   13e78:	ea000112 	b	142c8 <MouseAttach+0x4c8>
   13e7c:	e51b3014 	ldr	r3, [fp, #-20]	; 0xffffffec
   13e80:	e5d3200c 	ldrb	r2, [r3, #12]
   13e84:	e5d3100d 	ldrb	r1, [r3, #13]
   13e88:	e1a01401 	lsl	r1, r1, #8
   13e8c:	e1812002 	orr	r2, r1, r2
   13e90:	e5d3100e 	ldrb	r1, [r3, #14]
   13e94:	e1a01801 	lsl	r1, r1, #16
   13e98:	e1812002 	orr	r2, r1, r2
   13e9c:	e5d3300f 	ldrb	r3, [r3, #15]
   13ea0:	e1a03c03 	lsl	r3, r3, #24
   13ea4:	e1833002 	orr	r3, r3, r2
   13ea8:	e50b3018 	str	r3, [fp, #-24]	; 0xffffffe8
   13eac:	e51b3018 	ldr	r3, [fp, #-24]	; 0xffffffe8
   13eb0:	e1d330b2 	ldrh	r3, [r3, #2]
   13eb4:	e3530001 	cmp	r3, #1
   13eb8:	1a000003 	bne	13ecc <MouseAttach+0xcc>
   13ebc:	e51b3018 	ldr	r3, [fp, #-24]	; 0xffffffe8
   13ec0:	e1d330b0 	ldrh	r3, [r3]
   13ec4:	e3530002 	cmp	r3, #2
   13ec8:	0a000001 	beq	13ed4 <MouseAttach+0xd4>
   13ecc:	e3e03004 	mvn	r3, #4
   13ed0:	ea0000fc 	b	142c8 <MouseAttach+0x4c8>
   13ed4:	e51b3018 	ldr	r3, [fp, #-24]	; 0xffffffe8
   13ed8:	e5d33004 	ldrb	r3, [r3, #4]
   13edc:	e3530000 	cmp	r3, #0
   13ee0:	1a000001 	bne	13eec <MouseAttach+0xec>
   13ee4:	e3e03004 	mvn	r3, #4
   13ee8:	ea0000f6 	b	142c8 <MouseAttach+0x4c8>
   13eec:	e51b3014 	ldr	r3, [fp, #-20]	; 0xffffffec
   13ef0:	e59f23e8 	ldr	r2, [pc, #1000]	; 142e0 <MouseAttach+0x4e0>
   13ef4:	e20210ff 	and	r1, r2, #255	; 0xff
   13ef8:	e3a00000 	mov	r0, #0
   13efc:	e1801001 	orr	r1, r0, r1
   13f00:	e5c31014 	strb	r1, [r3, #20]
   13f04:	e1a01422 	lsr	r1, r2, #8
   13f08:	e20110ff 	and	r1, r1, #255	; 0xff
   13f0c:	e3a00000 	mov	r0, #0
   13f10:	e1801001 	orr	r1, r0, r1
   13f14:	e5c31015 	strb	r1, [r3, #21]
   13f18:	e1a01822 	lsr	r1, r2, #16
   13f1c:	e20110ff 	and	r1, r1, #255	; 0xff
   13f20:	e3a00000 	mov	r0, #0
   13f24:	e1801001 	orr	r1, r0, r1
   13f28:	e5c31016 	strb	r1, [r3, #22]
   13f2c:	e1a02c22 	lsr	r2, r2, #24
   13f30:	e3a01000 	mov	r1, #0
   13f34:	e1812002 	orr	r2, r1, r2
   13f38:	e5c32017 	strb	r2, [r3, #23]
   13f3c:	e51b3014 	ldr	r3, [fp, #-20]	; 0xffffffec
   13f40:	e59f239c 	ldr	r2, [pc, #924]	; 142e4 <MouseAttach+0x4e4>
   13f44:	e20210ff 	and	r1, r2, #255	; 0xff
   13f48:	e3a00000 	mov	r0, #0
   13f4c:	e1801001 	orr	r1, r0, r1
   13f50:	e5c31018 	strb	r1, [r3, #24]
   13f54:	e1a01422 	lsr	r1, r2, #8
   13f58:	e20110ff 	and	r1, r1, #255	; 0xff
   13f5c:	e3a00000 	mov	r0, #0
   13f60:	e1801001 	orr	r1, r0, r1
   13f64:	e5c31019 	strb	r1, [r3, #25]
   13f68:	e1a01822 	lsr	r1, r2, #16
   13f6c:	e20110ff 	and	r1, r1, #255	; 0xff
   13f70:	e3a00000 	mov	r0, #0
   13f74:	e1801001 	orr	r1, r0, r1
   13f78:	e5c3101a 	strb	r1, [r3, #26]
   13f7c:	e1a02c22 	lsr	r2, r2, #24
   13f80:	e3a01000 	mov	r1, #0
   13f84:	e1812002 	orr	r2, r1, r2
   13f88:	e5c3201b 	strb	r2, [r3, #27]
   13f8c:	e3a00017 	mov	r0, #23
   13f90:	ebffdc1b 	bl	b004 <MemoryAllocate>
   13f94:	e1a02000 	mov	r2, r0
   13f98:	e51b3014 	ldr	r3, [fp, #-20]	; 0xffffffec
   13f9c:	e20210ff 	and	r1, r2, #255	; 0xff
   13fa0:	e3a00000 	mov	r0, #0
   13fa4:	e1801001 	orr	r1, r0, r1
   13fa8:	e5c31010 	strb	r1, [r3, #16]
   13fac:	e1a01422 	lsr	r1, r2, #8
   13fb0:	e20110ff 	and	r1, r1, #255	; 0xff
   13fb4:	e3a00000 	mov	r0, #0
   13fb8:	e1801001 	orr	r1, r0, r1
   13fbc:	e5c31011 	strb	r1, [r3, #17]
   13fc0:	e1a01822 	lsr	r1, r2, #16
   13fc4:	e20110ff 	and	r1, r1, #255	; 0xff
   13fc8:	e3a00000 	mov	r0, #0
   13fcc:	e1801001 	orr	r1, r0, r1
   13fd0:	e5c31012 	strb	r1, [r3, #18]
   13fd4:	e1a02c22 	lsr	r2, r2, #24
   13fd8:	e3a01000 	mov	r1, #0
   13fdc:	e1812002 	orr	r2, r1, r2
   13fe0:	e5c32013 	strb	r2, [r3, #19]
   13fe4:	e51b3014 	ldr	r3, [fp, #-20]	; 0xffffffec
   13fe8:	e5d32010 	ldrb	r2, [r3, #16]
   13fec:	e5d31011 	ldrb	r1, [r3, #17]
   13ff0:	e1a01401 	lsl	r1, r1, #8
   13ff4:	e1812002 	orr	r2, r1, r2
   13ff8:	e5d31012 	ldrb	r1, [r3, #18]
   13ffc:	e1a01801 	lsl	r1, r1, #16
   14000:	e1812002 	orr	r2, r1, r2
   14004:	e5d33013 	ldrb	r3, [r3, #19]
   14008:	e1a03c03 	lsl	r3, r3, #24
   1400c:	e1833002 	orr	r3, r3, r2
   14010:	e3530000 	cmp	r3, #0
   14014:	1a000001 	bne	14020 <MouseAttach+0x220>
   14018:	e3e03006 	mvn	r3, #6
   1401c:	ea0000a9 	b	142c8 <MouseAttach+0x4c8>
   14020:	e51b3014 	ldr	r3, [fp, #-20]	; 0xffffffec
   14024:	e5d32010 	ldrb	r2, [r3, #16]
   14028:	e5d31011 	ldrb	r1, [r3, #17]
   1402c:	e1a01401 	lsl	r1, r1, #8
   14030:	e1812002 	orr	r2, r1, r2
   14034:	e5d31012 	ldrb	r1, [r3, #18]
   14038:	e1a01801 	lsl	r1, r1, #16
   1403c:	e1812002 	orr	r2, r1, r2
   14040:	e5d33013 	ldrb	r3, [r3, #19]
   14044:	e1a03c03 	lsl	r3, r3, #24
   14048:	e1833002 	orr	r3, r3, r2
   1404c:	e50b301c 	str	r3, [fp, #-28]	; 0xffffffe4
   14050:	e51b301c 	ldr	r3, [fp, #-28]	; 0xffffffe4
   14054:	e3a02000 	mov	r2, #0
   14058:	e3822031 	orr	r2, r2, #49	; 0x31
   1405c:	e5c32000 	strb	r2, [r3]
   14060:	e3a02000 	mov	r2, #0
   14064:	e3822044 	orr	r2, r2, #68	; 0x44
   14068:	e5c32001 	strb	r2, [r3, #1]
   1406c:	e3a02000 	mov	r2, #0
   14070:	e3822042 	orr	r2, r2, #66	; 0x42
   14074:	e5c32002 	strb	r2, [r3, #2]
   14078:	e3a02000 	mov	r2, #0
   1407c:	e382204b 	orr	r2, r2, #75	; 0x4b
   14080:	e5c32003 	strb	r2, [r3, #3]
   14084:	e51b301c 	ldr	r3, [fp, #-28]	; 0xffffffe4
   14088:	e3a02000 	mov	r2, #0
   1408c:	e3822017 	orr	r2, r2, #23
   14090:	e5c32004 	strb	r2, [r3, #4]
   14094:	e3a02000 	mov	r2, #0
   14098:	e5c32005 	strb	r2, [r3, #5]
   1409c:	e3a02000 	mov	r2, #0
   140a0:	e5c32006 	strb	r2, [r3, #6]
   140a4:	e3a02000 	mov	r2, #0
   140a8:	e5c32007 	strb	r2, [r3, #7]
   140ac:	e3e03000 	mvn	r3, #0
   140b0:	e50b3008 	str	r3, [fp, #-8]
   140b4:	e51b301c 	ldr	r3, [fp, #-28]	; 0xffffffe4
   140b8:	e55b2008 	ldrb	r2, [fp, #-8]
   140bc:	e3a01000 	mov	r1, #0
   140c0:	e1812002 	orr	r2, r1, r2
   140c4:	e5c32008 	strb	r2, [r3, #8]
   140c8:	e55b2007 	ldrb	r2, [fp, #-7]
   140cc:	e3a01000 	mov	r1, #0
   140d0:	e1812002 	orr	r2, r1, r2
   140d4:	e5c32009 	strb	r2, [r3, #9]
   140d8:	e55b2006 	ldrb	r2, [fp, #-6]
   140dc:	e3a01000 	mov	r1, #0
   140e0:	e1812002 	orr	r2, r1, r2
   140e4:	e5c3200a 	strb	r2, [r3, #10]
   140e8:	e55b2005 	ldrb	r2, [fp, #-5]
   140ec:	e3a01000 	mov	r1, #0
   140f0:	e1812002 	orr	r2, r1, r2
   140f4:	e5c3200b 	strb	r2, [r3, #11]
   140f8:	e3a03000 	mov	r3, #0
   140fc:	e50b300c 	str	r3, [fp, #-12]
   14100:	ea000025 	b	1419c <MouseAttach+0x39c>
   14104:	e59f21dc 	ldr	r2, [pc, #476]	; 142e8 <MouseAttach+0x4e8>
   14108:	e51b300c 	ldr	r3, [fp, #-12]
   1410c:	e7923103 	ldr	r3, [r2, r3, lsl #2]
   14110:	e3530000 	cmp	r3, #0
   14114:	1a00001d 	bne	14190 <MouseAttach+0x390>
   14118:	e51b300c 	ldr	r3, [fp, #-12]
   1411c:	e50b3008 	str	r3, [fp, #-8]
   14120:	e51b301c 	ldr	r3, [fp, #-28]	; 0xffffffe4
   14124:	e55b2008 	ldrb	r2, [fp, #-8]
   14128:	e3a01000 	mov	r1, #0
   1412c:	e1812002 	orr	r2, r1, r2
   14130:	e5c32008 	strb	r2, [r3, #8]
   14134:	e55b2007 	ldrb	r2, [fp, #-7]
   14138:	e3a01000 	mov	r1, #0
   1413c:	e1812002 	orr	r2, r1, r2
   14140:	e5c32009 	strb	r2, [r3, #9]
   14144:	e55b2006 	ldrb	r2, [fp, #-6]
   14148:	e3a01000 	mov	r1, #0
   1414c:	e1812002 	orr	r2, r1, r2
   14150:	e5c3200a 	strb	r2, [r3, #10]
   14154:	e55b2005 	ldrb	r2, [fp, #-5]
   14158:	e3a01000 	mov	r1, #0
   1415c:	e1812002 	orr	r2, r1, r2
   14160:	e5c3200b 	strb	r2, [r3, #11]
   14164:	e51b3020 	ldr	r3, [fp, #-32]	; 0xffffffe0
   14168:	e5932000 	ldr	r2, [r3]
   1416c:	e59f1174 	ldr	r1, [pc, #372]	; 142e8 <MouseAttach+0x4e8>
   14170:	e51b300c 	ldr	r3, [fp, #-12]
   14174:	e7812103 	str	r2, [r1, r3, lsl #2]
   14178:	e59f3158 	ldr	r3, [pc, #344]	; 142d8 <MouseAttach+0x4d8>
   1417c:	e5933000 	ldr	r3, [r3]
   14180:	e2833001 	add	r3, r3, #1
   14184:	e59f214c 	ldr	r2, [pc, #332]	; 142d8 <MouseAttach+0x4d8>
   14188:	e5823000 	str	r3, [r2]
   1418c:	ea000005 	b	141a8 <MouseAttach+0x3a8>
   14190:	e51b300c 	ldr	r3, [fp, #-12]
   14194:	e2833001 	add	r3, r3, #1
   14198:	e50b300c 	str	r3, [fp, #-12]
   1419c:	e51b300c 	ldr	r3, [fp, #-12]
   141a0:	e3530003 	cmp	r3, #3
   141a4:	9affffd6 	bls	14104 <MouseAttach+0x304>
   141a8:	e51b3008 	ldr	r3, [fp, #-8]
   141ac:	e3730001 	cmn	r3, #1
   141b0:	1a000003 	bne	141c4 <MouseAttach+0x3c4>
   141b4:	e51b0020 	ldr	r0, [fp, #-32]	; 0xffffffe0
   141b8:	ebfffed8 	bl	13d20 <MouseDeallocate>
   141bc:	e3e03000 	mvn	r3, #0
   141c0:	ea000040 	b	142c8 <MouseAttach+0x4c8>
   141c4:	e59f1120 	ldr	r1, [pc, #288]	; 142ec <MouseAttach+0x4ec>
   141c8:	e51b3008 	ldr	r3, [fp, #-8]
   141cc:	e51b2020 	ldr	r2, [fp, #-32]	; 0xffffffe0
   141d0:	e7812103 	str	r2, [r1, r3, lsl #2]
   141d4:	e3a03000 	mov	r3, #0
   141d8:	e50b3010 	str	r3, [fp, #-16]
   141dc:	ea000020 	b	14264 <MouseAttach+0x464>
   141e0:	e51b3018 	ldr	r3, [fp, #-24]	; 0xffffffe8
   141e4:	e51b2010 	ldr	r2, [fp, #-16]
   141e8:	e2822002 	add	r2, r2, #2
   141ec:	e7933102 	ldr	r3, [r3, r2, lsl #2]
   141f0:	e5d33003 	ldrb	r3, [r3, #3]
   141f4:	e3530001 	cmp	r3, #1
   141f8:	1a000016 	bne	14258 <MouseAttach+0x458>
   141fc:	e51b3018 	ldr	r3, [fp, #-24]	; 0xffffffe8
   14200:	e51b2010 	ldr	r2, [fp, #-16]
   14204:	e2822002 	add	r2, r2, #2
   14208:	e7932102 	ldr	r2, [r3, r2, lsl #2]
   1420c:	e51b301c 	ldr	r3, [fp, #-28]	; 0xffffffe4
   14210:	e20210ff 	and	r1, r2, #255	; 0xff
   14214:	e3a00000 	mov	r0, #0
   14218:	e1801001 	orr	r1, r0, r1
   1421c:	e5c31013 	strb	r1, [r3, #19]
   14220:	e1a01422 	lsr	r1, r2, #8
   14224:	e20110ff 	and	r1, r1, #255	; 0xff
   14228:	e3a00000 	mov	r0, #0
   1422c:	e1801001 	orr	r1, r0, r1
   14230:	e5c31014 	strb	r1, [r3, #20]
   14234:	e1a01822 	lsr	r1, r2, #16
   14238:	e20110ff 	and	r1, r1, #255	; 0xff
   1423c:	e3a00000 	mov	r0, #0
   14240:	e1801001 	orr	r1, r0, r1
   14244:	e5c31015 	strb	r1, [r3, #21]
   14248:	e1a02c22 	lsr	r2, r2, #24
   1424c:	e3a01000 	mov	r1, #0
   14250:	e1812002 	orr	r2, r1, r2
   14254:	e5c32016 	strb	r2, [r3, #22]
   14258:	e51b3010 	ldr	r3, [fp, #-16]
   1425c:	e2833001 	add	r3, r3, #1
   14260:	e50b3010 	str	r3, [fp, #-16]
   14264:	e51b3018 	ldr	r3, [fp, #-24]	; 0xffffffe8
   14268:	e5d33004 	ldrb	r3, [r3, #4]
   1426c:	e1a02003 	mov	r2, r3
   14270:	e51b3010 	ldr	r3, [fp, #-16]
   14274:	e1520003 	cmp	r2, r3
   14278:	8affffd8 	bhi	141e0 <MouseAttach+0x3e0>
   1427c:	e51b301c 	ldr	r3, [fp, #-28]	; 0xffffffe4
   14280:	e3a02000 	mov	r2, #0
   14284:	e5c3200d 	strb	r2, [r3, #13]
   14288:	e3a02000 	mov	r2, #0
   1428c:	e5c3200e 	strb	r2, [r3, #14]
   14290:	e51b301c 	ldr	r3, [fp, #-28]	; 0xffffffe4
   14294:	e3a02000 	mov	r2, #0
   14298:	e5c3200f 	strb	r2, [r3, #15]
   1429c:	e3a02000 	mov	r2, #0
   142a0:	e5c32010 	strb	r2, [r3, #16]
   142a4:	e51b301c 	ldr	r3, [fp, #-28]	; 0xffffffe4
   142a8:	e3a02000 	mov	r2, #0
   142ac:	e5c32011 	strb	r2, [r3, #17]
   142b0:	e3a02000 	mov	r2, #0
   142b4:	e5c32012 	strb	r2, [r3, #18]
   142b8:	e51b301c 	ldr	r3, [fp, #-28]	; 0xffffffe4
   142bc:	e3a02000 	mov	r2, #0
   142c0:	e5c3200c 	strb	r2, [r3, #12]
   142c4:	e3a03000 	mov	r3, #0
   142c8:	e1a00003 	mov	r0, r3
   142cc:	e24bd004 	sub	sp, fp, #4
   142d0:	e8bd4800 	pop	{fp, lr}
   142d4:	e12fff1e 	bx	lr
   142d8:	00029880 	.word	0x00029880
   142dc:	48494430 	.word	0x48494430
   142e0:	00013be0 	.word	0x00013be0
   142e4:	00013d20 	.word	0x00013d20
   142e8:	00029884 	.word	0x00029884
   142ec:	00029894 	.word	0x00029894

000142f0 <MouseCount>:
   142f0:	e52db004 	push	{fp}		; (str fp, [sp, #-4]!)
   142f4:	e28db000 	add	fp, sp, #0
   142f8:	e59f3010 	ldr	r3, [pc, #16]	; 14310 <MouseCount+0x20>
   142fc:	e5933000 	ldr	r3, [r3]
   14300:	e1a00003 	mov	r0, r3
   14304:	e24bd000 	sub	sp, fp, #0
   14308:	e49db004 	pop	{fp}		; (ldr fp, [sp], #4)
   1430c:	e12fff1e 	bx	lr
   14310:	00029880 	.word	0x00029880

00014314 <MousePoll>:
   14314:	e92d4800 	push	{fp, lr}
   14318:	e28db004 	add	fp, sp, #4
   1431c:	e24dd020 	sub	sp, sp, #32
   14320:	e50b0020 	str	r0, [fp, #-32]	; 0xffffffe0
   14324:	e51b0020 	ldr	r0, [fp, #-32]	; 0xffffffe0
   14328:	ebfffde0 	bl	13ab0 <MouseIndex>
   1432c:	e50b0008 	str	r0, [fp, #-8]
   14330:	e51b3008 	ldr	r3, [fp, #-8]
   14334:	e3730001 	cmn	r3, #1
   14338:	1a000001 	bne	14344 <MousePoll+0x30>
   1433c:	e3e03008 	mvn	r3, #8
   14340:	ea0000d4 	b	14698 <MousePoll+0x384>
   14344:	e59f235c 	ldr	r2, [pc, #860]	; 146a8 <MousePoll+0x394>
   14348:	e51b3008 	ldr	r3, [fp, #-8]
   1434c:	e7923103 	ldr	r3, [r2, r3, lsl #2]
   14350:	e5933414 	ldr	r3, [r3, #1044]	; 0x414
   14354:	e5d32010 	ldrb	r2, [r3, #16]
   14358:	e5d31011 	ldrb	r1, [r3, #17]
   1435c:	e1a01401 	lsl	r1, r1, #8
   14360:	e1812002 	orr	r2, r1, r2
   14364:	e5d31012 	ldrb	r1, [r3, #18]
   14368:	e1a01801 	lsl	r1, r1, #16
   1436c:	e1812002 	orr	r2, r1, r2
   14370:	e5d33013 	ldrb	r3, [r3, #19]
   14374:	e1a03c03 	lsl	r3, r3, #24
   14378:	e1833002 	orr	r3, r3, r2
   1437c:	e50b300c 	str	r3, [fp, #-12]
   14380:	e59f2320 	ldr	r2, [pc, #800]	; 146a8 <MousePoll+0x394>
   14384:	e51b3008 	ldr	r3, [fp, #-8]
   14388:	e7920103 	ldr	r0, [r2, r3, lsl #2]
   1438c:	e51b300c 	ldr	r3, [fp, #-12]
   14390:	e5d32013 	ldrb	r2, [r3, #19]
   14394:	e5d31014 	ldrb	r1, [r3, #20]
   14398:	e1a01401 	lsl	r1, r1, #8
   1439c:	e1812002 	orr	r2, r1, r2
   143a0:	e5d31015 	ldrb	r1, [r3, #21]
   143a4:	e1a01801 	lsl	r1, r1, #16
   143a8:	e1812002 	orr	r2, r1, r2
   143ac:	e5d33016 	ldrb	r3, [r3, #22]
   143b0:	e1a03c03 	lsl	r3, r3, #24
   143b4:	e1833002 	orr	r3, r3, r2
   143b8:	e5d33000 	ldrb	r3, [r3]
   143bc:	e1a01003 	mov	r1, r3
   143c0:	ebffef8e 	bl	10200 <HidReadDevice>
   143c4:	e1a03000 	mov	r3, r0
   143c8:	e54b300d 	strb	r3, [fp, #-13]
   143cc:	e15b30dd 	ldrsb	r3, [fp, #-13]
   143d0:	e3530000 	cmp	r3, #0
   143d4:	0a000001 	beq	143e0 <MousePoll+0xcc>
   143d8:	e15b30dd 	ldrsb	r3, [fp, #-13]
   143dc:	ea0000ad 	b	14698 <MousePoll+0x384>
   143e0:	e51b300c 	ldr	r3, [fp, #-12]
   143e4:	e5d32013 	ldrb	r2, [r3, #19]
   143e8:	e5d31014 	ldrb	r1, [r3, #20]
   143ec:	e1a01401 	lsl	r1, r1, #8
   143f0:	e1812002 	orr	r2, r1, r2
   143f4:	e5d31015 	ldrb	r1, [r3, #21]
   143f8:	e1a01801 	lsl	r1, r1, #16
   143fc:	e1812002 	orr	r2, r1, r2
   14400:	e5d33016 	ldrb	r3, [r3, #22]
   14404:	e1a03c03 	lsl	r3, r3, #24
   14408:	e1833002 	orr	r3, r3, r2
   1440c:	e50b3014 	str	r3, [fp, #-20]	; 0xffffffec
   14410:	e51b3014 	ldr	r3, [fp, #-20]	; 0xffffffec
   14414:	e5d33003 	ldrb	r3, [r3, #3]
   14418:	e3530001 	cmp	r3, #1
   1441c:	1a00009c 	bne	14694 <MousePoll+0x380>
   14420:	e51b3014 	ldr	r3, [fp, #-20]	; 0xffffffec
   14424:	e5932004 	ldr	r2, [r3, #4]
   14428:	e1a02422 	lsr	r2, r2, #8
   1442c:	e5d33008 	ldrb	r3, [r3, #8]
   14430:	e1a03c03 	lsl	r3, r3, #24
   14434:	e1833002 	orr	r3, r3, r2
   14438:	e50b3018 	str	r3, [fp, #-24]	; 0xffffffe8
   1443c:	e51b3018 	ldr	r3, [fp, #-24]	; 0xffffffe8
   14440:	e5d32000 	ldrb	r2, [r3]
   14444:	e51b300c 	ldr	r3, [fp, #-12]
   14448:	e5c3200c 	strb	r2, [r3, #12]
   1444c:	e51b300c 	ldr	r3, [fp, #-12]
   14450:	e5d3200d 	ldrb	r2, [r3, #13]
   14454:	e5d3300e 	ldrb	r3, [r3, #14]
   14458:	e1a03403 	lsl	r3, r3, #8
   1445c:	e1833002 	orr	r3, r3, r2
   14460:	e1a03803 	lsl	r3, r3, #16
   14464:	e1a03843 	asr	r3, r3, #16
   14468:	e1a03803 	lsl	r3, r3, #16
   1446c:	e1a03843 	asr	r3, r3, #16
   14470:	e1a03803 	lsl	r3, r3, #16
   14474:	e1a02823 	lsr	r2, r3, #16
   14478:	e51b3018 	ldr	r3, [fp, #-24]	; 0xffffffe8
   1447c:	e2833001 	add	r3, r3, #1
   14480:	e5d33000 	ldrb	r3, [r3]
   14484:	e1a03c03 	lsl	r3, r3, #24
   14488:	e1a03c43 	asr	r3, r3, #24
   1448c:	e1a03803 	lsl	r3, r3, #16
   14490:	e1a03823 	lsr	r3, r3, #16
   14494:	e0823003 	add	r3, r2, r3
   14498:	e1a03803 	lsl	r3, r3, #16
   1449c:	e1a03823 	lsr	r3, r3, #16
   144a0:	e1a03803 	lsl	r3, r3, #16
   144a4:	e1a02843 	asr	r2, r3, #16
   144a8:	e51b300c 	ldr	r3, [fp, #-12]
   144ac:	e1a01802 	lsl	r1, r2, #16
   144b0:	e1a01821 	lsr	r1, r1, #16
   144b4:	e20110ff 	and	r1, r1, #255	; 0xff
   144b8:	e3a00000 	mov	r0, #0
   144bc:	e1801001 	orr	r1, r0, r1
   144c0:	e5c3100d 	strb	r1, [r3, #13]
   144c4:	e1a02802 	lsl	r2, r2, #16
   144c8:	e1a02822 	lsr	r2, r2, #16
   144cc:	e1a02422 	lsr	r2, r2, #8
   144d0:	e1a02802 	lsl	r2, r2, #16
   144d4:	e1a02822 	lsr	r2, r2, #16
   144d8:	e3a01000 	mov	r1, #0
   144dc:	e1812002 	orr	r2, r1, r2
   144e0:	e5c3200e 	strb	r2, [r3, #14]
   144e4:	e51b300c 	ldr	r3, [fp, #-12]
   144e8:	e5d3200f 	ldrb	r2, [r3, #15]
   144ec:	e5d33010 	ldrb	r3, [r3, #16]
   144f0:	e1a03403 	lsl	r3, r3, #8
   144f4:	e1833002 	orr	r3, r3, r2
   144f8:	e1a03803 	lsl	r3, r3, #16
   144fc:	e1a03843 	asr	r3, r3, #16
   14500:	e1a03803 	lsl	r3, r3, #16
   14504:	e1a03843 	asr	r3, r3, #16
   14508:	e1a03803 	lsl	r3, r3, #16
   1450c:	e1a02823 	lsr	r2, r3, #16
   14510:	e51b3018 	ldr	r3, [fp, #-24]	; 0xffffffe8
   14514:	e2833002 	add	r3, r3, #2
   14518:	e5d33000 	ldrb	r3, [r3]
   1451c:	e1a03c03 	lsl	r3, r3, #24
   14520:	e1a03c43 	asr	r3, r3, #24
   14524:	e1a03803 	lsl	r3, r3, #16
   14528:	e1a03823 	lsr	r3, r3, #16
   1452c:	e0823003 	add	r3, r2, r3
   14530:	e1a03803 	lsl	r3, r3, #16
   14534:	e1a03823 	lsr	r3, r3, #16
   14538:	e1a03803 	lsl	r3, r3, #16
   1453c:	e1a02843 	asr	r2, r3, #16
   14540:	e51b300c 	ldr	r3, [fp, #-12]
   14544:	e1a01802 	lsl	r1, r2, #16
   14548:	e1a01821 	lsr	r1, r1, #16
   1454c:	e20110ff 	and	r1, r1, #255	; 0xff
   14550:	e3a00000 	mov	r0, #0
   14554:	e1801001 	orr	r1, r0, r1
   14558:	e5c3100f 	strb	r1, [r3, #15]
   1455c:	e1a02802 	lsl	r2, r2, #16
   14560:	e1a02822 	lsr	r2, r2, #16
   14564:	e1a02422 	lsr	r2, r2, #8
   14568:	e1a02802 	lsl	r2, r2, #16
   1456c:	e1a02822 	lsr	r2, r2, #16
   14570:	e3a01000 	mov	r1, #0
   14574:	e1812002 	orr	r2, r1, r2
   14578:	e5c32010 	strb	r2, [r3, #16]
   1457c:	e51b300c 	ldr	r3, [fp, #-12]
   14580:	e5d32011 	ldrb	r2, [r3, #17]
   14584:	e5d33012 	ldrb	r3, [r3, #18]
   14588:	e1a03403 	lsl	r3, r3, #8
   1458c:	e1833002 	orr	r3, r3, r2
   14590:	e1a03803 	lsl	r3, r3, #16
   14594:	e1a03843 	asr	r3, r3, #16
   14598:	e1a03803 	lsl	r3, r3, #16
   1459c:	e1a03843 	asr	r3, r3, #16
   145a0:	e1a03803 	lsl	r3, r3, #16
   145a4:	e1a02823 	lsr	r2, r3, #16
   145a8:	e51b3018 	ldr	r3, [fp, #-24]	; 0xffffffe8
   145ac:	e2833003 	add	r3, r3, #3
   145b0:	e5d33000 	ldrb	r3, [r3]
   145b4:	e1a03c03 	lsl	r3, r3, #24
   145b8:	e1a03c43 	asr	r3, r3, #24
   145bc:	e1a03803 	lsl	r3, r3, #16
   145c0:	e1a03823 	lsr	r3, r3, #16
   145c4:	e0823003 	add	r3, r2, r3
   145c8:	e1a03803 	lsl	r3, r3, #16
   145cc:	e1a03823 	lsr	r3, r3, #16
   145d0:	e1a03803 	lsl	r3, r3, #16
   145d4:	e1a02843 	asr	r2, r3, #16
   145d8:	e51b300c 	ldr	r3, [fp, #-12]
   145dc:	e1a01802 	lsl	r1, r2, #16
   145e0:	e1a01821 	lsr	r1, r1, #16
   145e4:	e20110ff 	and	r1, r1, #255	; 0xff
   145e8:	e3a00000 	mov	r0, #0
   145ec:	e1801001 	orr	r1, r0, r1
   145f0:	e5c31011 	strb	r1, [r3, #17]
   145f4:	e1a02802 	lsl	r2, r2, #16
   145f8:	e1a02822 	lsr	r2, r2, #16
   145fc:	e1a02422 	lsr	r2, r2, #8
   14600:	e1a02802 	lsl	r2, r2, #16
   14604:	e1a02822 	lsr	r2, r2, #16
   14608:	e3a01000 	mov	r1, #0
   1460c:	e1812002 	orr	r2, r1, r2
   14610:	e5c32012 	strb	r2, [r3, #18]
   14614:	e51b300c 	ldr	r3, [fp, #-12]
   14618:	e5d3200d 	ldrb	r2, [r3, #13]
   1461c:	e5d3300e 	ldrb	r3, [r3, #14]
   14620:	e1a03403 	lsl	r3, r3, #8
   14624:	e1833002 	orr	r3, r3, r2
   14628:	e1a03803 	lsl	r3, r3, #16
   1462c:	e1a03843 	asr	r3, r3, #16
   14630:	e1a03803 	lsl	r3, r3, #16
   14634:	e1a03843 	asr	r3, r3, #16
   14638:	e3530000 	cmp	r3, #0
   1463c:	aa000004 	bge	14654 <MousePoll+0x340>
   14640:	e51b300c 	ldr	r3, [fp, #-12]
   14644:	e3a02000 	mov	r2, #0
   14648:	e5c3200d 	strb	r2, [r3, #13]
   1464c:	e3a02000 	mov	r2, #0
   14650:	e5c3200e 	strb	r2, [r3, #14]
   14654:	e51b300c 	ldr	r3, [fp, #-12]
   14658:	e5d3200f 	ldrb	r2, [r3, #15]
   1465c:	e5d33010 	ldrb	r3, [r3, #16]
   14660:	e1a03403 	lsl	r3, r3, #8
   14664:	e1833002 	orr	r3, r3, r2
   14668:	e1a03803 	lsl	r3, r3, #16
   1466c:	e1a03843 	asr	r3, r3, #16
   14670:	e1a03803 	lsl	r3, r3, #16
   14674:	e1a03843 	asr	r3, r3, #16
   14678:	e3530000 	cmp	r3, #0
   1467c:	aa000004 	bge	14694 <MousePoll+0x380>
   14680:	e51b300c 	ldr	r3, [fp, #-12]
   14684:	e3a02000 	mov	r2, #0
   14688:	e5c3200f 	strb	r2, [r3, #15]
   1468c:	e3a02000 	mov	r2, #0
   14690:	e5c32010 	strb	r2, [r3, #16]
   14694:	e3a03000 	mov	r3, #0
   14698:	e1a00003 	mov	r0, r3
   1469c:	e24bd004 	sub	sp, fp, #4
   146a0:	e8bd4800 	pop	{fp, lr}
   146a4:	e12fff1e 	bx	lr
   146a8:	00029894 	.word	0x00029894

000146ac <MouseGetPositionX>:
   146ac:	e92d4800 	push	{fp, lr}
   146b0:	e28db004 	add	fp, sp, #4
   146b4:	e24dd010 	sub	sp, sp, #16
   146b8:	e50b0010 	str	r0, [fp, #-16]
   146bc:	e51b0010 	ldr	r0, [fp, #-16]
   146c0:	ebfffcfa 	bl	13ab0 <MouseIndex>
   146c4:	e50b0008 	str	r0, [fp, #-8]
   146c8:	e51b3008 	ldr	r3, [fp, #-8]
   146cc:	e3730001 	cmn	r3, #1
   146d0:	1a000001 	bne	146dc <MouseGetPositionX+0x30>
   146d4:	e3a03000 	mov	r3, #0
   146d8:	ea000017 	b	1473c <MouseGetPositionX+0x90>
   146dc:	e59f2068 	ldr	r2, [pc, #104]	; 1474c <MouseGetPositionX+0xa0>
   146e0:	e51b3008 	ldr	r3, [fp, #-8]
   146e4:	e7923103 	ldr	r3, [r2, r3, lsl #2]
   146e8:	e5933414 	ldr	r3, [r3, #1044]	; 0x414
   146ec:	e5d32010 	ldrb	r2, [r3, #16]
   146f0:	e5d31011 	ldrb	r1, [r3, #17]
   146f4:	e1a01401 	lsl	r1, r1, #8
   146f8:	e1812002 	orr	r2, r1, r2
   146fc:	e5d31012 	ldrb	r1, [r3, #18]
   14700:	e1a01801 	lsl	r1, r1, #16
   14704:	e1812002 	orr	r2, r1, r2
   14708:	e5d33013 	ldrb	r3, [r3, #19]
   1470c:	e1a03c03 	lsl	r3, r3, #24
   14710:	e1833002 	orr	r3, r3, r2
   14714:	e50b300c 	str	r3, [fp, #-12]
   14718:	e51b300c 	ldr	r3, [fp, #-12]
   1471c:	e5d3200d 	ldrb	r2, [r3, #13]
   14720:	e5d3300e 	ldrb	r3, [r3, #14]
   14724:	e1a03403 	lsl	r3, r3, #8
   14728:	e1833002 	orr	r3, r3, r2
   1472c:	e1a03803 	lsl	r3, r3, #16
   14730:	e1a03843 	asr	r3, r3, #16
   14734:	e1a03803 	lsl	r3, r3, #16
   14738:	e1a03843 	asr	r3, r3, #16
   1473c:	e1a00003 	mov	r0, r3
   14740:	e24bd004 	sub	sp, fp, #4
   14744:	e8bd4800 	pop	{fp, lr}
   14748:	e12fff1e 	bx	lr
   1474c:	00029894 	.word	0x00029894

00014750 <MouseGetPositionY>:
   14750:	e92d4800 	push	{fp, lr}
   14754:	e28db004 	add	fp, sp, #4
   14758:	e24dd010 	sub	sp, sp, #16
   1475c:	e50b0010 	str	r0, [fp, #-16]
   14760:	e51b0010 	ldr	r0, [fp, #-16]
   14764:	ebfffcd1 	bl	13ab0 <MouseIndex>
   14768:	e50b0008 	str	r0, [fp, #-8]
   1476c:	e51b3008 	ldr	r3, [fp, #-8]
   14770:	e3730001 	cmn	r3, #1
   14774:	1a000001 	bne	14780 <MouseGetPositionY+0x30>
   14778:	e3a03000 	mov	r3, #0
   1477c:	ea000017 	b	147e0 <MouseGetPositionY+0x90>
   14780:	e59f2068 	ldr	r2, [pc, #104]	; 147f0 <MouseGetPositionY+0xa0>
   14784:	e51b3008 	ldr	r3, [fp, #-8]
   14788:	e7923103 	ldr	r3, [r2, r3, lsl #2]
   1478c:	e5933414 	ldr	r3, [r3, #1044]	; 0x414
   14790:	e5d32010 	ldrb	r2, [r3, #16]
   14794:	e5d31011 	ldrb	r1, [r3, #17]
   14798:	e1a01401 	lsl	r1, r1, #8
   1479c:	e1812002 	orr	r2, r1, r2
   147a0:	e5d31012 	ldrb	r1, [r3, #18]
   147a4:	e1a01801 	lsl	r1, r1, #16
   147a8:	e1812002 	orr	r2, r1, r2
   147ac:	e5d33013 	ldrb	r3, [r3, #19]
   147b0:	e1a03c03 	lsl	r3, r3, #24
   147b4:	e1833002 	orr	r3, r3, r2
   147b8:	e50b300c 	str	r3, [fp, #-12]
   147bc:	e51b300c 	ldr	r3, [fp, #-12]
   147c0:	e5d3200f 	ldrb	r2, [r3, #15]
   147c4:	e5d33010 	ldrb	r3, [r3, #16]
   147c8:	e1a03403 	lsl	r3, r3, #8
   147cc:	e1833002 	orr	r3, r3, r2
   147d0:	e1a03803 	lsl	r3, r3, #16
   147d4:	e1a03843 	asr	r3, r3, #16
   147d8:	e1a03803 	lsl	r3, r3, #16
   147dc:	e1a03843 	asr	r3, r3, #16
   147e0:	e1a00003 	mov	r0, r3
   147e4:	e24bd004 	sub	sp, fp, #4
   147e8:	e8bd4800 	pop	{fp, lr}
   147ec:	e12fff1e 	bx	lr
   147f0:	00029894 	.word	0x00029894

000147f4 <MouseGetWheel>:
   147f4:	e92d4800 	push	{fp, lr}
   147f8:	e28db004 	add	fp, sp, #4
   147fc:	e24dd010 	sub	sp, sp, #16
   14800:	e50b0010 	str	r0, [fp, #-16]
   14804:	e51b0010 	ldr	r0, [fp, #-16]
   14808:	ebfffca8 	bl	13ab0 <MouseIndex>
   1480c:	e50b0008 	str	r0, [fp, #-8]
   14810:	e51b3008 	ldr	r3, [fp, #-8]
   14814:	e3730001 	cmn	r3, #1
   14818:	1a000001 	bne	14824 <MouseGetWheel+0x30>
   1481c:	e3a03000 	mov	r3, #0
   14820:	ea000017 	b	14884 <MouseGetWheel+0x90>
   14824:	e59f2068 	ldr	r2, [pc, #104]	; 14894 <MouseGetWheel+0xa0>
   14828:	e51b3008 	ldr	r3, [fp, #-8]
   1482c:	e7923103 	ldr	r3, [r2, r3, lsl #2]
   14830:	e5933414 	ldr	r3, [r3, #1044]	; 0x414
   14834:	e5d32010 	ldrb	r2, [r3, #16]
   14838:	e5d31011 	ldrb	r1, [r3, #17]
   1483c:	e1a01401 	lsl	r1, r1, #8
   14840:	e1812002 	orr	r2, r1, r2
   14844:	e5d31012 	ldrb	r1, [r3, #18]
   14848:	e1a01801 	lsl	r1, r1, #16
   1484c:	e1812002 	orr	r2, r1, r2
   14850:	e5d33013 	ldrb	r3, [r3, #19]
   14854:	e1a03c03 	lsl	r3, r3, #24
   14858:	e1833002 	orr	r3, r3, r2
   1485c:	e50b300c 	str	r3, [fp, #-12]
   14860:	e51b300c 	ldr	r3, [fp, #-12]
   14864:	e5d32011 	ldrb	r2, [r3, #17]
   14868:	e5d33012 	ldrb	r3, [r3, #18]
   1486c:	e1a03403 	lsl	r3, r3, #8
   14870:	e1833002 	orr	r3, r3, r2
   14874:	e1a03803 	lsl	r3, r3, #16
   14878:	e1a03843 	asr	r3, r3, #16
   1487c:	e1a03803 	lsl	r3, r3, #16
   14880:	e1a03843 	asr	r3, r3, #16
   14884:	e1a00003 	mov	r0, r3
   14888:	e24bd004 	sub	sp, fp, #4
   1488c:	e8bd4800 	pop	{fp, lr}
   14890:	e12fff1e 	bx	lr
   14894:	00029894 	.word	0x00029894

00014898 <MouseGetPosition>:
   14898:	e92d4800 	push	{fp, lr}
   1489c:	e28db004 	add	fp, sp, #4
   148a0:	e24dd010 	sub	sp, sp, #16
   148a4:	e50b0010 	str	r0, [fp, #-16]
   148a8:	e51b0010 	ldr	r0, [fp, #-16]
   148ac:	ebfffc7f 	bl	13ab0 <MouseIndex>
   148b0:	e50b0008 	str	r0, [fp, #-8]
   148b4:	e51b3008 	ldr	r3, [fp, #-8]
   148b8:	e3730001 	cmn	r3, #1
   148bc:	1a000001 	bne	148c8 <MouseGetPosition+0x30>
   148c0:	e3a03000 	mov	r3, #0
   148c4:	ea000024 	b	1495c <MouseGetPosition+0xc4>
   148c8:	e59f209c 	ldr	r2, [pc, #156]	; 1496c <MouseGetPosition+0xd4>
   148cc:	e51b3008 	ldr	r3, [fp, #-8]
   148d0:	e7923103 	ldr	r3, [r2, r3, lsl #2]
   148d4:	e5933414 	ldr	r3, [r3, #1044]	; 0x414
   148d8:	e5d32010 	ldrb	r2, [r3, #16]
   148dc:	e5d31011 	ldrb	r1, [r3, #17]
   148e0:	e1a01401 	lsl	r1, r1, #8
   148e4:	e1812002 	orr	r2, r1, r2
   148e8:	e5d31012 	ldrb	r1, [r3, #18]
   148ec:	e1a01801 	lsl	r1, r1, #16
   148f0:	e1812002 	orr	r2, r1, r2
   148f4:	e5d33013 	ldrb	r3, [r3, #19]
   148f8:	e1a03c03 	lsl	r3, r3, #24
   148fc:	e1833002 	orr	r3, r3, r2
   14900:	e50b300c 	str	r3, [fp, #-12]
   14904:	e51b300c 	ldr	r3, [fp, #-12]
   14908:	e5d3200d 	ldrb	r2, [r3, #13]
   1490c:	e5d3300e 	ldrb	r3, [r3, #14]
   14910:	e1a03403 	lsl	r3, r3, #8
   14914:	e1833002 	orr	r3, r3, r2
   14918:	e1a03803 	lsl	r3, r3, #16
   1491c:	e1a03843 	asr	r3, r3, #16
   14920:	e1a03803 	lsl	r3, r3, #16
   14924:	e1a03843 	asr	r3, r3, #16
   14928:	e1a02803 	lsl	r2, r3, #16
   1492c:	e51b300c 	ldr	r3, [fp, #-12]
   14930:	e5d3100f 	ldrb	r1, [r3, #15]
   14934:	e5d33010 	ldrb	r3, [r3, #16]
   14938:	e1a03403 	lsl	r3, r3, #8
   1493c:	e1833001 	orr	r3, r3, r1
   14940:	e1a03803 	lsl	r3, r3, #16
   14944:	e1a03843 	asr	r3, r3, #16
   14948:	e1a03803 	lsl	r3, r3, #16
   1494c:	e1a03843 	asr	r3, r3, #16
   14950:	e1a03803 	lsl	r3, r3, #16
   14954:	e1a03823 	lsr	r3, r3, #16
   14958:	e1823003 	orr	r3, r2, r3
   1495c:	e1a00003 	mov	r0, r3
   14960:	e24bd004 	sub	sp, fp, #4
   14964:	e8bd4800 	pop	{fp, lr}
   14968:	e12fff1e 	bx	lr
   1496c:	00029894 	.word	0x00029894

00014970 <MouseGetButtons>:
   14970:	e92d4800 	push	{fp, lr}
   14974:	e28db004 	add	fp, sp, #4
   14978:	e24dd010 	sub	sp, sp, #16
   1497c:	e50b0010 	str	r0, [fp, #-16]
   14980:	e51b0010 	ldr	r0, [fp, #-16]
   14984:	ebfffc49 	bl	13ab0 <MouseIndex>
   14988:	e50b0008 	str	r0, [fp, #-8]
   1498c:	e51b3008 	ldr	r3, [fp, #-8]
   14990:	e3730001 	cmn	r3, #1
   14994:	1a000001 	bne	149a0 <MouseGetButtons+0x30>
   14998:	e3a03000 	mov	r3, #0
   1499c:	ea000010 	b	149e4 <MouseGetButtons+0x74>
   149a0:	e59f204c 	ldr	r2, [pc, #76]	; 149f4 <MouseGetButtons+0x84>
   149a4:	e51b3008 	ldr	r3, [fp, #-8]
   149a8:	e7923103 	ldr	r3, [r2, r3, lsl #2]
   149ac:	e5933414 	ldr	r3, [r3, #1044]	; 0x414
   149b0:	e5d32010 	ldrb	r2, [r3, #16]
   149b4:	e5d31011 	ldrb	r1, [r3, #17]
   149b8:	e1a01401 	lsl	r1, r1, #8
   149bc:	e1812002 	orr	r2, r1, r2
   149c0:	e5d31012 	ldrb	r1, [r3, #18]
   149c4:	e1a01801 	lsl	r1, r1, #16
   149c8:	e1812002 	orr	r2, r1, r2
   149cc:	e5d33013 	ldrb	r3, [r3, #19]
   149d0:	e1a03c03 	lsl	r3, r3, #24
   149d4:	e1833002 	orr	r3, r3, r2
   149d8:	e50b300c 	str	r3, [fp, #-12]
   149dc:	e51b300c 	ldr	r3, [fp, #-12]
   149e0:	e5d3300c 	ldrb	r3, [r3, #12]
   149e4:	e1a00003 	mov	r0, r3
   149e8:	e24bd004 	sub	sp, fp, #4
   149ec:	e8bd4800 	pop	{fp, lr}
   149f0:	e12fff1e 	bx	lr
   149f4:	00029894 	.word	0x00029894

000149f8 <MouseGetButtonIsPressed>:
   149f8:	e92d4800 	push	{fp, lr}
   149fc:	e28db004 	add	fp, sp, #4
   14a00:	e24dd010 	sub	sp, sp, #16
   14a04:	e50b0010 	str	r0, [fp, #-16]
   14a08:	e1a03001 	mov	r3, r1
   14a0c:	e54b3011 	strb	r3, [fp, #-17]	; 0xffffffef
   14a10:	e51b0010 	ldr	r0, [fp, #-16]
   14a14:	ebfffc25 	bl	13ab0 <MouseIndex>
   14a18:	e50b0008 	str	r0, [fp, #-8]
   14a1c:	e51b3008 	ldr	r3, [fp, #-8]
   14a20:	e3730001 	cmn	r3, #1
   14a24:	1a000001 	bne	14a30 <MouseGetButtonIsPressed+0x38>
   14a28:	e3a03000 	mov	r3, #0
   14a2c:	ea000031 	b	14af8 <MouseGetButtonIsPressed+0x100>
   14a30:	e59f20d0 	ldr	r2, [pc, #208]	; 14b08 <MouseGetButtonIsPressed+0x110>
   14a34:	e51b3008 	ldr	r3, [fp, #-8]
   14a38:	e7923103 	ldr	r3, [r2, r3, lsl #2]
   14a3c:	e5933414 	ldr	r3, [r3, #1044]	; 0x414
   14a40:	e5d32010 	ldrb	r2, [r3, #16]
   14a44:	e5d31011 	ldrb	r1, [r3, #17]
   14a48:	e1a01401 	lsl	r1, r1, #8
   14a4c:	e1812002 	orr	r2, r1, r2
   14a50:	e5d31012 	ldrb	r1, [r3, #18]
   14a54:	e1a01801 	lsl	r1, r1, #16
   14a58:	e1812002 	orr	r2, r1, r2
   14a5c:	e5d33013 	ldrb	r3, [r3, #19]
   14a60:	e1a03c03 	lsl	r3, r3, #24
   14a64:	e1833002 	orr	r3, r3, r2
   14a68:	e50b300c 	str	r3, [fp, #-12]
   14a6c:	e55b3011 	ldrb	r3, [fp, #-17]	; 0xffffffef
   14a70:	e3530004 	cmp	r3, #4
   14a74:	979ff103 	ldrls	pc, [pc, r3, lsl #2]
   14a78:	ea00001d 	b	14af4 <MouseGetButtonIsPressed+0xfc>
   14a7c:	00014a90 	.word	0x00014a90
   14a80:	00014aa4 	.word	0x00014aa4
   14a84:	00014ab8 	.word	0x00014ab8
   14a88:	00014acc 	.word	0x00014acc
   14a8c:	00014ae0 	.word	0x00014ae0
   14a90:	e51b300c 	ldr	r3, [fp, #-12]
   14a94:	e5d3300c 	ldrb	r3, [r3, #12]
   14a98:	e2033001 	and	r3, r3, #1
   14a9c:	e20330ff 	and	r3, r3, #255	; 0xff
   14aa0:	ea000014 	b	14af8 <MouseGetButtonIsPressed+0x100>
   14aa4:	e51b300c 	ldr	r3, [fp, #-12]
   14aa8:	e5d3300c 	ldrb	r3, [r3, #12]
   14aac:	e2033002 	and	r3, r3, #2
   14ab0:	e20330ff 	and	r3, r3, #255	; 0xff
   14ab4:	ea00000f 	b	14af8 <MouseGetButtonIsPressed+0x100>
   14ab8:	e51b300c 	ldr	r3, [fp, #-12]
   14abc:	e5d3300c 	ldrb	r3, [r3, #12]
   14ac0:	e2033004 	and	r3, r3, #4
   14ac4:	e20330ff 	and	r3, r3, #255	; 0xff
   14ac8:	ea00000a 	b	14af8 <MouseGetButtonIsPressed+0x100>
   14acc:	e51b300c 	ldr	r3, [fp, #-12]
   14ad0:	e5d3300c 	ldrb	r3, [r3, #12]
   14ad4:	e2033008 	and	r3, r3, #8
   14ad8:	e20330ff 	and	r3, r3, #255	; 0xff
   14adc:	ea000005 	b	14af8 <MouseGetButtonIsPressed+0x100>
   14ae0:	e51b300c 	ldr	r3, [fp, #-12]
   14ae4:	e5d3300c 	ldrb	r3, [r3, #12]
   14ae8:	e2033010 	and	r3, r3, #16
   14aec:	e20330ff 	and	r3, r3, #255	; 0xff
   14af0:	ea000000 	b	14af8 <MouseGetButtonIsPressed+0x100>
   14af4:	e3a03000 	mov	r3, #0
   14af8:	e1a00003 	mov	r0, r3
   14afc:	e24bd004 	sub	sp, fp, #4
   14b00:	e8bd4800 	pop	{fp, lr}
   14b04:	e12fff1e 	bx	lr
   14b08:	00029894 	.word	0x00029894

00014b0c <SizeToNumber>:
   14b0c:	e52db004 	push	{fp}		; (str fp, [sp, #-4]!)
   14b10:	e28db000 	add	fp, sp, #0
   14b14:	e24dd00c 	sub	sp, sp, #12
   14b18:	e1a03000 	mov	r3, r0
   14b1c:	e54b3005 	strb	r3, [fp, #-5]
   14b20:	e55b3005 	ldrb	r3, [fp, #-5]
   14b24:	e3530000 	cmp	r3, #0
   14b28:	1a000001 	bne	14b34 <SizeToNumber+0x28>
   14b2c:	e3a03008 	mov	r3, #8
   14b30:	ea00000a 	b	14b60 <SizeToNumber+0x54>
   14b34:	e55b3005 	ldrb	r3, [fp, #-5]
   14b38:	e3530001 	cmp	r3, #1
   14b3c:	1a000001 	bne	14b48 <SizeToNumber+0x3c>
   14b40:	e3a03010 	mov	r3, #16
   14b44:	ea000005 	b	14b60 <SizeToNumber+0x54>
   14b48:	e55b3005 	ldrb	r3, [fp, #-5]
   14b4c:	e3530002 	cmp	r3, #2
   14b50:	1a000001 	bne	14b5c <SizeToNumber+0x50>
   14b54:	e3a03020 	mov	r3, #32
   14b58:	ea000000 	b	14b60 <SizeToNumber+0x54>
   14b5c:	e3a03040 	mov	r3, #64	; 0x40
   14b60:	e1a00003 	mov	r0, r3
   14b64:	e24bd000 	sub	sp, fp, #0
   14b68:	e49db004 	pop	{fp}		; (ldr fp, [sp], #4)
   14b6c:	e12fff1e 	bx	lr

00014b70 <DwcLoad>:
   14b70:	e52db004 	push	{fp}		; (str fp, [sp, #-4]!)
   14b74:	e28db000 	add	fp, sp, #0
   14b78:	e1a00000 	nop			; (mov r0, r0)
   14b7c:	e24bd000 	sub	sp, fp, #0
   14b80:	e49db004 	pop	{fp}		; (ldr fp, [sp], #4)
   14b84:	e12fff1e 	bx	lr

00014b88 <WriteThroughReg>:
   14b88:	e92d4800 	push	{fp, lr}
   14b8c:	e28db004 	add	fp, sp, #4
   14b90:	e24dd008 	sub	sp, sp, #8
   14b94:	e50b0008 	str	r0, [fp, #-8]
   14b98:	e3a01000 	mov	r1, #0
   14b9c:	e51b0008 	ldr	r0, [fp, #-8]
   14ba0:	eb000003 	bl	14bb4 <WriteThroughRegMask>
   14ba4:	e1a00000 	nop			; (mov r0, r0)
   14ba8:	e24bd004 	sub	sp, fp, #4
   14bac:	e8bd4800 	pop	{fp, lr}
   14bb0:	e12fff1e 	bx	lr

00014bb4 <WriteThroughRegMask>:
   14bb4:	e52db004 	push	{fp}		; (str fp, [sp, #-4]!)
   14bb8:	e28db000 	add	fp, sp, #0
   14bbc:	e24dd00c 	sub	sp, sp, #12
   14bc0:	e50b0008 	str	r0, [fp, #-8]
   14bc4:	e50b100c 	str	r1, [fp, #-12]
   14bc8:	e51b3008 	ldr	r3, [fp, #-8]
   14bcc:	e59f2120 	ldr	r2, [pc, #288]	; 14cf4 <WriteThroughRegMask+0x140>
   14bd0:	e5922000 	ldr	r2, [r2]
   14bd4:	e0623003 	rsb	r3, r2, r3
   14bd8:	e3530b01 	cmp	r3, #1024	; 0x400
   14bdc:	2a00000f 	bcs	14c20 <WriteThroughRegMask+0x6c>
   14be0:	e3e03000 	mvn	r3, #0
   14be4:	e50b300c 	str	r3, [fp, #-12]
   14be8:	e51b3008 	ldr	r3, [fp, #-8]
   14bec:	e59f2100 	ldr	r2, [pc, #256]	; 14cf4 <WriteThroughRegMask+0x140>
   14bf0:	e5922000 	ldr	r2, [r2]
   14bf4:	e0623003 	rsb	r3, r2, r3
   14bf8:	e59f20f8 	ldr	r2, [pc, #248]	; 14cf8 <WriteThroughRegMask+0x144>
   14bfc:	e5922000 	ldr	r2, [r2]
   14c00:	e0833002 	add	r3, r3, r2
   14c04:	e1a01003 	mov	r1, r3
   14c08:	e51b3008 	ldr	r3, [fp, #-8]
   14c0c:	e5932000 	ldr	r2, [r3]
   14c10:	e51b300c 	ldr	r3, [fp, #-12]
   14c14:	e0033002 	and	r3, r3, r2
   14c18:	e5813000 	str	r3, [r1]
   14c1c:	ea000030 	b	14ce4 <WriteThroughRegMask+0x130>
   14c20:	e51b3008 	ldr	r3, [fp, #-8]
   14c24:	e59f20d0 	ldr	r2, [pc, #208]	; 14cfc <WriteThroughRegMask+0x148>
   14c28:	e5922000 	ldr	r2, [r2]
   14c2c:	e0623003 	rsb	r3, r2, r3
   14c30:	e3530b01 	cmp	r3, #1024	; 0x400
   14c34:	2a00001b 	bcs	14ca8 <WriteThroughRegMask+0xf4>
   14c38:	e51b3008 	ldr	r3, [fp, #-8]
   14c3c:	e59f20b8 	ldr	r2, [pc, #184]	; 14cfc <WriteThroughRegMask+0x148>
   14c40:	e5922000 	ldr	r2, [r2]
   14c44:	e0623003 	rsb	r3, r2, r3
   14c48:	e3530040 	cmp	r3, #64	; 0x40
   14c4c:	1a000004 	bne	14c64 <WriteThroughRegMask+0xb0>
   14c50:	e51b300c 	ldr	r3, [fp, #-12]
   14c54:	e3833a1f 	orr	r3, r3, #126976	; 0x1f000
   14c58:	e3833d05 	orr	r3, r3, #320	; 0x140
   14c5c:	e50b300c 	str	r3, [fp, #-12]
   14c60:	ea000002 	b	14c70 <WriteThroughRegMask+0xbc>
   14c64:	e3e03000 	mvn	r3, #0
   14c68:	e50b300c 	str	r3, [fp, #-12]
   14c6c:	e1a00000 	nop			; (mov r0, r0)
   14c70:	e51b3008 	ldr	r3, [fp, #-8]
   14c74:	e59f2080 	ldr	r2, [pc, #128]	; 14cfc <WriteThroughRegMask+0x148>
   14c78:	e5922000 	ldr	r2, [r2]
   14c7c:	e0623003 	rsb	r3, r2, r3
   14c80:	e59f2078 	ldr	r2, [pc, #120]	; 14d00 <WriteThroughRegMask+0x14c>
   14c84:	e5922000 	ldr	r2, [r2]
   14c88:	e0833002 	add	r3, r3, r2
   14c8c:	e1a01003 	mov	r1, r3
   14c90:	e51b3008 	ldr	r3, [fp, #-8]
   14c94:	e5932000 	ldr	r2, [r3]
   14c98:	e51b300c 	ldr	r3, [fp, #-12]
   14c9c:	e0033002 	and	r3, r3, r2
   14ca0:	e5813000 	str	r3, [r1]
   14ca4:	ea00000e 	b	14ce4 <WriteThroughRegMask+0x130>
   14ca8:	e51b3008 	ldr	r3, [fp, #-8]
   14cac:	e59f2050 	ldr	r2, [pc, #80]	; 14d04 <WriteThroughRegMask+0x150>
   14cb0:	e5922000 	ldr	r2, [r2]
   14cb4:	e1530002 	cmp	r3, r2
   14cb8:	1a000009 	bne	14ce4 <WriteThroughRegMask+0x130>
   14cbc:	e3e03000 	mvn	r3, #0
   14cc0:	e50b300c 	str	r3, [fp, #-12]
   14cc4:	e59f303c 	ldr	r3, [pc, #60]	; 14d08 <WriteThroughRegMask+0x154>
   14cc8:	e5933000 	ldr	r3, [r3]
   14ccc:	e59f2030 	ldr	r2, [pc, #48]	; 14d04 <WriteThroughRegMask+0x150>
   14cd0:	e5922000 	ldr	r2, [r2]
   14cd4:	e5921000 	ldr	r1, [r2]
   14cd8:	e51b200c 	ldr	r2, [fp, #-12]
   14cdc:	e0022001 	and	r2, r2, r1
   14ce0:	e5832000 	str	r2, [r3]
   14ce4:	e1a00000 	nop			; (mov r0, r0)
   14ce8:	e24bd000 	sub	sp, fp, #0
   14cec:	e49db004 	pop	{fp}		; (ldr fp, [sp], #4)
   14cf0:	e12fff1e 	bx	lr
   14cf4:	000298a4 	.word	0x000298a4
   14cf8:	000298b8 	.word	0x000298b8
   14cfc:	000298a8 	.word	0x000298a8
   14d00:	000298bc 	.word	0x000298bc
   14d04:	000298ac 	.word	0x000298ac
   14d08:	000298c0 	.word	0x000298c0

00014d0c <ReadBackReg>:
   14d0c:	e52db004 	push	{fp}		; (str fp, [sp, #-4]!)
   14d10:	e28db000 	add	fp, sp, #0
   14d14:	e24dd00c 	sub	sp, sp, #12
   14d18:	e50b0008 	str	r0, [fp, #-8]
   14d1c:	e51b3008 	ldr	r3, [fp, #-8]
   14d20:	e59f2190 	ldr	r2, [pc, #400]	; 14eb8 <ReadBackReg+0x1ac>
   14d24:	e5922000 	ldr	r2, [r2]
   14d28:	e0623003 	rsb	r3, r2, r3
   14d2c:	e3530b01 	cmp	r3, #1024	; 0x400
   14d30:	2a000040 	bcs	14e38 <ReadBackReg+0x12c>
   14d34:	e51b3008 	ldr	r3, [fp, #-8]
   14d38:	e59f2178 	ldr	r2, [pc, #376]	; 14eb8 <ReadBackReg+0x1ac>
   14d3c:	e5922000 	ldr	r2, [r2]
   14d40:	e0623003 	rsb	r3, r2, r3
   14d44:	e3530044 	cmp	r3, #68	; 0x44
   14d48:	1a00002f 	bne	14e0c <ReadBackReg+0x100>
   14d4c:	e51b3008 	ldr	r3, [fp, #-8]
   14d50:	e59f2160 	ldr	r2, [pc, #352]	; 14eb8 <ReadBackReg+0x1ac>
   14d54:	e5922000 	ldr	r2, [r2]
   14d58:	e0623003 	rsb	r3, r2, r3
   14d5c:	e59f2158 	ldr	r2, [pc, #344]	; 14ebc <ReadBackReg+0x1b0>
   14d60:	e5922000 	ldr	r2, [r2]
   14d64:	e0833002 	add	r3, r3, r2
   14d68:	e5932000 	ldr	r2, [r3]
   14d6c:	e51b3008 	ldr	r3, [fp, #-8]
   14d70:	e5832000 	str	r2, [r3]
   14d74:	e51b3008 	ldr	r3, [fp, #-8]
   14d78:	e2833004 	add	r3, r3, #4
   14d7c:	e51b2008 	ldr	r2, [fp, #-8]
   14d80:	e59f1130 	ldr	r1, [pc, #304]	; 14eb8 <ReadBackReg+0x1ac>
   14d84:	e5911000 	ldr	r1, [r1]
   14d88:	e0612002 	rsb	r2, r1, r2
   14d8c:	e59f1128 	ldr	r1, [pc, #296]	; 14ebc <ReadBackReg+0x1b0>
   14d90:	e5911000 	ldr	r1, [r1]
   14d94:	e0822001 	add	r2, r2, r1
   14d98:	e2822004 	add	r2, r2, #4
   14d9c:	e5922000 	ldr	r2, [r2]
   14da0:	e5832000 	str	r2, [r3]
   14da4:	e51b3008 	ldr	r3, [fp, #-8]
   14da8:	e2833008 	add	r3, r3, #8
   14dac:	e51b2008 	ldr	r2, [fp, #-8]
   14db0:	e59f1100 	ldr	r1, [pc, #256]	; 14eb8 <ReadBackReg+0x1ac>
   14db4:	e5911000 	ldr	r1, [r1]
   14db8:	e0612002 	rsb	r2, r1, r2
   14dbc:	e59f10f8 	ldr	r1, [pc, #248]	; 14ebc <ReadBackReg+0x1b0>
   14dc0:	e5911000 	ldr	r1, [r1]
   14dc4:	e0822001 	add	r2, r2, r1
   14dc8:	e2822008 	add	r2, r2, #8
   14dcc:	e5922000 	ldr	r2, [r2]
   14dd0:	e5832000 	str	r2, [r3]
   14dd4:	e51b3008 	ldr	r3, [fp, #-8]
   14dd8:	e283300c 	add	r3, r3, #12
   14ddc:	e51b2008 	ldr	r2, [fp, #-8]
   14de0:	e59f10d0 	ldr	r1, [pc, #208]	; 14eb8 <ReadBackReg+0x1ac>
   14de4:	e5911000 	ldr	r1, [r1]
   14de8:	e0612002 	rsb	r2, r1, r2
   14dec:	e59f10c8 	ldr	r1, [pc, #200]	; 14ebc <ReadBackReg+0x1b0>
   14df0:	e5911000 	ldr	r1, [r1]
   14df4:	e0822001 	add	r2, r2, r1
   14df8:	e282200c 	add	r2, r2, #12
   14dfc:	e5922000 	ldr	r2, [r2]
   14e00:	e5832000 	str	r2, [r3]
   14e04:	e1a00000 	nop			; (mov r0, r0)
   14e08:	ea000026 	b	14ea8 <ReadBackReg+0x19c>
   14e0c:	e51b3008 	ldr	r3, [fp, #-8]
   14e10:	e59f20a0 	ldr	r2, [pc, #160]	; 14eb8 <ReadBackReg+0x1ac>
   14e14:	e5922000 	ldr	r2, [r2]
   14e18:	e0623003 	rsb	r3, r2, r3
   14e1c:	e59f2098 	ldr	r2, [pc, #152]	; 14ebc <ReadBackReg+0x1b0>
   14e20:	e5922000 	ldr	r2, [r2]
   14e24:	e0833002 	add	r3, r3, r2
   14e28:	e5932000 	ldr	r2, [r3]
   14e2c:	e51b3008 	ldr	r3, [fp, #-8]
   14e30:	e5832000 	str	r2, [r3]
   14e34:	ea00001b 	b	14ea8 <ReadBackReg+0x19c>
   14e38:	e51b3008 	ldr	r3, [fp, #-8]
   14e3c:	e59f207c 	ldr	r2, [pc, #124]	; 14ec0 <ReadBackReg+0x1b4>
   14e40:	e5922000 	ldr	r2, [r2]
   14e44:	e0623003 	rsb	r3, r2, r3
   14e48:	e3530b01 	cmp	r3, #1024	; 0x400
   14e4c:	2a00000a 	bcs	14e7c <ReadBackReg+0x170>
   14e50:	e51b3008 	ldr	r3, [fp, #-8]
   14e54:	e59f2064 	ldr	r2, [pc, #100]	; 14ec0 <ReadBackReg+0x1b4>
   14e58:	e5922000 	ldr	r2, [r2]
   14e5c:	e0623003 	rsb	r3, r2, r3
   14e60:	e59f205c 	ldr	r2, [pc, #92]	; 14ec4 <ReadBackReg+0x1b8>
   14e64:	e5922000 	ldr	r2, [r2]
   14e68:	e0833002 	add	r3, r3, r2
   14e6c:	e5932000 	ldr	r2, [r3]
   14e70:	e51b3008 	ldr	r3, [fp, #-8]
   14e74:	e5832000 	str	r2, [r3]
   14e78:	ea00000a 	b	14ea8 <ReadBackReg+0x19c>
   14e7c:	e51b3008 	ldr	r3, [fp, #-8]
   14e80:	e59f2040 	ldr	r2, [pc, #64]	; 14ec8 <ReadBackReg+0x1bc>
   14e84:	e5922000 	ldr	r2, [r2]
   14e88:	e1530002 	cmp	r3, r2
   14e8c:	1a000005 	bne	14ea8 <ReadBackReg+0x19c>
   14e90:	e59f3030 	ldr	r3, [pc, #48]	; 14ec8 <ReadBackReg+0x1bc>
   14e94:	e5933000 	ldr	r3, [r3]
   14e98:	e59f202c 	ldr	r2, [pc, #44]	; 14ecc <ReadBackReg+0x1c0>
   14e9c:	e5922000 	ldr	r2, [r2]
   14ea0:	e5922000 	ldr	r2, [r2]
   14ea4:	e5832000 	str	r2, [r3]
   14ea8:	e1a00000 	nop			; (mov r0, r0)
   14eac:	e24bd000 	sub	sp, fp, #0
   14eb0:	e49db004 	pop	{fp}		; (ldr fp, [sp], #4)
   14eb4:	e12fff1e 	bx	lr
   14eb8:	000298a4 	.word	0x000298a4
   14ebc:	000298b8 	.word	0x000298b8
   14ec0:	000298a8 	.word	0x000298a8
   14ec4:	000298bc 	.word	0x000298bc
   14ec8:	000298ac 	.word	0x000298ac
   14ecc:	000298c0 	.word	0x000298c0

00014ed0 <ClearReg>:
   14ed0:	e52db004 	push	{fp}		; (str fp, [sp, #-4]!)
   14ed4:	e28db000 	add	fp, sp, #0
   14ed8:	e24dd00c 	sub	sp, sp, #12
   14edc:	e50b0008 	str	r0, [fp, #-8]
   14ee0:	e51b3008 	ldr	r3, [fp, #-8]
   14ee4:	e59f20d4 	ldr	r2, [pc, #212]	; 14fc0 <ClearReg+0xf0>
   14ee8:	e5922000 	ldr	r2, [r2]
   14eec:	e0623003 	rsb	r3, r2, r3
   14ef0:	e3530b01 	cmp	r3, #1024	; 0x400
   14ef4:	2a00001a 	bcs	14f64 <ClearReg+0x94>
   14ef8:	e51b3008 	ldr	r3, [fp, #-8]
   14efc:	e59f20bc 	ldr	r2, [pc, #188]	; 14fc0 <ClearReg+0xf0>
   14f00:	e5922000 	ldr	r2, [r2]
   14f04:	e0623003 	rsb	r3, r2, r3
   14f08:	e3530044 	cmp	r3, #68	; 0x44
   14f0c:	1a000010 	bne	14f54 <ClearReg+0x84>
   14f10:	e51b3008 	ldr	r3, [fp, #-8]
   14f14:	e3a02000 	mov	r2, #0
   14f18:	e5832000 	str	r2, [r3]
   14f1c:	e51b3008 	ldr	r3, [fp, #-8]
   14f20:	e2833004 	add	r3, r3, #4
   14f24:	e3a02000 	mov	r2, #0
   14f28:	e5832000 	str	r2, [r3]
   14f2c:	e51b3008 	ldr	r3, [fp, #-8]
   14f30:	e2833008 	add	r3, r3, #8
   14f34:	e3a02000 	mov	r2, #0
   14f38:	e5832000 	str	r2, [r3]
   14f3c:	e51b3008 	ldr	r3, [fp, #-8]
   14f40:	e283300c 	add	r3, r3, #12
   14f44:	e3a02000 	mov	r2, #0
   14f48:	e5832000 	str	r2, [r3]
   14f4c:	e1a00000 	nop			; (mov r0, r0)
   14f50:	ea000016 	b	14fb0 <ClearReg+0xe0>
   14f54:	e51b3008 	ldr	r3, [fp, #-8]
   14f58:	e3a02000 	mov	r2, #0
   14f5c:	e5832000 	str	r2, [r3]
   14f60:	ea000012 	b	14fb0 <ClearReg+0xe0>
   14f64:	e51b3008 	ldr	r3, [fp, #-8]
   14f68:	e59f2054 	ldr	r2, [pc, #84]	; 14fc4 <ClearReg+0xf4>
   14f6c:	e5922000 	ldr	r2, [r2]
   14f70:	e0623003 	rsb	r3, r2, r3
   14f74:	e3530b01 	cmp	r3, #1024	; 0x400
   14f78:	2a000003 	bcs	14f8c <ClearReg+0xbc>
   14f7c:	e51b3008 	ldr	r3, [fp, #-8]
   14f80:	e3a02000 	mov	r2, #0
   14f84:	e5832000 	str	r2, [r3]
   14f88:	ea000008 	b	14fb0 <ClearReg+0xe0>
   14f8c:	e51b3008 	ldr	r3, [fp, #-8]
   14f90:	e59f2030 	ldr	r2, [pc, #48]	; 14fc8 <ClearReg+0xf8>
   14f94:	e5922000 	ldr	r2, [r2]
   14f98:	e1530002 	cmp	r3, r2
   14f9c:	1a000003 	bne	14fb0 <ClearReg+0xe0>
   14fa0:	e59f3020 	ldr	r3, [pc, #32]	; 14fc8 <ClearReg+0xf8>
   14fa4:	e5933000 	ldr	r3, [r3]
   14fa8:	e3a02000 	mov	r2, #0
   14fac:	e5832000 	str	r2, [r3]
   14fb0:	e1a00000 	nop			; (mov r0, r0)
   14fb4:	e24bd000 	sub	sp, fp, #0
   14fb8:	e49db004 	pop	{fp}		; (ldr fp, [sp], #4)
   14fbc:	e12fff1e 	bx	lr
   14fc0:	000298a4 	.word	0x000298a4
   14fc4:	000298a8 	.word	0x000298a8
   14fc8:	000298ac 	.word	0x000298ac

00014fcc <SetReg>:
   14fcc:	e52db004 	push	{fp}		; (str fp, [sp, #-4]!)
   14fd0:	e28db000 	add	fp, sp, #0
   14fd4:	e24dd014 	sub	sp, sp, #20
   14fd8:	e50b0010 	str	r0, [fp, #-16]
   14fdc:	e51b3010 	ldr	r3, [fp, #-16]
   14fe0:	e59f2154 	ldr	r2, [pc, #340]	; 1513c <SetReg+0x170>
   14fe4:	e5922000 	ldr	r2, [r2]
   14fe8:	e0623003 	rsb	r3, r2, r3
   14fec:	e3530b01 	cmp	r3, #1024	; 0x400
   14ff0:	2a00001c 	bcs	15068 <SetReg+0x9c>
   14ff4:	e3e03000 	mvn	r3, #0
   14ff8:	e50b3008 	str	r3, [fp, #-8]
   14ffc:	e51b3010 	ldr	r3, [fp, #-16]
   15000:	e59f2134 	ldr	r2, [pc, #308]	; 1513c <SetReg+0x170>
   15004:	e5922000 	ldr	r2, [r2]
   15008:	e0623003 	rsb	r3, r2, r3
   1500c:	e3530044 	cmp	r3, #68	; 0x44
   15010:	1a000010 	bne	15058 <SetReg+0x8c>
   15014:	e51b3010 	ldr	r3, [fp, #-16]
   15018:	e51b2008 	ldr	r2, [fp, #-8]
   1501c:	e5832000 	str	r2, [r3]
   15020:	e51b3010 	ldr	r3, [fp, #-16]
   15024:	e2833004 	add	r3, r3, #4
   15028:	e51b2008 	ldr	r2, [fp, #-8]
   1502c:	e5832000 	str	r2, [r3]
   15030:	e51b3010 	ldr	r3, [fp, #-16]
   15034:	e2833008 	add	r3, r3, #8
   15038:	e51b2008 	ldr	r2, [fp, #-8]
   1503c:	e5832000 	str	r2, [r3]
   15040:	e51b3010 	ldr	r3, [fp, #-16]
   15044:	e283300c 	add	r3, r3, #12
   15048:	e51b2008 	ldr	r2, [fp, #-8]
   1504c:	e5832000 	str	r2, [r3]
   15050:	e1a00000 	nop			; (mov r0, r0)
   15054:	ea000034 	b	1512c <SetReg+0x160>
   15058:	e51b3010 	ldr	r3, [fp, #-16]
   1505c:	e51b2008 	ldr	r2, [fp, #-8]
   15060:	e5832000 	str	r2, [r3]
   15064:	ea000030 	b	1512c <SetReg+0x160>
   15068:	e51b3010 	ldr	r3, [fp, #-16]
   1506c:	e59f20cc 	ldr	r2, [pc, #204]	; 15140 <SetReg+0x174>
   15070:	e5922000 	ldr	r2, [r2]
   15074:	e0623003 	rsb	r3, r2, r3
   15078:	e3530b01 	cmp	r3, #1024	; 0x400
   1507c:	2a00001f 	bcs	15100 <SetReg+0x134>
   15080:	e51b3010 	ldr	r3, [fp, #-16]
   15084:	e59f20b4 	ldr	r2, [pc, #180]	; 15140 <SetReg+0x174>
   15088:	e5922000 	ldr	r2, [r2]
   1508c:	e0623003 	rsb	r3, r2, r3
   15090:	e3530c01 	cmp	r3, #256	; 0x100
   15094:	9a000013 	bls	150e8 <SetReg+0x11c>
   15098:	e51b3010 	ldr	r3, [fp, #-16]
   1509c:	e59f209c 	ldr	r2, [pc, #156]	; 15140 <SetReg+0x174>
   150a0:	e5922000 	ldr	r2, [r2]
   150a4:	e0623003 	rsb	r3, r2, r3
   150a8:	e3530c03 	cmp	r3, #768	; 0x300
   150ac:	2a00000d 	bcs	150e8 <SetReg+0x11c>
   150b0:	e51b3010 	ldr	r3, [fp, #-16]
   150b4:	e59f2084 	ldr	r2, [pc, #132]	; 15140 <SetReg+0x174>
   150b8:	e5922000 	ldr	r2, [r2]
   150bc:	e0623003 	rsb	r3, r2, r3
   150c0:	e203301f 	and	r3, r3, #31
   150c4:	e3530008 	cmp	r3, #8
   150c8:	1a000002 	bne	150d8 <SetReg+0x10c>
   150cc:	e59f3070 	ldr	r3, [pc, #112]	; 15144 <SetReg+0x178>
   150d0:	e50b3008 	str	r3, [fp, #-8]
   150d4:	ea000002 	b	150e4 <SetReg+0x118>
   150d8:	e3e03000 	mvn	r3, #0
   150dc:	e50b3008 	str	r3, [fp, #-8]
   150e0:	e1a00000 	nop			; (mov r0, r0)
   150e4:	ea000001 	b	150f0 <SetReg+0x124>
   150e8:	e3e03000 	mvn	r3, #0
   150ec:	e50b3008 	str	r3, [fp, #-8]
   150f0:	e51b3010 	ldr	r3, [fp, #-16]
   150f4:	e51b2008 	ldr	r2, [fp, #-8]
   150f8:	e5832000 	str	r2, [r3]
   150fc:	ea00000a 	b	1512c <SetReg+0x160>
   15100:	e51b3010 	ldr	r3, [fp, #-16]
   15104:	e59f203c 	ldr	r2, [pc, #60]	; 15148 <SetReg+0x17c>
   15108:	e5922000 	ldr	r2, [r2]
   1510c:	e1530002 	cmp	r3, r2
   15110:	1a000005 	bne	1512c <SetReg+0x160>
   15114:	e3e03000 	mvn	r3, #0
   15118:	e50b3008 	str	r3, [fp, #-8]
   1511c:	e59f3024 	ldr	r3, [pc, #36]	; 15148 <SetReg+0x17c>
   15120:	e5933000 	ldr	r3, [r3]
   15124:	e51b2008 	ldr	r2, [fp, #-8]
   15128:	e5832000 	str	r2, [r3]
   1512c:	e1a00000 	nop			; (mov r0, r0)
   15130:	e24bd000 	sub	sp, fp, #0
   15134:	e49db004 	pop	{fp}		; (ldr fp, [sp], #4)
   15138:	e12fff1e 	bx	lr
   1513c:	000298a4 	.word	0x000298a4
   15140:	000298a8 	.word	0x000298a8
   15144:	00003fff 	.word	0x00003fff
   15148:	000298ac 	.word	0x000298ac

0001514c <HcdReset>:
   1514c:	e92d4800 	push	{fp, lr}
   15150:	e28db004 	add	fp, sp, #4
   15154:	e24dd008 	sub	sp, sp, #8
   15158:	e3a03000 	mov	r3, #0
   1515c:	e50b3008 	str	r3, [fp, #-8]
   15160:	e59f30f8 	ldr	r3, [pc, #248]	; 15260 <HcdReset+0x114>
   15164:	e5933000 	ldr	r3, [r3]
   15168:	e2833010 	add	r3, r3, #16
   1516c:	e1a00003 	mov	r0, r3
   15170:	ebfffee5 	bl	14d0c <ReadBackReg>
   15174:	e51b3008 	ldr	r3, [fp, #-8]
   15178:	e2832001 	add	r2, r3, #1
   1517c:	e50b2008 	str	r2, [fp, #-8]
   15180:	e3530601 	cmp	r3, #1048576	; 0x100000
   15184:	3a000001 	bcc	15190 <HcdReset+0x44>
   15188:	e3e03003 	mvn	r3, #3
   1518c:	ea00002f 	b	15250 <HcdReset+0x104>
   15190:	e59f30c8 	ldr	r3, [pc, #200]	; 15260 <HcdReset+0x114>
   15194:	e5933000 	ldr	r3, [r3]
   15198:	e5d33013 	ldrb	r3, [r3, #19]
   1519c:	e20330ff 	and	r3, r3, #255	; 0xff
   151a0:	e1a033a3 	lsr	r3, r3, #7
   151a4:	e20330ff 	and	r3, r3, #255	; 0xff
   151a8:	e3530000 	cmp	r3, #0
   151ac:	0affffeb 	beq	15160 <HcdReset+0x14>
   151b0:	e59f30a8 	ldr	r3, [pc, #168]	; 15260 <HcdReset+0x114>
   151b4:	e5932000 	ldr	r2, [r3]
   151b8:	e5d23010 	ldrb	r3, [r2, #16]
   151bc:	e3833001 	orr	r3, r3, #1
   151c0:	e5c23010 	strb	r3, [r2, #16]
   151c4:	e59f3094 	ldr	r3, [pc, #148]	; 15260 <HcdReset+0x114>
   151c8:	e5933000 	ldr	r3, [r3]
   151cc:	e2833010 	add	r3, r3, #16
   151d0:	e1a00003 	mov	r0, r3
   151d4:	ebfffe6b 	bl	14b88 <WriteThroughReg>
   151d8:	e3a03000 	mov	r3, #0
   151dc:	e50b3008 	str	r3, [fp, #-8]
   151e0:	e59f3078 	ldr	r3, [pc, #120]	; 15260 <HcdReset+0x114>
   151e4:	e5933000 	ldr	r3, [r3]
   151e8:	e2833010 	add	r3, r3, #16
   151ec:	e1a00003 	mov	r0, r3
   151f0:	ebfffec5 	bl	14d0c <ReadBackReg>
   151f4:	e51b3008 	ldr	r3, [fp, #-8]
   151f8:	e2832001 	add	r2, r3, #1
   151fc:	e50b2008 	str	r2, [fp, #-8]
   15200:	e3530601 	cmp	r3, #1048576	; 0x100000
   15204:	3a000001 	bcc	15210 <HcdReset+0xc4>
   15208:	e3e03003 	mvn	r3, #3
   1520c:	ea00000f 	b	15250 <HcdReset+0x104>
   15210:	e59f3048 	ldr	r3, [pc, #72]	; 15260 <HcdReset+0x114>
   15214:	e5933000 	ldr	r3, [r3]
   15218:	e5d33010 	ldrb	r3, [r3, #16]
   1521c:	e2033001 	and	r3, r3, #1
   15220:	e20330ff 	and	r3, r3, #255	; 0xff
   15224:	e3530001 	cmp	r3, #1
   15228:	0affffec 	beq	151e0 <HcdReset+0x94>
   1522c:	e59f302c 	ldr	r3, [pc, #44]	; 15260 <HcdReset+0x114>
   15230:	e5933000 	ldr	r3, [r3]
   15234:	e5d33013 	ldrb	r3, [r3, #19]
   15238:	e20330ff 	and	r3, r3, #255	; 0xff
   1523c:	e1a033a3 	lsr	r3, r3, #7
   15240:	e20330ff 	and	r3, r3, #255	; 0xff
   15244:	e3530000 	cmp	r3, #0
   15248:	0affffe4 	beq	151e0 <HcdReset+0x94>
   1524c:	e3a03000 	mov	r3, #0
   15250:	e1a00003 	mov	r0, r3
   15254:	e24bd004 	sub	sp, fp, #4
   15258:	e8bd4800 	pop	{fp, lr}
   1525c:	e12fff1e 	bx	lr
   15260:	000298a4 	.word	0x000298a4

00015264 <HcdTransmitFifoFlush>:
   15264:	e92d4800 	push	{fp, lr}
   15268:	e28db004 	add	fp, sp, #4
   1526c:	e24dd010 	sub	sp, sp, #16
   15270:	e1a03000 	mov	r3, r0
   15274:	e54b300d 	strb	r3, [fp, #-13]
   15278:	e3a03000 	mov	r3, #0
   1527c:	e50b3008 	str	r3, [fp, #-8]
   15280:	e59f3100 	ldr	r3, [pc, #256]	; 15388 <HcdTransmitFifoFlush+0x124>
   15284:	e5933000 	ldr	r3, [r3]
   15288:	e2833010 	add	r3, r3, #16
   1528c:	e1a00003 	mov	r0, r3
   15290:	ebffff0e 	bl	14ed0 <ClearReg>
   15294:	e59f30ec 	ldr	r3, [pc, #236]	; 15388 <HcdTransmitFifoFlush+0x124>
   15298:	e5933000 	ldr	r3, [r3]
   1529c:	e55b200d 	ldrb	r2, [fp, #-13]
   152a0:	e202201f 	and	r2, r2, #31
   152a4:	e20220ff 	and	r2, r2, #255	; 0xff
   152a8:	e2021003 	and	r1, r2, #3
   152ac:	e1a0c301 	lsl	ip, r1, #6
   152b0:	e5d31010 	ldrb	r1, [r3, #16]
   152b4:	e201103f 	and	r1, r1, #63	; 0x3f
   152b8:	e1a00001 	mov	r0, r1
   152bc:	e1a0100c 	mov	r1, ip
   152c0:	e1801001 	orr	r1, r0, r1
   152c4:	e5c31010 	strb	r1, [r3, #16]
   152c8:	e1a02122 	lsr	r2, r2, #2
   152cc:	e20220ff 	and	r2, r2, #255	; 0xff
   152d0:	e2022007 	and	r2, r2, #7
   152d4:	e2020007 	and	r0, r2, #7
   152d8:	e5d32011 	ldrb	r2, [r3, #17]
   152dc:	e3c22007 	bic	r2, r2, #7
   152e0:	e1a01002 	mov	r1, r2
   152e4:	e1a02000 	mov	r2, r0
   152e8:	e1812002 	orr	r2, r1, r2
   152ec:	e5c32011 	strb	r2, [r3, #17]
   152f0:	e59f3090 	ldr	r3, [pc, #144]	; 15388 <HcdTransmitFifoFlush+0x124>
   152f4:	e5932000 	ldr	r2, [r3]
   152f8:	e5d23010 	ldrb	r3, [r2, #16]
   152fc:	e3833020 	orr	r3, r3, #32
   15300:	e5c23010 	strb	r3, [r2, #16]
   15304:	e59f307c 	ldr	r3, [pc, #124]	; 15388 <HcdTransmitFifoFlush+0x124>
   15308:	e5933000 	ldr	r3, [r3]
   1530c:	e2833010 	add	r3, r3, #16
   15310:	e1a00003 	mov	r0, r3
   15314:	ebfffe1b 	bl	14b88 <WriteThroughReg>
   15318:	e3a03000 	mov	r3, #0
   1531c:	e50b3008 	str	r3, [fp, #-8]
   15320:	e59f3060 	ldr	r3, [pc, #96]	; 15388 <HcdTransmitFifoFlush+0x124>
   15324:	e5933000 	ldr	r3, [r3]
   15328:	e2833010 	add	r3, r3, #16
   1532c:	e1a00003 	mov	r0, r3
   15330:	ebfffe75 	bl	14d0c <ReadBackReg>
   15334:	e51b3008 	ldr	r3, [fp, #-8]
   15338:	e2832001 	add	r2, r3, #1
   1533c:	e50b2008 	str	r2, [fp, #-8]
   15340:	e3530601 	cmp	r3, #1048576	; 0x100000
   15344:	3a000001 	bcc	15350 <HcdTransmitFifoFlush+0xec>
   15348:	e3e03003 	mvn	r3, #3
   1534c:	ea000009 	b	15378 <HcdTransmitFifoFlush+0x114>
   15350:	e59f3030 	ldr	r3, [pc, #48]	; 15388 <HcdTransmitFifoFlush+0x124>
   15354:	e5933000 	ldr	r3, [r3]
   15358:	e5d33010 	ldrb	r3, [r3, #16]
   1535c:	e20330ff 	and	r3, r3, #255	; 0xff
   15360:	e1a032a3 	lsr	r3, r3, #5
   15364:	e2033001 	and	r3, r3, #1
   15368:	e20330ff 	and	r3, r3, #255	; 0xff
   1536c:	e3530001 	cmp	r3, #1
   15370:	0affffea 	beq	15320 <HcdTransmitFifoFlush+0xbc>
   15374:	e3a03000 	mov	r3, #0
   15378:	e1a00003 	mov	r0, r3
   1537c:	e24bd004 	sub	sp, fp, #4
   15380:	e8bd4800 	pop	{fp, lr}
   15384:	e12fff1e 	bx	lr
   15388:	000298a4 	.word	0x000298a4

0001538c <HcdReceiveFifoFlush>:
   1538c:	e92d4800 	push	{fp, lr}
   15390:	e28db004 	add	fp, sp, #4
   15394:	e24dd008 	sub	sp, sp, #8
   15398:	e3a03000 	mov	r3, #0
   1539c:	e50b3008 	str	r3, [fp, #-8]
   153a0:	e59f30a4 	ldr	r3, [pc, #164]	; 1544c <HcdReceiveFifoFlush+0xc0>
   153a4:	e5933000 	ldr	r3, [r3]
   153a8:	e2833010 	add	r3, r3, #16
   153ac:	e1a00003 	mov	r0, r3
   153b0:	ebfffec6 	bl	14ed0 <ClearReg>
   153b4:	e59f3090 	ldr	r3, [pc, #144]	; 1544c <HcdReceiveFifoFlush+0xc0>
   153b8:	e5932000 	ldr	r2, [r3]
   153bc:	e5d23010 	ldrb	r3, [r2, #16]
   153c0:	e3833010 	orr	r3, r3, #16
   153c4:	e5c23010 	strb	r3, [r2, #16]
   153c8:	e59f307c 	ldr	r3, [pc, #124]	; 1544c <HcdReceiveFifoFlush+0xc0>
   153cc:	e5933000 	ldr	r3, [r3]
   153d0:	e2833010 	add	r3, r3, #16
   153d4:	e1a00003 	mov	r0, r3
   153d8:	ebfffdea 	bl	14b88 <WriteThroughReg>
   153dc:	e3a03000 	mov	r3, #0
   153e0:	e50b3008 	str	r3, [fp, #-8]
   153e4:	e59f3060 	ldr	r3, [pc, #96]	; 1544c <HcdReceiveFifoFlush+0xc0>
   153e8:	e5933000 	ldr	r3, [r3]
   153ec:	e2833010 	add	r3, r3, #16
   153f0:	e1a00003 	mov	r0, r3
   153f4:	ebfffe44 	bl	14d0c <ReadBackReg>
   153f8:	e51b3008 	ldr	r3, [fp, #-8]
   153fc:	e2832001 	add	r2, r3, #1
   15400:	e50b2008 	str	r2, [fp, #-8]
   15404:	e3530601 	cmp	r3, #1048576	; 0x100000
   15408:	3a000001 	bcc	15414 <HcdReceiveFifoFlush+0x88>
   1540c:	e3e03003 	mvn	r3, #3
   15410:	ea000009 	b	1543c <HcdReceiveFifoFlush+0xb0>
   15414:	e59f3030 	ldr	r3, [pc, #48]	; 1544c <HcdReceiveFifoFlush+0xc0>
   15418:	e5933000 	ldr	r3, [r3]
   1541c:	e5d33010 	ldrb	r3, [r3, #16]
   15420:	e20330ff 	and	r3, r3, #255	; 0xff
   15424:	e1a03223 	lsr	r3, r3, #4
   15428:	e2033001 	and	r3, r3, #1
   1542c:	e20330ff 	and	r3, r3, #255	; 0xff
   15430:	e3530001 	cmp	r3, #1
   15434:	0affffea 	beq	153e4 <HcdReceiveFifoFlush+0x58>
   15438:	e3a03000 	mov	r3, #0
   1543c:	e1a00003 	mov	r0, r3
   15440:	e24bd004 	sub	sp, fp, #4
   15444:	e8bd4800 	pop	{fp, lr}
   15448:	e12fff1e 	bx	lr
   1544c:	000298a4 	.word	0x000298a4

00015450 <HcdPrepareChannel>:
   15450:	e92d4830 	push	{r4, r5, fp, lr}
   15454:	e28db00c 	add	fp, sp, #12
   15458:	e24dd010 	sub	sp, sp, #16
   1545c:	e50b0010 	str	r0, [fp, #-16]
   15460:	e50b2018 	str	r2, [fp, #-24]	; 0xffffffe8
   15464:	e1a02003 	mov	r2, r3
   15468:	e1a03001 	mov	r3, r1
   1546c:	e54b3011 	strb	r3, [fp, #-17]	; 0xffffffef
   15470:	e1a03002 	mov	r3, r2
   15474:	e54b3012 	strb	r3, [fp, #-18]	; 0xffffffee
   15478:	e55b2011 	ldrb	r2, [fp, #-17]	; 0xffffffef
   1547c:	e59f3768 	ldr	r3, [pc, #1896]	; 15bec <HcdPrepareChannel+0x79c>
   15480:	e5933000 	ldr	r3, [r3]
   15484:	e5d31049 	ldrb	r1, [r3, #73]	; 0x49
   15488:	e20110ff 	and	r1, r1, #255	; 0xff
   1548c:	e1a01321 	lsr	r1, r1, #6
   15490:	e20110ff 	and	r1, r1, #255	; 0xff
   15494:	e5d3304a 	ldrb	r3, [r3, #74]	; 0x4a
   15498:	e20330ff 	and	r3, r3, #255	; 0xff
   1549c:	e2033003 	and	r3, r3, #3
   154a0:	e1a03103 	lsl	r3, r3, #2
   154a4:	e1833001 	orr	r3, r3, r1
   154a8:	e20330ff 	and	r3, r3, #255	; 0xff
   154ac:	e1520003 	cmp	r2, r3
   154b0:	da000001 	ble	154bc <HcdPrepareChannel+0x6c>
   154b4:	e3e03001 	mvn	r3, #1
   154b8:	ea0001c7 	b	15bdc <HcdPrepareChannel+0x78c>
   154bc:	e59f372c 	ldr	r3, [pc, #1836]	; 15bf0 <HcdPrepareChannel+0x7a0>
   154c0:	e5932000 	ldr	r2, [r3]
   154c4:	e55b3011 	ldrb	r3, [fp, #-17]	; 0xffffffef
   154c8:	e1a03283 	lsl	r3, r3, #5
   154cc:	e2833f42 	add	r3, r3, #264	; 0x108
   154d0:	e0823003 	add	r3, r2, r3
   154d4:	e1a00003 	mov	r0, r3
   154d8:	ebfffebb 	bl	14fcc <SetReg>
   154dc:	e59f370c 	ldr	r3, [pc, #1804]	; 15bf0 <HcdPrepareChannel+0x7a0>
   154e0:	e5932000 	ldr	r2, [r3]
   154e4:	e55b3011 	ldrb	r3, [fp, #-17]	; 0xffffffef
   154e8:	e1a03283 	lsl	r3, r3, #5
   154ec:	e2833f42 	add	r3, r3, #264	; 0x108
   154f0:	e0823003 	add	r3, r2, r3
   154f4:	e1a00003 	mov	r0, r3
   154f8:	ebfffda2 	bl	14b88 <WriteThroughReg>
   154fc:	e59f36ec 	ldr	r3, [pc, #1772]	; 15bf0 <HcdPrepareChannel+0x7a0>
   15500:	e5932000 	ldr	r2, [r3]
   15504:	e55b3011 	ldrb	r3, [fp, #-17]	; 0xffffffef
   15508:	e2833008 	add	r3, r3, #8
   1550c:	e1a03283 	lsl	r3, r3, #5
   15510:	e0823003 	add	r3, r2, r3
   15514:	e1a00003 	mov	r0, r3
   15518:	ebfffe6c 	bl	14ed0 <ClearReg>
   1551c:	e59f36cc 	ldr	r3, [pc, #1740]	; 15bf0 <HcdPrepareChannel+0x7a0>
   15520:	e5932000 	ldr	r2, [r3]
   15524:	e55b3011 	ldrb	r3, [fp, #-17]	; 0xffffffef
   15528:	e59b1004 	ldr	r1, [fp, #4]
   1552c:	e5d11001 	ldrb	r1, [r1, #1]
   15530:	e201107f 	and	r1, r1, #127	; 0x7f
   15534:	e20100ff 	and	r0, r1, #255	; 0xff
   15538:	e2831008 	add	r1, r3, #8
   1553c:	e200c003 	and	ip, r0, #3
   15540:	e1a03281 	lsl	r3, r1, #5
   15544:	e0823003 	add	r3, r2, r3
   15548:	e1a0430c 	lsl	r4, ip, #6
   1554c:	e5d3c002 	ldrb	ip, [r3, #2]
   15550:	e20cc03f 	and	ip, ip, #63	; 0x3f
   15554:	e1a0e00c 	mov	lr, ip
   15558:	e1a0c004 	mov	ip, r4
   1555c:	e18ec00c 	orr	ip, lr, ip
   15560:	e5c3c002 	strb	ip, [r3, #2]
   15564:	e1a03120 	lsr	r3, r0, #2
   15568:	e203001f 	and	r0, r3, #31
   1556c:	e1a03281 	lsl	r3, r1, #5
   15570:	e0823003 	add	r3, r2, r3
   15574:	e1a02000 	mov	r2, r0
   15578:	e202001f 	and	r0, r2, #31
   1557c:	e5d32003 	ldrb	r2, [r3, #3]
   15580:	e3c2201f 	bic	r2, r2, #31
   15584:	e1a01002 	mov	r1, r2
   15588:	e1a02000 	mov	r2, r0
   1558c:	e1812002 	orr	r2, r1, r2
   15590:	e5c32003 	strb	r2, [r3, #3]
   15594:	e59f3654 	ldr	r3, [pc, #1620]	; 15bf0 <HcdPrepareChannel+0x7a0>
   15598:	e5931000 	ldr	r1, [r3]
   1559c:	e55b3011 	ldrb	r3, [fp, #-17]	; 0xffffffef
   155a0:	e59b2004 	ldr	r2, [fp, #4]
   155a4:	e5d22000 	ldrb	r2, [r2]
   155a8:	e1a02222 	lsr	r2, r2, #4
   155ac:	e20220ff 	and	r2, r2, #255	; 0xff
   155b0:	e2833008 	add	r3, r3, #8
   155b4:	e1a03283 	lsl	r3, r3, #5
   155b8:	e0813003 	add	r3, r1, r3
   155bc:	e5d31001 	ldrb	r1, [r3, #1]
   155c0:	e202200f 	and	r2, r2, #15
   155c4:	e3c11078 	bic	r1, r1, #120	; 0x78
   155c8:	e1a02182 	lsl	r2, r2, #3
   155cc:	e1822001 	orr	r2, r2, r1
   155d0:	e1a01002 	mov	r1, r2
   155d4:	e5c31001 	strb	r1, [r3, #1]
   155d8:	e59f3610 	ldr	r3, [pc, #1552]	; 15bf0 <HcdPrepareChannel+0x7a0>
   155dc:	e5931000 	ldr	r1, [r3]
   155e0:	e55b3011 	ldrb	r3, [fp, #-17]	; 0xffffffef
   155e4:	e59b2004 	ldr	r2, [fp, #4]
   155e8:	e5d22002 	ldrb	r2, [r2, #2]
   155ec:	e1a02122 	lsr	r2, r2, #2
   155f0:	e2022001 	and	r2, r2, #1
   155f4:	e20220ff 	and	r2, r2, #255	; 0xff
   155f8:	e2833008 	add	r3, r3, #8
   155fc:	e1a03283 	lsl	r3, r3, #5
   15600:	e0813003 	add	r3, r1, r3
   15604:	e5d31001 	ldrb	r1, [r3, #1]
   15608:	e2022001 	and	r2, r2, #1
   1560c:	e3c11080 	bic	r1, r1, #128	; 0x80
   15610:	e1a02382 	lsl	r2, r2, #7
   15614:	e1822001 	orr	r2, r2, r1
   15618:	e1a01002 	mov	r1, r2
   1561c:	e5c31001 	strb	r1, [r3, #1]
   15620:	e59f35c8 	ldr	r3, [pc, #1480]	; 15bf0 <HcdPrepareChannel+0x7a0>
   15624:	e5931000 	ldr	r1, [r3]
   15628:	e55b3011 	ldrb	r3, [fp, #-17]	; 0xffffffef
   1562c:	e59b2004 	ldr	r2, [fp, #4]
   15630:	e5d22000 	ldrb	r2, [r2]
   15634:	e202200c 	and	r2, r2, #12
   15638:	e20220ff 	and	r2, r2, #255	; 0xff
   1563c:	e3520008 	cmp	r2, #8
   15640:	03a02001 	moveq	r2, #1
   15644:	13a02000 	movne	r2, #0
   15648:	e20220ff 	and	r2, r2, #255	; 0xff
   1564c:	e2833008 	add	r3, r3, #8
   15650:	e1a03283 	lsl	r3, r3, #5
   15654:	e0813003 	add	r3, r1, r3
   15658:	e5d31002 	ldrb	r1, [r3, #2]
   1565c:	e2022001 	and	r2, r2, #1
   15660:	e3c11002 	bic	r1, r1, #2
   15664:	e1a02082 	lsl	r2, r2, #1
   15668:	e1822001 	orr	r2, r2, r1
   1566c:	e1a01002 	mov	r1, r2
   15670:	e5c31002 	strb	r1, [r3, #2]
   15674:	e59f3574 	ldr	r3, [pc, #1396]	; 15bf0 <HcdPrepareChannel+0x7a0>
   15678:	e5931000 	ldr	r1, [r3]
   1567c:	e55b3011 	ldrb	r3, [fp, #-17]	; 0xffffffef
   15680:	e59b2004 	ldr	r2, [fp, #4]
   15684:	e5d22002 	ldrb	r2, [r2, #2]
   15688:	e2022003 	and	r2, r2, #3
   1568c:	e20220ff 	and	r2, r2, #255	; 0xff
   15690:	e2833008 	add	r3, r3, #8
   15694:	e1a03283 	lsl	r3, r3, #5
   15698:	e0813003 	add	r3, r1, r3
   1569c:	e5d31002 	ldrb	r1, [r3, #2]
   156a0:	e2022003 	and	r2, r2, #3
   156a4:	e3c1100c 	bic	r1, r1, #12
   156a8:	e1a02102 	lsl	r2, r2, #2
   156ac:	e1822001 	orr	r2, r2, r1
   156b0:	e1a01002 	mov	r1, r2
   156b4:	e5c31002 	strb	r1, [r3, #2]
   156b8:	e59f3530 	ldr	r3, [pc, #1328]	; 15bf0 <HcdPrepareChannel+0x7a0>
   156bc:	e5934000 	ldr	r4, [r3]
   156c0:	e55b5011 	ldrb	r5, [fp, #-17]	; 0xffffffef
   156c4:	e59b3004 	ldr	r3, [fp, #4]
   156c8:	e5d33000 	ldrb	r3, [r3]
   156cc:	e2033003 	and	r3, r3, #3
   156d0:	e20330ff 	and	r3, r3, #255	; 0xff
   156d4:	e1a00003 	mov	r0, r3
   156d8:	ebfffd0b 	bl	14b0c <SizeToNumber>
   156dc:	e1a03000 	mov	r3, r0
   156e0:	e1a03803 	lsl	r3, r3, #16
   156e4:	e1a03823 	lsr	r3, r3, #16
   156e8:	e1a03a83 	lsl	r3, r3, #21
   156ec:	e1a03aa3 	lsr	r3, r3, #21
   156f0:	e1a03803 	lsl	r3, r3, #16
   156f4:	e1a02823 	lsr	r2, r3, #16
   156f8:	e2853008 	add	r3, r5, #8
   156fc:	e20210ff 	and	r1, r2, #255	; 0xff
   15700:	e7d40283 	ldrb	r0, [r4, r3, lsl #5]
   15704:	e3a00000 	mov	r0, #0
   15708:	e1801001 	orr	r1, r0, r1
   1570c:	e7c41283 	strb	r1, [r4, r3, lsl #5]
   15710:	e1a02422 	lsr	r2, r2, #8
   15714:	e2022007 	and	r2, r2, #7
   15718:	e1a03283 	lsl	r3, r3, #5
   1571c:	e0843003 	add	r3, r4, r3
   15720:	e2020007 	and	r0, r2, #7
   15724:	e5d32001 	ldrb	r2, [r3, #1]
   15728:	e3c22007 	bic	r2, r2, #7
   1572c:	e1a01002 	mov	r1, r2
   15730:	e1a02000 	mov	r2, r0
   15734:	e1812002 	orr	r2, r1, r2
   15738:	e5c32001 	strb	r2, [r3, #1]
   1573c:	e59f34ac 	ldr	r3, [pc, #1196]	; 15bf0 <HcdPrepareChannel+0x7a0>
   15740:	e5932000 	ldr	r2, [r3]
   15744:	e55b3011 	ldrb	r3, [fp, #-17]	; 0xffffffef
   15748:	e2833008 	add	r3, r3, #8
   1574c:	e1a03283 	lsl	r3, r3, #5
   15750:	e0823003 	add	r3, r2, r3
   15754:	e5d32003 	ldrb	r2, [r3, #3]
   15758:	e3c22080 	bic	r2, r2, #128	; 0x80
   1575c:	e5c32003 	strb	r2, [r3, #3]
   15760:	e59f3488 	ldr	r3, [pc, #1160]	; 15bf0 <HcdPrepareChannel+0x7a0>
   15764:	e5932000 	ldr	r2, [r3]
   15768:	e55b3011 	ldrb	r3, [fp, #-17]	; 0xffffffef
   1576c:	e2833008 	add	r3, r3, #8
   15770:	e1a03283 	lsl	r3, r3, #5
   15774:	e0823003 	add	r3, r2, r3
   15778:	e5d32003 	ldrb	r2, [r3, #3]
   1577c:	e3c22040 	bic	r2, r2, #64	; 0x40
   15780:	e5c32003 	strb	r2, [r3, #3]
   15784:	e59f3464 	ldr	r3, [pc, #1124]	; 15bf0 <HcdPrepareChannel+0x7a0>
   15788:	e5932000 	ldr	r2, [r3]
   1578c:	e55b3011 	ldrb	r3, [fp, #-17]	; 0xffffffef
   15790:	e2833008 	add	r3, r3, #8
   15794:	e1a03283 	lsl	r3, r3, #5
   15798:	e0823003 	add	r3, r2, r3
   1579c:	e1a00003 	mov	r0, r3
   157a0:	ebfffcf8 	bl	14b88 <WriteThroughReg>
   157a4:	e59f3444 	ldr	r3, [pc, #1092]	; 15bf0 <HcdPrepareChannel+0x7a0>
   157a8:	e5932000 	ldr	r2, [r3]
   157ac:	e55b3011 	ldrb	r3, [fp, #-17]	; 0xffffffef
   157b0:	e2833008 	add	r3, r3, #8
   157b4:	e1a03283 	lsl	r3, r3, #5
   157b8:	e0823003 	add	r3, r2, r3
   157bc:	e2833004 	add	r3, r3, #4
   157c0:	e1a00003 	mov	r0, r3
   157c4:	ebfffdc1 	bl	14ed0 <ClearReg>
   157c8:	e59b3004 	ldr	r3, [fp, #4]
   157cc:	e5d33000 	ldrb	r3, [r3]
   157d0:	e203300c 	and	r3, r3, #12
   157d4:	e20330ff 	and	r3, r3, #255	; 0xff
   157d8:	e3530000 	cmp	r3, #0
   157dc:	0a000034 	beq	158b4 <HcdPrepareChannel+0x464>
   157e0:	e59f3408 	ldr	r3, [pc, #1032]	; 15bf0 <HcdPrepareChannel+0x7a0>
   157e4:	e5932000 	ldr	r2, [r3]
   157e8:	e55b3011 	ldrb	r3, [fp, #-17]	; 0xffffffef
   157ec:	e2833008 	add	r3, r3, #8
   157f0:	e1a03283 	lsl	r3, r3, #5
   157f4:	e0823003 	add	r3, r2, r3
   157f8:	e5d32007 	ldrb	r2, [r3, #7]
   157fc:	e3822080 	orr	r2, r2, #128	; 0x80
   15800:	e5c32007 	strb	r2, [r3, #7]
   15804:	e59f33e4 	ldr	r3, [pc, #996]	; 15bf0 <HcdPrepareChannel+0x7a0>
   15808:	e5931000 	ldr	r1, [r3]
   1580c:	e55b3011 	ldrb	r3, [fp, #-17]	; 0xffffffef
   15810:	e51b2010 	ldr	r2, [fp, #-16]
   15814:	e592240c 	ldr	r2, [r2, #1036]	; 0x40c
   15818:	e5922000 	ldr	r2, [r2]
   1581c:	e20220ff 	and	r2, r2, #255	; 0xff
   15820:	e202207f 	and	r2, r2, #127	; 0x7f
   15824:	e20220ff 	and	r2, r2, #255	; 0xff
   15828:	e2833008 	add	r3, r3, #8
   1582c:	e1a03283 	lsl	r3, r3, #5
   15830:	e0813003 	add	r3, r1, r3
   15834:	e2021001 	and	r1, r2, #1
   15838:	e1a0c381 	lsl	ip, r1, #7
   1583c:	e5d31004 	ldrb	r1, [r3, #4]
   15840:	e201107f 	and	r1, r1, #127	; 0x7f
   15844:	e1a00001 	mov	r0, r1
   15848:	e1a0100c 	mov	r1, ip
   1584c:	e1801001 	orr	r1, r0, r1
   15850:	e5c31004 	strb	r1, [r3, #4]
   15854:	e1a020a2 	lsr	r2, r2, #1
   15858:	e202203f 	and	r2, r2, #63	; 0x3f
   1585c:	e202003f 	and	r0, r2, #63	; 0x3f
   15860:	e5d32005 	ldrb	r2, [r3, #5]
   15864:	e3c2203f 	bic	r2, r2, #63	; 0x3f
   15868:	e1a01002 	mov	r1, r2
   1586c:	e1a02000 	mov	r2, r0
   15870:	e1812002 	orr	r2, r1, r2
   15874:	e5c32005 	strb	r2, [r3, #5]
   15878:	e59f3370 	ldr	r3, [pc, #880]	; 15bf0 <HcdPrepareChannel+0x7a0>
   1587c:	e5932000 	ldr	r2, [r3]
   15880:	e55b3011 	ldrb	r3, [fp, #-17]	; 0xffffffef
   15884:	e51b1010 	ldr	r1, [fp, #-16]
   15888:	e5d11007 	ldrb	r1, [r1, #7]
   1588c:	e201107f 	and	r1, r1, #127	; 0x7f
   15890:	e20110ff 	and	r1, r1, #255	; 0xff
   15894:	e2833008 	add	r3, r3, #8
   15898:	e1a03283 	lsl	r3, r3, #5
   1589c:	e0823003 	add	r3, r2, r3
   158a0:	e5d32004 	ldrb	r2, [r3, #4]
   158a4:	e201107f 	and	r1, r1, #127	; 0x7f
   158a8:	e3c2207f 	bic	r2, r2, #127	; 0x7f
   158ac:	e1812002 	orr	r2, r1, r2
   158b0:	e5c32004 	strb	r2, [r3, #4]
   158b4:	e59f3334 	ldr	r3, [pc, #820]	; 15bf0 <HcdPrepareChannel+0x7a0>
   158b8:	e5932000 	ldr	r2, [r3]
   158bc:	e55b3011 	ldrb	r3, [fp, #-17]	; 0xffffffef
   158c0:	e2833008 	add	r3, r3, #8
   158c4:	e1a03283 	lsl	r3, r3, #5
   158c8:	e0823003 	add	r3, r2, r3
   158cc:	e2833004 	add	r3, r3, #4
   158d0:	e1a00003 	mov	r0, r3
   158d4:	ebfffcab 	bl	14b88 <WriteThroughReg>
   158d8:	e59f3310 	ldr	r3, [pc, #784]	; 15bf0 <HcdPrepareChannel+0x7a0>
   158dc:	e5932000 	ldr	r2, [r3]
   158e0:	e55b3011 	ldrb	r3, [fp, #-17]	; 0xffffffef
   158e4:	e1a03283 	lsl	r3, r3, #5
   158e8:	e2833e11 	add	r3, r3, #272	; 0x110
   158ec:	e0823003 	add	r3, r2, r3
   158f0:	e1a00003 	mov	r0, r3
   158f4:	ebfffd75 	bl	14ed0 <ClearReg>
   158f8:	e59f32f0 	ldr	r3, [pc, #752]	; 15bf0 <HcdPrepareChannel+0x7a0>
   158fc:	e5931000 	ldr	r1, [r3]
   15900:	e55b3011 	ldrb	r3, [fp, #-17]	; 0xffffffef
   15904:	e51b2018 	ldr	r2, [fp, #-24]	; 0xffffffe8
   15908:	e3c224ff 	bic	r2, r2, #-16777216	; 0xff000000
   1590c:	e3c2273e 	bic	r2, r2, #16252928	; 0xf80000
   15910:	e1a03283 	lsl	r3, r3, #5
   15914:	e0813003 	add	r3, r1, r3
   15918:	e20210ff 	and	r1, r2, #255	; 0xff
   1591c:	e5d30110 	ldrb	r0, [r3, #272]	; 0x110
   15920:	e3a00000 	mov	r0, #0
   15924:	e1801001 	orr	r1, r0, r1
   15928:	e5c31110 	strb	r1, [r3, #272]	; 0x110
   1592c:	e1a01422 	lsr	r1, r2, #8
   15930:	e20110ff 	and	r1, r1, #255	; 0xff
   15934:	e5d30111 	ldrb	r0, [r3, #273]	; 0x111
   15938:	e3a00000 	mov	r0, #0
   1593c:	e1801001 	orr	r1, r0, r1
   15940:	e5c31111 	strb	r1, [r3, #273]	; 0x111
   15944:	e1a02822 	lsr	r2, r2, #16
   15948:	e2022007 	and	r2, r2, #7
   1594c:	e2020007 	and	r0, r2, #7
   15950:	e5d32112 	ldrb	r2, [r3, #274]	; 0x112
   15954:	e3c22007 	bic	r2, r2, #7
   15958:	e1a01002 	mov	r1, r2
   1595c:	e1a02000 	mov	r2, r0
   15960:	e1812002 	orr	r2, r1, r2
   15964:	e5c32112 	strb	r2, [r3, #274]	; 0x112
   15968:	e59b3004 	ldr	r3, [fp, #4]
   1596c:	e5d33000 	ldrb	r3, [r3]
   15970:	e203300c 	and	r3, r3, #12
   15974:	e20330ff 	and	r3, r3, #255	; 0xff
   15978:	e3530008 	cmp	r3, #8
   1597c:	1a00001f 	bne	15a00 <HcdPrepareChannel+0x5b0>
   15980:	e59f3268 	ldr	r3, [pc, #616]	; 15bf0 <HcdPrepareChannel+0x7a0>
   15984:	e5931000 	ldr	r1, [r3]
   15988:	e55b0011 	ldrb	r0, [fp, #-17]	; 0xffffffef
   1598c:	e51b3018 	ldr	r3, [fp, #-24]	; 0xffffffe8
   15990:	e2833007 	add	r3, r3, #7
   15994:	e1a031a3 	lsr	r3, r3, #3
   15998:	e1a03803 	lsl	r3, r3, #16
   1599c:	e1a03823 	lsr	r3, r3, #16
   159a0:	e1a03b03 	lsl	r3, r3, #22
   159a4:	e1a03b23 	lsr	r3, r3, #22
   159a8:	e1a03803 	lsl	r3, r3, #16
   159ac:	e1a02823 	lsr	r2, r3, #16
   159b0:	e1a03280 	lsl	r3, r0, #5
   159b4:	e0813003 	add	r3, r1, r3
   159b8:	e202101f 	and	r1, r2, #31
   159bc:	e1a0c181 	lsl	ip, r1, #3
   159c0:	e5d31112 	ldrb	r1, [r3, #274]	; 0x112
   159c4:	e2011007 	and	r1, r1, #7
   159c8:	e1a00001 	mov	r0, r1
   159cc:	e1a0100c 	mov	r1, ip
   159d0:	e1801001 	orr	r1, r0, r1
   159d4:	e5c31112 	strb	r1, [r3, #274]	; 0x112
   159d8:	e1a022a2 	lsr	r2, r2, #5
   159dc:	e202201f 	and	r2, r2, #31
   159e0:	e202001f 	and	r0, r2, #31
   159e4:	e5d32113 	ldrb	r2, [r3, #275]	; 0x113
   159e8:	e3c2201f 	bic	r2, r2, #31
   159ec:	e1a01002 	mov	r1, r2
   159f0:	e1a02000 	mov	r2, r0
   159f4:	e1812002 	orr	r2, r1, r2
   159f8:	e5c32113 	strb	r2, [r3, #275]	; 0x113
   159fc:	ea000040 	b	15b04 <HcdPrepareChannel+0x6b4>
   15a00:	e59f31e8 	ldr	r3, [pc, #488]	; 15bf0 <HcdPrepareChannel+0x7a0>
   15a04:	e5934000 	ldr	r4, [r3]
   15a08:	e55b5011 	ldrb	r5, [fp, #-17]	; 0xffffffef
   15a0c:	e59f31dc 	ldr	r3, [pc, #476]	; 15bf0 <HcdPrepareChannel+0x7a0>
   15a10:	e5932000 	ldr	r2, [r3]
   15a14:	e55b3011 	ldrb	r3, [fp, #-17]	; 0xffffffef
   15a18:	e2833008 	add	r3, r3, #8
   15a1c:	e7d21283 	ldrb	r1, [r2, r3, lsl #5]
   15a20:	e20110ff 	and	r1, r1, #255	; 0xff
   15a24:	e1a03283 	lsl	r3, r3, #5
   15a28:	e0823003 	add	r3, r2, r3
   15a2c:	e5d33001 	ldrb	r3, [r3, #1]
   15a30:	e20330ff 	and	r3, r3, #255	; 0xff
   15a34:	e2033007 	and	r3, r3, #7
   15a38:	e1a03403 	lsl	r3, r3, #8
   15a3c:	e1833001 	orr	r3, r3, r1
   15a40:	e1a03803 	lsl	r3, r3, #16
   15a44:	e1a03823 	lsr	r3, r3, #16
   15a48:	e1a02003 	mov	r2, r3
   15a4c:	e51b3018 	ldr	r3, [fp, #-24]	; 0xffffffe8
   15a50:	e0823003 	add	r3, r2, r3
   15a54:	e2430001 	sub	r0, r3, #1
   15a58:	e59f3190 	ldr	r3, [pc, #400]	; 15bf0 <HcdPrepareChannel+0x7a0>
   15a5c:	e5932000 	ldr	r2, [r3]
   15a60:	e55b3011 	ldrb	r3, [fp, #-17]	; 0xffffffef
   15a64:	e2833008 	add	r3, r3, #8
   15a68:	e7d21283 	ldrb	r1, [r2, r3, lsl #5]
   15a6c:	e20110ff 	and	r1, r1, #255	; 0xff
   15a70:	e1a03283 	lsl	r3, r3, #5
   15a74:	e0823003 	add	r3, r2, r3
   15a78:	e5d33001 	ldrb	r3, [r3, #1]
   15a7c:	e20330ff 	and	r3, r3, #255	; 0xff
   15a80:	e2033007 	and	r3, r3, #7
   15a84:	e1a03403 	lsl	r3, r3, #8
   15a88:	e1833001 	orr	r3, r3, r1
   15a8c:	e1a03803 	lsl	r3, r3, #16
   15a90:	e1a03823 	lsr	r3, r3, #16
   15a94:	e1a01003 	mov	r1, r3
   15a98:	eb000bfc 	bl	18a90 <__aeabi_uidiv>
   15a9c:	e1a03000 	mov	r3, r0
   15aa0:	e1a03803 	lsl	r3, r3, #16
   15aa4:	e1a03823 	lsr	r3, r3, #16
   15aa8:	e1a03b03 	lsl	r3, r3, #22
   15aac:	e1a03b23 	lsr	r3, r3, #22
   15ab0:	e1a03803 	lsl	r3, r3, #16
   15ab4:	e1a02823 	lsr	r2, r3, #16
   15ab8:	e1a03285 	lsl	r3, r5, #5
   15abc:	e0843003 	add	r3, r4, r3
   15ac0:	e202101f 	and	r1, r2, #31
   15ac4:	e1a0c181 	lsl	ip, r1, #3
   15ac8:	e5d31112 	ldrb	r1, [r3, #274]	; 0x112
   15acc:	e2011007 	and	r1, r1, #7
   15ad0:	e1a00001 	mov	r0, r1
   15ad4:	e1a0100c 	mov	r1, ip
   15ad8:	e1801001 	orr	r1, r0, r1
   15adc:	e5c31112 	strb	r1, [r3, #274]	; 0x112
   15ae0:	e1a022a2 	lsr	r2, r2, #5
   15ae4:	e202201f 	and	r2, r2, #31
   15ae8:	e202001f 	and	r0, r2, #31
   15aec:	e5d32113 	ldrb	r2, [r3, #275]	; 0x113
   15af0:	e3c2201f 	bic	r2, r2, #31
   15af4:	e1a01002 	mov	r1, r2
   15af8:	e1a02000 	mov	r2, r0
   15afc:	e1812002 	orr	r2, r1, r2
   15b00:	e5c32113 	strb	r2, [r3, #275]	; 0x113
   15b04:	e59f30e4 	ldr	r3, [pc, #228]	; 15bf0 <HcdPrepareChannel+0x7a0>
   15b08:	e5932000 	ldr	r2, [r3]
   15b0c:	e55b3011 	ldrb	r3, [fp, #-17]	; 0xffffffef
   15b10:	e1a03283 	lsl	r3, r3, #5
   15b14:	e0823003 	add	r3, r2, r3
   15b18:	e5d32112 	ldrb	r2, [r3, #274]	; 0x112
   15b1c:	e20220ff 	and	r2, r2, #255	; 0xff
   15b20:	e1a021a2 	lsr	r2, r2, #3
   15b24:	e20220ff 	and	r2, r2, #255	; 0xff
   15b28:	e5d33113 	ldrb	r3, [r3, #275]	; 0x113
   15b2c:	e20330ff 	and	r3, r3, #255	; 0xff
   15b30:	e203301f 	and	r3, r3, #31
   15b34:	e1a03283 	lsl	r3, r3, #5
   15b38:	e1833002 	orr	r3, r3, r2
   15b3c:	e1a03803 	lsl	r3, r3, #16
   15b40:	e1a03823 	lsr	r3, r3, #16
   15b44:	e3530000 	cmp	r3, #0
   15b48:	1a00000b 	bne	15b7c <HcdPrepareChannel+0x72c>
   15b4c:	e59f309c 	ldr	r3, [pc, #156]	; 15bf0 <HcdPrepareChannel+0x7a0>
   15b50:	e5932000 	ldr	r2, [r3]
   15b54:	e55b3011 	ldrb	r3, [fp, #-17]	; 0xffffffef
   15b58:	e1a03283 	lsl	r3, r3, #5
   15b5c:	e0823003 	add	r3, r2, r3
   15b60:	e5d32112 	ldrb	r2, [r3, #274]	; 0x112
   15b64:	e2022007 	and	r2, r2, #7
   15b68:	e3822008 	orr	r2, r2, #8
   15b6c:	e5c32112 	strb	r2, [r3, #274]	; 0x112
   15b70:	e5d32113 	ldrb	r2, [r3, #275]	; 0x113
   15b74:	e3c2201f 	bic	r2, r2, #31
   15b78:	e5c32113 	strb	r2, [r3, #275]	; 0x113
   15b7c:	e59f306c 	ldr	r3, [pc, #108]	; 15bf0 <HcdPrepareChannel+0x7a0>
   15b80:	e5931000 	ldr	r1, [r3]
   15b84:	e55b3011 	ldrb	r3, [fp, #-17]	; 0xffffffef
   15b88:	e55b2012 	ldrb	r2, [fp, #-18]	; 0xffffffee
   15b8c:	e2022003 	and	r2, r2, #3
   15b90:	e20220ff 	and	r2, r2, #255	; 0xff
   15b94:	e1a03283 	lsl	r3, r3, #5
   15b98:	e0813003 	add	r3, r1, r3
   15b9c:	e5d31113 	ldrb	r1, [r3, #275]	; 0x113
   15ba0:	e2022003 	and	r2, r2, #3
   15ba4:	e3c11060 	bic	r1, r1, #96	; 0x60
   15ba8:	e1a02282 	lsl	r2, r2, #5
   15bac:	e1822001 	orr	r2, r2, r1
   15bb0:	e1a01002 	mov	r1, r2
   15bb4:	e5c31113 	strb	r1, [r3, #275]	; 0x113
   15bb8:	e59f3030 	ldr	r3, [pc, #48]	; 15bf0 <HcdPrepareChannel+0x7a0>
   15bbc:	e5932000 	ldr	r2, [r3]
   15bc0:	e55b3011 	ldrb	r3, [fp, #-17]	; 0xffffffef
   15bc4:	e1a03283 	lsl	r3, r3, #5
   15bc8:	e2833e11 	add	r3, r3, #272	; 0x110
   15bcc:	e0823003 	add	r3, r2, r3
   15bd0:	e1a00003 	mov	r0, r3
   15bd4:	ebfffbeb 	bl	14b88 <WriteThroughReg>
   15bd8:	e3a03000 	mov	r3, #0
   15bdc:	e1a00003 	mov	r0, r3
   15be0:	e24bd00c 	sub	sp, fp, #12
   15be4:	e8bd4830 	pop	{r4, r5, fp, lr}
   15be8:	e12fff1e 	bx	lr
   15bec:	000298a4 	.word	0x000298a4
   15bf0:	000298a8 	.word	0x000298a8

00015bf4 <HcdTransmitChannel>:
   15bf4:	e92d4800 	push	{fp, lr}
   15bf8:	e28db004 	add	fp, sp, #4
   15bfc:	e24dd008 	sub	sp, sp, #8
   15c00:	e1a03000 	mov	r3, r0
   15c04:	e50b100c 	str	r1, [fp, #-12]
   15c08:	e54b3005 	strb	r3, [fp, #-5]
   15c0c:	e59f31ac 	ldr	r3, [pc, #428]	; 15dc0 <HcdTransmitChannel+0x1cc>
   15c10:	e5932000 	ldr	r2, [r3]
   15c14:	e55b3005 	ldrb	r3, [fp, #-5]
   15c18:	e2833008 	add	r3, r3, #8
   15c1c:	e1a03283 	lsl	r3, r3, #5
   15c20:	e0823003 	add	r3, r2, r3
   15c24:	e2833004 	add	r3, r3, #4
   15c28:	e1a00003 	mov	r0, r3
   15c2c:	ebfffc36 	bl	14d0c <ReadBackReg>
   15c30:	e59f3188 	ldr	r3, [pc, #392]	; 15dc0 <HcdTransmitChannel+0x1cc>
   15c34:	e5932000 	ldr	r2, [r3]
   15c38:	e55b3005 	ldrb	r3, [fp, #-5]
   15c3c:	e2833008 	add	r3, r3, #8
   15c40:	e1a03283 	lsl	r3, r3, #5
   15c44:	e0823003 	add	r3, r2, r3
   15c48:	e5d32006 	ldrb	r2, [r3, #6]
   15c4c:	e3c22001 	bic	r2, r2, #1
   15c50:	e5c32006 	strb	r2, [r3, #6]
   15c54:	e59f3164 	ldr	r3, [pc, #356]	; 15dc0 <HcdTransmitChannel+0x1cc>
   15c58:	e5932000 	ldr	r2, [r3]
   15c5c:	e55b3005 	ldrb	r3, [fp, #-5]
   15c60:	e2833008 	add	r3, r3, #8
   15c64:	e1a03283 	lsl	r3, r3, #5
   15c68:	e0823003 	add	r3, r2, r3
   15c6c:	e2833004 	add	r3, r3, #4
   15c70:	e1a00003 	mov	r0, r3
   15c74:	ebfffbc3 	bl	14b88 <WriteThroughReg>
   15c78:	e59f3140 	ldr	r3, [pc, #320]	; 15dc0 <HcdTransmitChannel+0x1cc>
   15c7c:	e5932000 	ldr	r2, [r3]
   15c80:	e55b3005 	ldrb	r3, [fp, #-5]
   15c84:	e1a03283 	lsl	r3, r3, #5
   15c88:	e0823003 	add	r3, r2, r3
   15c8c:	e55b200c 	ldrb	r2, [fp, #-12]
   15c90:	e5d31114 	ldrb	r1, [r3, #276]	; 0x114
   15c94:	e3a01000 	mov	r1, #0
   15c98:	e1812002 	orr	r2, r1, r2
   15c9c:	e5c32114 	strb	r2, [r3, #276]	; 0x114
   15ca0:	e55b200b 	ldrb	r2, [fp, #-11]
   15ca4:	e5d31115 	ldrb	r1, [r3, #277]	; 0x115
   15ca8:	e3a01000 	mov	r1, #0
   15cac:	e1812002 	orr	r2, r1, r2
   15cb0:	e5c32115 	strb	r2, [r3, #277]	; 0x115
   15cb4:	e55b200a 	ldrb	r2, [fp, #-10]
   15cb8:	e5d31116 	ldrb	r1, [r3, #278]	; 0x116
   15cbc:	e3a01000 	mov	r1, #0
   15cc0:	e1812002 	orr	r2, r1, r2
   15cc4:	e5c32116 	strb	r2, [r3, #278]	; 0x116
   15cc8:	e55b2009 	ldrb	r2, [fp, #-9]
   15ccc:	e5d31117 	ldrb	r1, [r3, #279]	; 0x117
   15cd0:	e3a01000 	mov	r1, #0
   15cd4:	e1812002 	orr	r2, r1, r2
   15cd8:	e5c32117 	strb	r2, [r3, #279]	; 0x117
   15cdc:	e59f30dc 	ldr	r3, [pc, #220]	; 15dc0 <HcdTransmitChannel+0x1cc>
   15ce0:	e5932000 	ldr	r2, [r3]
   15ce4:	e55b3005 	ldrb	r3, [fp, #-5]
   15ce8:	e1a03283 	lsl	r3, r3, #5
   15cec:	e2833e11 	add	r3, r3, #272	; 0x110
   15cf0:	e0823003 	add	r3, r2, r3
   15cf4:	e2833004 	add	r3, r3, #4
   15cf8:	e1a00003 	mov	r0, r3
   15cfc:	ebfffba1 	bl	14b88 <WriteThroughReg>
   15d00:	e59f30b8 	ldr	r3, [pc, #184]	; 15dc0 <HcdTransmitChannel+0x1cc>
   15d04:	e5932000 	ldr	r2, [r3]
   15d08:	e55b3005 	ldrb	r3, [fp, #-5]
   15d0c:	e2833008 	add	r3, r3, #8
   15d10:	e1a03283 	lsl	r3, r3, #5
   15d14:	e0823003 	add	r3, r2, r3
   15d18:	e1a00003 	mov	r0, r3
   15d1c:	ebfffbfa 	bl	14d0c <ReadBackReg>
   15d20:	e59f3098 	ldr	r3, [pc, #152]	; 15dc0 <HcdTransmitChannel+0x1cc>
   15d24:	e5932000 	ldr	r2, [r3]
   15d28:	e55b3005 	ldrb	r3, [fp, #-5]
   15d2c:	e2833008 	add	r3, r3, #8
   15d30:	e1a03283 	lsl	r3, r3, #5
   15d34:	e0823003 	add	r3, r2, r3
   15d38:	e5d32002 	ldrb	r2, [r3, #2]
   15d3c:	e3c22020 	bic	r2, r2, #32
   15d40:	e3822010 	orr	r2, r2, #16
   15d44:	e5c32002 	strb	r2, [r3, #2]
   15d48:	e59f3070 	ldr	r3, [pc, #112]	; 15dc0 <HcdTransmitChannel+0x1cc>
   15d4c:	e5932000 	ldr	r2, [r3]
   15d50:	e55b3005 	ldrb	r3, [fp, #-5]
   15d54:	e2833008 	add	r3, r3, #8
   15d58:	e1a03283 	lsl	r3, r3, #5
   15d5c:	e0823003 	add	r3, r2, r3
   15d60:	e5d32003 	ldrb	r2, [r3, #3]
   15d64:	e3822080 	orr	r2, r2, #128	; 0x80
   15d68:	e5c32003 	strb	r2, [r3, #3]
   15d6c:	e59f304c 	ldr	r3, [pc, #76]	; 15dc0 <HcdTransmitChannel+0x1cc>
   15d70:	e5932000 	ldr	r2, [r3]
   15d74:	e55b3005 	ldrb	r3, [fp, #-5]
   15d78:	e2833008 	add	r3, r3, #8
   15d7c:	e1a03283 	lsl	r3, r3, #5
   15d80:	e0823003 	add	r3, r2, r3
   15d84:	e5d32003 	ldrb	r2, [r3, #3]
   15d88:	e3c22040 	bic	r2, r2, #64	; 0x40
   15d8c:	e5c32003 	strb	r2, [r3, #3]
   15d90:	e59f3028 	ldr	r3, [pc, #40]	; 15dc0 <HcdTransmitChannel+0x1cc>
   15d94:	e5932000 	ldr	r2, [r3]
   15d98:	e55b3005 	ldrb	r3, [fp, #-5]
   15d9c:	e2833008 	add	r3, r3, #8
   15da0:	e1a03283 	lsl	r3, r3, #5
   15da4:	e0823003 	add	r3, r2, r3
   15da8:	e1a00003 	mov	r0, r3
   15dac:	ebfffb75 	bl	14b88 <WriteThroughReg>
   15db0:	e1a00000 	nop			; (mov r0, r0)
   15db4:	e24bd004 	sub	sp, fp, #4
   15db8:	e8bd4800 	pop	{fp, lr}
   15dbc:	e12fff1e 	bx	lr
   15dc0:	000298a8 	.word	0x000298a8

00015dc4 <HcdChannelInterruptToError>:
   15dc4:	e52db004 	push	{fp}		; (str fp, [sp, #-4]!)
   15dc8:	e28db000 	add	fp, sp, #0
   15dcc:	e24dd01c 	sub	sp, sp, #28
   15dd0:	e50b0010 	str	r0, [fp, #-16]
   15dd4:	e50b1014 	str	r1, [fp, #-20]	; 0xffffffec
   15dd8:	e1a03002 	mov	r3, r2
   15ddc:	e54b3015 	strb	r3, [fp, #-21]	; 0xffffffeb
   15de0:	e3a03000 	mov	r3, #0
   15de4:	e54b3005 	strb	r3, [fp, #-5]
   15de8:	e55b3014 	ldrb	r3, [fp, #-20]	; 0xffffffec
   15dec:	e2033004 	and	r3, r3, #4
   15df0:	e20330ff 	and	r3, r3, #255	; 0xff
   15df4:	e3530000 	cmp	r3, #0
   15df8:	0a000004 	beq	15e10 <HcdChannelInterruptToError+0x4c>
   15dfc:	e51b3010 	ldr	r3, [fp, #-16]
   15e00:	e3a02c01 	mov	r2, #256	; 0x100
   15e04:	e5832008 	str	r2, [r3, #8]
   15e08:	e3e03003 	mvn	r3, #3
   15e0c:	ea000057 	b	15f70 <HcdChannelInterruptToError+0x1ac>
   15e10:	e55b3014 	ldrb	r3, [fp, #-20]	; 0xffffffec
   15e14:	e2033008 	and	r3, r3, #8
   15e18:	e20330ff 	and	r3, r3, #255	; 0xff
   15e1c:	e3530000 	cmp	r3, #0
   15e20:	0a000004 	beq	15e38 <HcdChannelInterruptToError+0x74>
   15e24:	e51b3010 	ldr	r3, [fp, #-16]
   15e28:	e3a02002 	mov	r2, #2
   15e2c:	e5832008 	str	r2, [r3, #8]
   15e30:	e3e03003 	mvn	r3, #3
   15e34:	ea00004d 	b	15f70 <HcdChannelInterruptToError+0x1ac>
   15e38:	e55b3014 	ldrb	r3, [fp, #-20]	; 0xffffffec
   15e3c:	e2033010 	and	r3, r3, #16
   15e40:	e20330ff 	and	r3, r3, #255	; 0xff
   15e44:	e3530000 	cmp	r3, #0
   15e48:	0a000004 	beq	15e60 <HcdChannelInterruptToError+0x9c>
   15e4c:	e51b3010 	ldr	r3, [fp, #-16]
   15e50:	e3a02010 	mov	r2, #16
   15e54:	e5832008 	str	r2, [r3, #8]
   15e58:	e3e03003 	mvn	r3, #3
   15e5c:	ea000043 	b	15f70 <HcdChannelInterruptToError+0x1ac>
   15e60:	e55b3014 	ldrb	r3, [fp, #-20]	; 0xffffffec
   15e64:	e2033020 	and	r3, r3, #32
   15e68:	e20330ff 	and	r3, r3, #255	; 0xff
   15e6c:	e3530000 	cmp	r3, #0
   15e70:	1a000001 	bne	15e7c <HcdChannelInterruptToError+0xb8>
   15e74:	e3e03007 	mvn	r3, #7
   15e78:	e54b3005 	strb	r3, [fp, #-5]
   15e7c:	e55b3014 	ldrb	r3, [fp, #-20]	; 0xffffffec
   15e80:	e2033040 	and	r3, r3, #64	; 0x40
   15e84:	e20330ff 	and	r3, r3, #255	; 0xff
   15e88:	e3530000 	cmp	r3, #0
   15e8c:	0a000004 	beq	15ea4 <HcdChannelInterruptToError+0xe0>
   15e90:	e51b3010 	ldr	r3, [fp, #-16]
   15e94:	e3a02c02 	mov	r2, #512	; 0x200
   15e98:	e5832008 	str	r2, [r3, #8]
   15e9c:	e3e03003 	mvn	r3, #3
   15ea0:	ea000032 	b	15f70 <HcdChannelInterruptToError+0x1ac>
   15ea4:	e55b3013 	ldrb	r3, [fp, #-19]	; 0xffffffed
   15ea8:	e2033001 	and	r3, r3, #1
   15eac:	e20330ff 	and	r3, r3, #255	; 0xff
   15eb0:	e3530000 	cmp	r3, #0
   15eb4:	0a000004 	beq	15ecc <HcdChannelInterruptToError+0x108>
   15eb8:	e51b3010 	ldr	r3, [fp, #-16]
   15ebc:	e3a02008 	mov	r2, #8
   15ec0:	e5832008 	str	r2, [r3, #8]
   15ec4:	e3e03003 	mvn	r3, #3
   15ec8:	ea000028 	b	15f70 <HcdChannelInterruptToError+0x1ac>
   15ecc:	e55b3013 	ldrb	r3, [fp, #-19]	; 0xffffffed
   15ed0:	e2033002 	and	r3, r3, #2
   15ed4:	e20330ff 	and	r3, r3, #255	; 0xff
   15ed8:	e3530000 	cmp	r3, #0
   15edc:	0a000004 	beq	15ef4 <HcdChannelInterruptToError+0x130>
   15ee0:	e51b3010 	ldr	r3, [fp, #-16]
   15ee4:	e3a02004 	mov	r2, #4
   15ee8:	e5832008 	str	r2, [r3, #8]
   15eec:	e3e03003 	mvn	r3, #3
   15ef0:	ea00001e 	b	15f70 <HcdChannelInterruptToError+0x1ac>
   15ef4:	e55b3013 	ldrb	r3, [fp, #-19]	; 0xffffffed
   15ef8:	e2033004 	and	r3, r3, #4
   15efc:	e20330ff 	and	r3, r3, #255	; 0xff
   15f00:	e3530000 	cmp	r3, #0
   15f04:	0a000004 	beq	15f1c <HcdChannelInterruptToError+0x158>
   15f08:	e51b3010 	ldr	r3, [fp, #-16]
   15f0c:	e3a02040 	mov	r2, #64	; 0x40
   15f10:	e5832008 	str	r2, [r3, #8]
   15f14:	e3e03003 	mvn	r3, #3
   15f18:	ea000014 	b	15f70 <HcdChannelInterruptToError+0x1ac>
   15f1c:	e55b3014 	ldrb	r3, [fp, #-20]	; 0xffffffec
   15f20:	e3c3307f 	bic	r3, r3, #127	; 0x7f
   15f24:	e20330ff 	and	r3, r3, #255	; 0xff
   15f28:	e3530000 	cmp	r3, #0
   15f2c:	0a000004 	beq	15f44 <HcdChannelInterruptToError+0x180>
   15f30:	e51b3010 	ldr	r3, [fp, #-16]
   15f34:	e3a02080 	mov	r2, #128	; 0x80
   15f38:	e5832008 	str	r2, [r3, #8]
   15f3c:	e3e03003 	mvn	r3, #3
   15f40:	ea00000a 	b	15f70 <HcdChannelInterruptToError+0x1ac>
   15f44:	e55b3014 	ldrb	r3, [fp, #-20]	; 0xffffffec
   15f48:	e2033001 	and	r3, r3, #1
   15f4c:	e20330ff 	and	r3, r3, #255	; 0xff
   15f50:	e3530000 	cmp	r3, #0
   15f54:	1a000004 	bne	15f6c <HcdChannelInterruptToError+0x1a8>
   15f58:	e55b3015 	ldrb	r3, [fp, #-21]	; 0xffffffeb
   15f5c:	e3530000 	cmp	r3, #0
   15f60:	0a000001 	beq	15f6c <HcdChannelInterruptToError+0x1a8>
   15f64:	e3e03007 	mvn	r3, #7
   15f68:	e54b3005 	strb	r3, [fp, #-5]
   15f6c:	e15b30d5 	ldrsb	r3, [fp, #-5]
   15f70:	e1a00003 	mov	r0, r3
   15f74:	e24bd000 	sub	sp, fp, #0
   15f78:	e49db004 	pop	{fp}		; (ldr fp, [sp], #4)
   15f7c:	e12fff1e 	bx	lr

00015f80 <HcdChannelSendWaitOne>:
   15f80:	e92d4800 	push	{fp, lr}
   15f84:	e28db004 	add	fp, sp, #4
   15f88:	e24dd028 	sub	sp, sp, #40	; 0x28
   15f8c:	e50b0020 	str	r0, [fp, #-32]	; 0xffffffe0
   15f90:	e50b1024 	str	r1, [fp, #-36]	; 0xffffffdc
   15f94:	e50b302c 	str	r3, [fp, #-44]	; 0xffffffd4
   15f98:	e1a03002 	mov	r3, r2
   15f9c:	e54b3025 	strb	r3, [fp, #-37]	; 0xffffffdb
   15fa0:	e3a03000 	mov	r3, #0
   15fa4:	e50b3010 	str	r3, [fp, #-16]
   15fa8:	e3a03000 	mov	r3, #0
   15fac:	e50b3014 	str	r3, [fp, #-20]	; 0xffffffec
   15fb0:	ea000182 	b	165c0 <HcdChannelSendWaitOne+0x640>
   15fb4:	e59f3710 	ldr	r3, [pc, #1808]	; 166cc <HcdChannelSendWaitOne+0x74c>
   15fb8:	e5932000 	ldr	r2, [r3]
   15fbc:	e55b3025 	ldrb	r3, [fp, #-37]	; 0xffffffdb
   15fc0:	e1a03283 	lsl	r3, r3, #5
   15fc4:	e2833f42 	add	r3, r3, #264	; 0x108
   15fc8:	e0823003 	add	r3, r2, r3
   15fcc:	e1a00003 	mov	r0, r3
   15fd0:	ebfffbfd 	bl	14fcc <SetReg>
   15fd4:	e59f36f0 	ldr	r3, [pc, #1776]	; 166cc <HcdChannelSendWaitOne+0x74c>
   15fd8:	e5932000 	ldr	r2, [r3]
   15fdc:	e55b3025 	ldrb	r3, [fp, #-37]	; 0xffffffdb
   15fe0:	e1a03283 	lsl	r3, r3, #5
   15fe4:	e2833f42 	add	r3, r3, #264	; 0x108
   15fe8:	e0823003 	add	r3, r2, r3
   15fec:	e1a00003 	mov	r0, r3
   15ff0:	ebfffae4 	bl	14b88 <WriteThroughReg>
   15ff4:	e59f36d0 	ldr	r3, [pc, #1744]	; 166cc <HcdChannelSendWaitOne+0x74c>
   15ff8:	e5932000 	ldr	r2, [r3]
   15ffc:	e55b3025 	ldrb	r3, [fp, #-37]	; 0xffffffdb
   16000:	e1a03283 	lsl	r3, r3, #5
   16004:	e2833e11 	add	r3, r3, #272	; 0x110
   16008:	e0823003 	add	r3, r2, r3
   1600c:	e1a00003 	mov	r0, r3
   16010:	ebfffb3d 	bl	14d0c <ReadBackReg>
   16014:	e59f36b0 	ldr	r3, [pc, #1712]	; 166cc <HcdChannelSendWaitOne+0x74c>
   16018:	e5932000 	ldr	r2, [r3]
   1601c:	e55b3025 	ldrb	r3, [fp, #-37]	; 0xffffffdb
   16020:	e2833008 	add	r3, r3, #8
   16024:	e1a03283 	lsl	r3, r3, #5
   16028:	e0823003 	add	r3, r2, r3
   1602c:	e2833004 	add	r3, r3, #4
   16030:	e1a00003 	mov	r0, r3
   16034:	ebfffb34 	bl	14d0c <ReadBackReg>
   16038:	e51b202c 	ldr	r2, [fp, #-44]	; 0xffffffd4
   1603c:	e59b3008 	ldr	r3, [fp, #8]
   16040:	e0822003 	add	r2, r2, r3
   16044:	e55b3025 	ldrb	r3, [fp, #-37]	; 0xffffffdb
   16048:	e1a01002 	mov	r1, r2
   1604c:	e1a00003 	mov	r0, r3
   16050:	ebfffee7 	bl	15bf4 <HcdTransmitChannel>
   16054:	e3a03000 	mov	r3, #0
   16058:	e50b3008 	str	r3, [fp, #-8]
   1605c:	e51b3008 	ldr	r3, [fp, #-8]
   16060:	e2832001 	add	r2, r3, #1
   16064:	e50b2008 	str	r2, [fp, #-8]
   16068:	e59f2660 	ldr	r2, [pc, #1632]	; 166d0 <HcdChannelSendWaitOne+0x750>
   1606c:	e1530002 	cmp	r3, r2
   16070:	1a000004 	bne	16088 <HcdChannelSendWaitOne+0x108>
   16074:	e51b3020 	ldr	r3, [fp, #-32]	; 0xffffffe0
   16078:	e3a02080 	mov	r2, #128	; 0x80
   1607c:	e5832008 	str	r2, [r3, #8]
   16080:	e3e03007 	mvn	r3, #7
   16084:	ea00018c 	b	166bc <HcdChannelSendWaitOne+0x73c>
   16088:	e59f363c 	ldr	r3, [pc, #1596]	; 166cc <HcdChannelSendWaitOne+0x74c>
   1608c:	e5932000 	ldr	r2, [r3]
   16090:	e55b3025 	ldrb	r3, [fp, #-37]	; 0xffffffdb
   16094:	e1a03283 	lsl	r3, r3, #5
   16098:	e2833f42 	add	r3, r3, #264	; 0x108
   1609c:	e0823003 	add	r3, r2, r3
   160a0:	e1a00003 	mov	r0, r3
   160a4:	ebfffb18 	bl	14d0c <ReadBackReg>
   160a8:	e59f361c 	ldr	r3, [pc, #1564]	; 166cc <HcdChannelSendWaitOne+0x74c>
   160ac:	e5932000 	ldr	r2, [r3]
   160b0:	e55b3025 	ldrb	r3, [fp, #-37]	; 0xffffffdb
   160b4:	e1a03283 	lsl	r3, r3, #5
   160b8:	e0823003 	add	r3, r2, r3
   160bc:	e5d33108 	ldrb	r3, [r3, #264]	; 0x108
   160c0:	e20330ff 	and	r3, r3, #255	; 0xff
   160c4:	e1a030a3 	lsr	r3, r3, #1
   160c8:	e2033001 	and	r3, r3, #1
   160cc:	e20330ff 	and	r3, r3, #255	; 0xff
   160d0:	e3530000 	cmp	r3, #0
   160d4:	1a000002 	bne	160e4 <HcdChannelSendWaitOne+0x164>
   160d8:	e3a0000a 	mov	r0, #10
   160dc:	eb0009d4 	bl	18834 <MicroDelay>
   160e0:	eaffffdd 	b	1605c <HcdChannelSendWaitOne+0xdc>
   160e4:	e1a00000 	nop			; (mov r0, r0)
   160e8:	e59f35dc 	ldr	r3, [pc, #1500]	; 166cc <HcdChannelSendWaitOne+0x74c>
   160ec:	e5932000 	ldr	r2, [r3]
   160f0:	e55b3025 	ldrb	r3, [fp, #-37]	; 0xffffffdb
   160f4:	e1a03283 	lsl	r3, r3, #5
   160f8:	e2833e11 	add	r3, r3, #272	; 0x110
   160fc:	e0823003 	add	r3, r2, r3
   16100:	e1a00003 	mov	r0, r3
   16104:	ebfffb00 	bl	14d0c <ReadBackReg>
   16108:	e59f35bc 	ldr	r3, [pc, #1468]	; 166cc <HcdChannelSendWaitOne+0x74c>
   1610c:	e5932000 	ldr	r2, [r3]
   16110:	e55b3025 	ldrb	r3, [fp, #-37]	; 0xffffffdb
   16114:	e2833008 	add	r3, r3, #8
   16118:	e1a03283 	lsl	r3, r3, #5
   1611c:	e0823003 	add	r3, r2, r3
   16120:	e5d33007 	ldrb	r3, [r3, #7]
   16124:	e20330ff 	and	r3, r3, #255	; 0xff
   16128:	e1a033a3 	lsr	r3, r3, #7
   1612c:	e20330ff 	and	r3, r3, #255	; 0xff
   16130:	e3530000 	cmp	r3, #0
   16134:	0a0000f0 	beq	164fc <HcdChannelSendWaitOne+0x57c>
   16138:	e59f358c 	ldr	r3, [pc, #1420]	; 166cc <HcdChannelSendWaitOne+0x74c>
   1613c:	e5932000 	ldr	r2, [r3]
   16140:	e55b3025 	ldrb	r3, [fp, #-37]	; 0xffffffdb
   16144:	e1a03283 	lsl	r3, r3, #5
   16148:	e0823003 	add	r3, r2, r3
   1614c:	e5d33108 	ldrb	r3, [r3, #264]	; 0x108
   16150:	e20330ff 	and	r3, r3, #255	; 0xff
   16154:	e1a032a3 	lsr	r3, r3, #5
   16158:	e2033001 	and	r3, r3, #1
   1615c:	e20330ff 	and	r3, r3, #255	; 0xff
   16160:	e3530000 	cmp	r3, #0
   16164:	0a0000c4 	beq	1647c <HcdChannelSendWaitOne+0x4fc>
   16168:	e3a03000 	mov	r3, #0
   1616c:	e50b300c 	str	r3, [fp, #-12]
   16170:	ea000078 	b	16358 <HcdChannelSendWaitOne+0x3d8>
   16174:	e59f3550 	ldr	r3, [pc, #1360]	; 166cc <HcdChannelSendWaitOne+0x74c>
   16178:	e5932000 	ldr	r2, [r3]
   1617c:	e55b3025 	ldrb	r3, [fp, #-37]	; 0xffffffdb
   16180:	e1a03283 	lsl	r3, r3, #5
   16184:	e2833f42 	add	r3, r3, #264	; 0x108
   16188:	e0823003 	add	r3, r2, r3
   1618c:	e1a00003 	mov	r0, r3
   16190:	ebfffb8d 	bl	14fcc <SetReg>
   16194:	e59f3530 	ldr	r3, [pc, #1328]	; 166cc <HcdChannelSendWaitOne+0x74c>
   16198:	e5932000 	ldr	r2, [r3]
   1619c:	e55b3025 	ldrb	r3, [fp, #-37]	; 0xffffffdb
   161a0:	e1a03283 	lsl	r3, r3, #5
   161a4:	e2833f42 	add	r3, r3, #264	; 0x108
   161a8:	e0823003 	add	r3, r2, r3
   161ac:	e1a00003 	mov	r0, r3
   161b0:	ebfffa74 	bl	14b88 <WriteThroughReg>
   161b4:	e59f3510 	ldr	r3, [pc, #1296]	; 166cc <HcdChannelSendWaitOne+0x74c>
   161b8:	e5932000 	ldr	r2, [r3]
   161bc:	e55b3025 	ldrb	r3, [fp, #-37]	; 0xffffffdb
   161c0:	e2833008 	add	r3, r3, #8
   161c4:	e1a03283 	lsl	r3, r3, #5
   161c8:	e0823003 	add	r3, r2, r3
   161cc:	e2833004 	add	r3, r3, #4
   161d0:	e1a00003 	mov	r0, r3
   161d4:	ebfffacc 	bl	14d0c <ReadBackReg>
   161d8:	e59f34ec 	ldr	r3, [pc, #1260]	; 166cc <HcdChannelSendWaitOne+0x74c>
   161dc:	e5932000 	ldr	r2, [r3]
   161e0:	e55b3025 	ldrb	r3, [fp, #-37]	; 0xffffffdb
   161e4:	e2833008 	add	r3, r3, #8
   161e8:	e1a03283 	lsl	r3, r3, #5
   161ec:	e0823003 	add	r3, r2, r3
   161f0:	e5d32006 	ldrb	r2, [r3, #6]
   161f4:	e3822001 	orr	r2, r2, #1
   161f8:	e5c32006 	strb	r2, [r3, #6]
   161fc:	e59f34c8 	ldr	r3, [pc, #1224]	; 166cc <HcdChannelSendWaitOne+0x74c>
   16200:	e5932000 	ldr	r2, [r3]
   16204:	e55b3025 	ldrb	r3, [fp, #-37]	; 0xffffffdb
   16208:	e2833008 	add	r3, r3, #8
   1620c:	e1a03283 	lsl	r3, r3, #5
   16210:	e0823003 	add	r3, r2, r3
   16214:	e2833004 	add	r3, r3, #4
   16218:	e1a00003 	mov	r0, r3
   1621c:	ebfffa59 	bl	14b88 <WriteThroughReg>
   16220:	e59f34a4 	ldr	r3, [pc, #1188]	; 166cc <HcdChannelSendWaitOne+0x74c>
   16224:	e5932000 	ldr	r2, [r3]
   16228:	e55b3025 	ldrb	r3, [fp, #-37]	; 0xffffffdb
   1622c:	e2833008 	add	r3, r3, #8
   16230:	e1a03283 	lsl	r3, r3, #5
   16234:	e0823003 	add	r3, r2, r3
   16238:	e5d32003 	ldrb	r2, [r3, #3]
   1623c:	e3822080 	orr	r2, r2, #128	; 0x80
   16240:	e5c32003 	strb	r2, [r3, #3]
   16244:	e59f3480 	ldr	r3, [pc, #1152]	; 166cc <HcdChannelSendWaitOne+0x74c>
   16248:	e5932000 	ldr	r2, [r3]
   1624c:	e55b3025 	ldrb	r3, [fp, #-37]	; 0xffffffdb
   16250:	e2833008 	add	r3, r3, #8
   16254:	e1a03283 	lsl	r3, r3, #5
   16258:	e0823003 	add	r3, r2, r3
   1625c:	e5d32003 	ldrb	r2, [r3, #3]
   16260:	e3c22040 	bic	r2, r2, #64	; 0x40
   16264:	e5c32003 	strb	r2, [r3, #3]
   16268:	e59f345c 	ldr	r3, [pc, #1116]	; 166cc <HcdChannelSendWaitOne+0x74c>
   1626c:	e5932000 	ldr	r2, [r3]
   16270:	e55b3025 	ldrb	r3, [fp, #-37]	; 0xffffffdb
   16274:	e2833008 	add	r3, r3, #8
   16278:	e1a03283 	lsl	r3, r3, #5
   1627c:	e0823003 	add	r3, r2, r3
   16280:	e1a00003 	mov	r0, r3
   16284:	ebfffa3f 	bl	14b88 <WriteThroughReg>
   16288:	e3a03000 	mov	r3, #0
   1628c:	e50b3008 	str	r3, [fp, #-8]
   16290:	e51b3008 	ldr	r3, [fp, #-8]
   16294:	e2832001 	add	r2, r3, #1
   16298:	e50b2008 	str	r2, [fp, #-8]
   1629c:	e59f242c 	ldr	r2, [pc, #1068]	; 166d0 <HcdChannelSendWaitOne+0x750>
   162a0:	e1530002 	cmp	r3, r2
   162a4:	1a000004 	bne	162bc <HcdChannelSendWaitOne+0x33c>
   162a8:	e51b3020 	ldr	r3, [fp, #-32]	; 0xffffffe0
   162ac:	e3a02080 	mov	r2, #128	; 0x80
   162b0:	e5832008 	str	r2, [r3, #8]
   162b4:	e3e03007 	mvn	r3, #7
   162b8:	ea0000ff 	b	166bc <HcdChannelSendWaitOne+0x73c>
   162bc:	e59f3408 	ldr	r3, [pc, #1032]	; 166cc <HcdChannelSendWaitOne+0x74c>
   162c0:	e5932000 	ldr	r2, [r3]
   162c4:	e55b3025 	ldrb	r3, [fp, #-37]	; 0xffffffdb
   162c8:	e1a03283 	lsl	r3, r3, #5
   162cc:	e2833f42 	add	r3, r3, #264	; 0x108
   162d0:	e0823003 	add	r3, r2, r3
   162d4:	e1a00003 	mov	r0, r3
   162d8:	ebfffa8b 	bl	14d0c <ReadBackReg>
   162dc:	e59f33e8 	ldr	r3, [pc, #1000]	; 166cc <HcdChannelSendWaitOne+0x74c>
   162e0:	e5932000 	ldr	r2, [r3]
   162e4:	e55b3025 	ldrb	r3, [fp, #-37]	; 0xffffffdb
   162e8:	e1a03283 	lsl	r3, r3, #5
   162ec:	e0823003 	add	r3, r2, r3
   162f0:	e5d33108 	ldrb	r3, [r3, #264]	; 0x108
   162f4:	e20330ff 	and	r3, r3, #255	; 0xff
   162f8:	e1a030a3 	lsr	r3, r3, #1
   162fc:	e2033001 	and	r3, r3, #1
   16300:	e20330ff 	and	r3, r3, #255	; 0xff
   16304:	e3530000 	cmp	r3, #0
   16308:	1a000002 	bne	16318 <HcdChannelSendWaitOne+0x398>
   1630c:	e3a00064 	mov	r0, #100	; 0x64
   16310:	eb000947 	bl	18834 <MicroDelay>
   16314:	eaffffdd 	b	16290 <HcdChannelSendWaitOne+0x310>
   16318:	e1a00000 	nop			; (mov r0, r0)
   1631c:	e59f33a8 	ldr	r3, [pc, #936]	; 166cc <HcdChannelSendWaitOne+0x74c>
   16320:	e5932000 	ldr	r2, [r3]
   16324:	e55b3025 	ldrb	r3, [fp, #-37]	; 0xffffffdb
   16328:	e1a03283 	lsl	r3, r3, #5
   1632c:	e0823003 	add	r3, r2, r3
   16330:	e5d33108 	ldrb	r3, [r3, #264]	; 0x108
   16334:	e20330ff 	and	r3, r3, #255	; 0xff
   16338:	e1a03323 	lsr	r3, r3, #6
   1633c:	e2033001 	and	r3, r3, #1
   16340:	e20330ff 	and	r3, r3, #255	; 0xff
   16344:	e3530000 	cmp	r3, #0
   16348:	0a000006 	beq	16368 <HcdChannelSendWaitOne+0x3e8>
   1634c:	e51b300c 	ldr	r3, [fp, #-12]
   16350:	e2833001 	add	r3, r3, #1
   16354:	e50b300c 	str	r3, [fp, #-12]
   16358:	e51b300c 	ldr	r3, [fp, #-12]
   1635c:	e3530002 	cmp	r3, #2
   16360:	9affff83 	bls	16174 <HcdChannelSendWaitOne+0x1f4>
   16364:	ea000000 	b	1636c <HcdChannelSendWaitOne+0x3ec>
   16368:	e1a00000 	nop			; (mov r0, r0)
   1636c:	e51b300c 	ldr	r3, [fp, #-12]
   16370:	e3530003 	cmp	r3, #3
   16374:	1a000002 	bne	16384 <HcdChannelSendWaitOne+0x404>
   16378:	e59f0354 	ldr	r0, [pc, #852]	; 166d4 <HcdChannelSendWaitOne+0x754>
   1637c:	eb00092c 	bl	18834 <MicroDelay>
   16380:	ea000088 	b	165a8 <HcdChannelSendWaitOne+0x628>
   16384:	e59f3340 	ldr	r3, [pc, #832]	; 166cc <HcdChannelSendWaitOne+0x74c>
   16388:	e5932000 	ldr	r2, [r3]
   1638c:	e55b3025 	ldrb	r3, [fp, #-37]	; 0xffffffdb
   16390:	e1a03283 	lsl	r3, r3, #5
   16394:	e0823003 	add	r3, r2, r3
   16398:	e5d33108 	ldrb	r3, [r3, #264]	; 0x108
   1639c:	e20330ff 	and	r3, r3, #255	; 0xff
   163a0:	e1a03223 	lsr	r3, r3, #4
   163a4:	e2033001 	and	r3, r3, #1
   163a8:	e20330ff 	and	r3, r3, #255	; 0xff
   163ac:	e3530000 	cmp	r3, #0
   163b0:	0a000005 	beq	163cc <HcdChannelSendWaitOne+0x44c>
   163b4:	e51b3010 	ldr	r3, [fp, #-16]
   163b8:	e2433001 	sub	r3, r3, #1
   163bc:	e50b3010 	str	r3, [fp, #-16]
   163c0:	e59f030c 	ldr	r0, [pc, #780]	; 166d4 <HcdChannelSendWaitOne+0x754>
   163c4:	eb00091a 	bl	18834 <MicroDelay>
   163c8:	ea000076 	b	165a8 <HcdChannelSendWaitOne+0x628>
   163cc:	e59f32f8 	ldr	r3, [pc, #760]	; 166cc <HcdChannelSendWaitOne+0x74c>
   163d0:	e5932000 	ldr	r2, [r3]
   163d4:	e55b3025 	ldrb	r3, [fp, #-37]	; 0xffffffdb
   163d8:	e1a03283 	lsl	r3, r3, #5
   163dc:	e0823003 	add	r3, r2, r3
   163e0:	e5d33108 	ldrb	r3, [r3, #264]	; 0x108
   163e4:	e20330ff 	and	r3, r3, #255	; 0xff
   163e8:	e1a033a3 	lsr	r3, r3, #7
   163ec:	e20330ff 	and	r3, r3, #255	; 0xff
   163f0:	e3530000 	cmp	r3, #0
   163f4:	0a000002 	beq	16404 <HcdChannelSendWaitOne+0x484>
   163f8:	e59f02d4 	ldr	r0, [pc, #724]	; 166d4 <HcdChannelSendWaitOne+0x754>
   163fc:	eb00090c 	bl	18834 <MicroDelay>
   16400:	ea000068 	b	165a8 <HcdChannelSendWaitOne+0x628>
   16404:	e59f32c0 	ldr	r3, [pc, #704]	; 166cc <HcdChannelSendWaitOne+0x74c>
   16408:	e5932000 	ldr	r2, [r3]
   1640c:	e55b3025 	ldrb	r3, [fp, #-37]	; 0xffffffdb
   16410:	e1a03283 	lsl	r3, r3, #5
   16414:	e0823003 	add	r3, r2, r3
   16418:	e5d32108 	ldrb	r2, [r3, #264]	; 0x108
   1641c:	e20220ff 	and	r2, r2, #255	; 0xff
   16420:	e5d31109 	ldrb	r1, [r3, #265]	; 0x109
   16424:	e20110ff 	and	r1, r1, #255	; 0xff
   16428:	e1a01401 	lsl	r1, r1, #8
   1642c:	e1812002 	orr	r2, r1, r2
   16430:	e5d3110a 	ldrb	r1, [r3, #266]	; 0x10a
   16434:	e20110ff 	and	r1, r1, #255	; 0xff
   16438:	e1a01801 	lsl	r1, r1, #16
   1643c:	e1812002 	orr	r2, r1, r2
   16440:	e5d3310b 	ldrb	r3, [r3, #267]	; 0x10b
   16444:	e20330ff 	and	r3, r3, #255	; 0xff
   16448:	e1a03c03 	lsl	r3, r3, #24
   1644c:	e1833002 	orr	r3, r3, r2
   16450:	e1a01003 	mov	r1, r3
   16454:	e3a02000 	mov	r2, #0
   16458:	e51b0020 	ldr	r0, [fp, #-32]	; 0xffffffe0
   1645c:	ebfffe58 	bl	15dc4 <HcdChannelInterruptToError>
   16460:	e1a03000 	mov	r3, r0
   16464:	e54b3015 	strb	r3, [fp, #-21]	; 0xffffffeb
   16468:	e15b31d5 	ldrsb	r3, [fp, #-21]	; 0xffffffeb
   1646c:	e3530000 	cmp	r3, #0
   16470:	0a000059 	beq	165dc <HcdChannelSendWaitOne+0x65c>
   16474:	e15b31d5 	ldrsb	r3, [fp, #-21]	; 0xffffffeb
   16478:	ea00008f 	b	166bc <HcdChannelSendWaitOne+0x73c>
   1647c:	e59f3248 	ldr	r3, [pc, #584]	; 166cc <HcdChannelSendWaitOne+0x74c>
   16480:	e5932000 	ldr	r2, [r3]
   16484:	e55b3025 	ldrb	r3, [fp, #-37]	; 0xffffffdb
   16488:	e1a03283 	lsl	r3, r3, #5
   1648c:	e0823003 	add	r3, r2, r3
   16490:	e5d33108 	ldrb	r3, [r3, #264]	; 0x108
   16494:	e20330ff 	and	r3, r3, #255	; 0xff
   16498:	e1a03223 	lsr	r3, r3, #4
   1649c:	e2033001 	and	r3, r3, #1
   164a0:	e20330ff 	and	r3, r3, #255	; 0xff
   164a4:	e3530000 	cmp	r3, #0
   164a8:	0a000005 	beq	164c4 <HcdChannelSendWaitOne+0x544>
   164ac:	e51b3010 	ldr	r3, [fp, #-16]
   164b0:	e2433001 	sub	r3, r3, #1
   164b4:	e50b3010 	str	r3, [fp, #-16]
   164b8:	e59f0214 	ldr	r0, [pc, #532]	; 166d4 <HcdChannelSendWaitOne+0x754>
   164bc:	eb0008dc 	bl	18834 <MicroDelay>
   164c0:	ea000038 	b	165a8 <HcdChannelSendWaitOne+0x628>
   164c4:	e59f3200 	ldr	r3, [pc, #512]	; 166cc <HcdChannelSendWaitOne+0x74c>
   164c8:	e5932000 	ldr	r2, [r3]
   164cc:	e55b3025 	ldrb	r3, [fp, #-37]	; 0xffffffdb
   164d0:	e1a03283 	lsl	r3, r3, #5
   164d4:	e0823003 	add	r3, r2, r3
   164d8:	e5d33108 	ldrb	r3, [r3, #264]	; 0x108
   164dc:	e20330ff 	and	r3, r3, #255	; 0xff
   164e0:	e1a033a3 	lsr	r3, r3, #7
   164e4:	e20330ff 	and	r3, r3, #255	; 0xff
   164e8:	e3530000 	cmp	r3, #0
   164ec:	0a00003a 	beq	165dc <HcdChannelSendWaitOne+0x65c>
   164f0:	e59f01dc 	ldr	r0, [pc, #476]	; 166d4 <HcdChannelSendWaitOne+0x754>
   164f4:	eb0008ce 	bl	18834 <MicroDelay>
   164f8:	ea00002a 	b	165a8 <HcdChannelSendWaitOne+0x628>
   164fc:	e59f31c8 	ldr	r3, [pc, #456]	; 166cc <HcdChannelSendWaitOne+0x74c>
   16500:	e5932000 	ldr	r2, [r3]
   16504:	e55b1025 	ldrb	r1, [fp, #-37]	; 0xffffffdb
   16508:	e59f31bc 	ldr	r3, [pc, #444]	; 166cc <HcdChannelSendWaitOne+0x74c>
   1650c:	e5930000 	ldr	r0, [r3]
   16510:	e55b3025 	ldrb	r3, [fp, #-37]	; 0xffffffdb
   16514:	e2833008 	add	r3, r3, #8
   16518:	e1a03283 	lsl	r3, r3, #5
   1651c:	e0803003 	add	r3, r0, r3
   16520:	e5d33007 	ldrb	r3, [r3, #7]
   16524:	e20330ff 	and	r3, r3, #255	; 0xff
   16528:	e1a033a3 	lsr	r3, r3, #7
   1652c:	e20330ff 	and	r3, r3, #255	; 0xff
   16530:	e2233001 	eor	r3, r3, #1
   16534:	e20330ff 	and	r3, r3, #255	; 0xff
   16538:	e1a00003 	mov	r0, r3
   1653c:	e1a03281 	lsl	r3, r1, #5
   16540:	e0823003 	add	r3, r2, r3
   16544:	e5d32108 	ldrb	r2, [r3, #264]	; 0x108
   16548:	e20220ff 	and	r2, r2, #255	; 0xff
   1654c:	e5d31109 	ldrb	r1, [r3, #265]	; 0x109
   16550:	e20110ff 	and	r1, r1, #255	; 0xff
   16554:	e1a01401 	lsl	r1, r1, #8
   16558:	e1812002 	orr	r2, r1, r2
   1655c:	e5d3110a 	ldrb	r1, [r3, #266]	; 0x10a
   16560:	e20110ff 	and	r1, r1, #255	; 0xff
   16564:	e1a01801 	lsl	r1, r1, #16
   16568:	e1812002 	orr	r2, r1, r2
   1656c:	e5d3310b 	ldrb	r3, [r3, #267]	; 0x10b
   16570:	e20330ff 	and	r3, r3, #255	; 0xff
   16574:	e1a03c03 	lsl	r3, r3, #24
   16578:	e1833002 	orr	r3, r3, r2
   1657c:	e1a01003 	mov	r1, r3
   16580:	e1a02000 	mov	r2, r0
   16584:	e51b0020 	ldr	r0, [fp, #-32]	; 0xffffffe0
   16588:	ebfffe0d 	bl	15dc4 <HcdChannelInterruptToError>
   1658c:	e1a03000 	mov	r3, r0
   16590:	e54b3015 	strb	r3, [fp, #-21]	; 0xffffffeb
   16594:	e15b31d5 	ldrsb	r3, [fp, #-21]	; 0xffffffeb
   16598:	e3530000 	cmp	r3, #0
   1659c:	0a00000e 	beq	165dc <HcdChannelSendWaitOne+0x65c>
   165a0:	e3e03002 	mvn	r3, #2
   165a4:	ea000044 	b	166bc <HcdChannelSendWaitOne+0x73c>
   165a8:	e51b3010 	ldr	r3, [fp, #-16]
   165ac:	e2833001 	add	r3, r3, #1
   165b0:	e50b3010 	str	r3, [fp, #-16]
   165b4:	e51b3014 	ldr	r3, [fp, #-20]	; 0xffffffec
   165b8:	e2833001 	add	r3, r3, #1
   165bc:	e50b3014 	str	r3, [fp, #-20]	; 0xffffffec
   165c0:	e51b3010 	ldr	r3, [fp, #-16]
   165c4:	e3530002 	cmp	r3, #2
   165c8:	8a000004 	bhi	165e0 <HcdChannelSendWaitOne+0x660>
   165cc:	e51b3014 	ldr	r3, [fp, #-20]	; 0xffffffec
   165d0:	e3530009 	cmp	r3, #9
   165d4:	9afffe76 	bls	15fb4 <HcdChannelSendWaitOne+0x34>
   165d8:	ea000000 	b	165e0 <HcdChannelSendWaitOne+0x660>
   165dc:	e1a00000 	nop			; (mov r0, r0)
   165e0:	e51b3010 	ldr	r3, [fp, #-16]
   165e4:	e3530003 	cmp	r3, #3
   165e8:	0a000002 	beq	165f8 <HcdChannelSendWaitOne+0x678>
   165ec:	e51b3014 	ldr	r3, [fp, #-20]	; 0xffffffec
   165f0:	e353000a 	cmp	r3, #10
   165f4:	1a00002f 	bne	166b8 <HcdChannelSendWaitOne+0x738>
   165f8:	e59f30cc 	ldr	r3, [pc, #204]	; 166cc <HcdChannelSendWaitOne+0x74c>
   165fc:	e5932000 	ldr	r2, [r3]
   16600:	e55b1025 	ldrb	r1, [fp, #-37]	; 0xffffffdb
   16604:	e59f30c0 	ldr	r3, [pc, #192]	; 166cc <HcdChannelSendWaitOne+0x74c>
   16608:	e5930000 	ldr	r0, [r3]
   1660c:	e55b3025 	ldrb	r3, [fp, #-37]	; 0xffffffdb
   16610:	e2833008 	add	r3, r3, #8
   16614:	e1a03283 	lsl	r3, r3, #5
   16618:	e0803003 	add	r3, r0, r3
   1661c:	e5d33007 	ldrb	r3, [r3, #7]
   16620:	e20330ff 	and	r3, r3, #255	; 0xff
   16624:	e1a033a3 	lsr	r3, r3, #7
   16628:	e20330ff 	and	r3, r3, #255	; 0xff
   1662c:	e2233001 	eor	r3, r3, #1
   16630:	e20330ff 	and	r3, r3, #255	; 0xff
   16634:	e1a00003 	mov	r0, r3
   16638:	e1a03281 	lsl	r3, r1, #5
   1663c:	e0823003 	add	r3, r2, r3
   16640:	e5d32108 	ldrb	r2, [r3, #264]	; 0x108
   16644:	e20220ff 	and	r2, r2, #255	; 0xff
   16648:	e5d31109 	ldrb	r1, [r3, #265]	; 0x109
   1664c:	e20110ff 	and	r1, r1, #255	; 0xff
   16650:	e1a01401 	lsl	r1, r1, #8
   16654:	e1812002 	orr	r2, r1, r2
   16658:	e5d3110a 	ldrb	r1, [r3, #266]	; 0x10a
   1665c:	e20110ff 	and	r1, r1, #255	; 0xff
   16660:	e1a01801 	lsl	r1, r1, #16
   16664:	e1812002 	orr	r2, r1, r2
   16668:	e5d3310b 	ldrb	r3, [r3, #267]	; 0x10b
   1666c:	e20330ff 	and	r3, r3, #255	; 0xff
   16670:	e1a03c03 	lsl	r3, r3, #24
   16674:	e1833002 	orr	r3, r3, r2
   16678:	e1a01003 	mov	r1, r3
   1667c:	e1a02000 	mov	r2, r0
   16680:	e51b0020 	ldr	r0, [fp, #-32]	; 0xffffffe0
   16684:	ebfffdce 	bl	15dc4 <HcdChannelInterruptToError>
   16688:	e1a03000 	mov	r3, r0
   1668c:	e54b3015 	strb	r3, [fp, #-21]	; 0xffffffeb
   16690:	e15b31d5 	ldrsb	r3, [fp, #-21]	; 0xffffffeb
   16694:	e3530000 	cmp	r3, #0
   16698:	0a000001 	beq	166a4 <HcdChannelSendWaitOne+0x724>
   1669c:	e15b31d5 	ldrsb	r3, [fp, #-21]	; 0xffffffeb
   166a0:	ea000005 	b	166bc <HcdChannelSendWaitOne+0x73c>
   166a4:	e51b3020 	ldr	r3, [fp, #-32]	; 0xffffffe0
   166a8:	e3a02080 	mov	r2, #128	; 0x80
   166ac:	e5832008 	str	r2, [r3, #8]
   166b0:	e3e03007 	mvn	r3, #7
   166b4:	ea000000 	b	166bc <HcdChannelSendWaitOne+0x73c>
   166b8:	e3a03000 	mov	r3, #0
   166bc:	e1a00003 	mov	r0, r3
   166c0:	e24bd004 	sub	sp, fp, #4
   166c4:	e8bd4800 	pop	{fp, lr}
   166c8:	e12fff1e 	bx	lr
   166cc:	000298a8 	.word	0x000298a8
   166d0:	00001388 	.word	0x00001388
   166d4:	000061a8 	.word	0x000061a8

000166d8 <HcdChannelSendWait>:
   166d8:	e92d4800 	push	{fp, lr}
   166dc:	e28db004 	add	fp, sp, #4
   166e0:	e24dd030 	sub	sp, sp, #48	; 0x30
   166e4:	e50b0018 	str	r0, [fp, #-24]	; 0xffffffe8
   166e8:	e50b101c 	str	r1, [fp, #-28]	; 0xffffffe4
   166ec:	e50b3024 	str	r3, [fp, #-36]	; 0xffffffdc
   166f0:	e1a03002 	mov	r3, r2
   166f4:	e54b301d 	strb	r3, [fp, #-29]	; 0xffffffe3
   166f8:	e3a03000 	mov	r3, #0
   166fc:	e50b300c 	str	r3, [fp, #-12]
   16700:	e51b300c 	ldr	r3, [fp, #-12]
   16704:	e2832001 	add	r2, r3, #1
   16708:	e50b200c 	str	r2, [fp, #-12]
   1670c:	e3530003 	cmp	r3, #3
   16710:	1a000001 	bne	1671c <HcdChannelSendWait+0x44>
   16714:	e3e03007 	mvn	r3, #7
   16718:	ea000098 	b	16980 <HcdChannelSendWait+0x2a8>
   1671c:	e5db200c 	ldrb	r2, [fp, #12]
   16720:	e55b101d 	ldrb	r1, [fp, #-29]	; 0xffffffe3
   16724:	e51b301c 	ldr	r3, [fp, #-28]	; 0xffffffe4
   16728:	e58d3000 	str	r3, [sp]
   1672c:	e1a03002 	mov	r3, r2
   16730:	e59b2004 	ldr	r2, [fp, #4]
   16734:	e51b0018 	ldr	r0, [fp, #-24]	; 0xffffffe8
   16738:	ebfffb44 	bl	15450 <HcdPrepareChannel>
   1673c:	e1a03000 	mov	r3, r0
   16740:	e54b300d 	strb	r3, [fp, #-13]
   16744:	e15b30dd 	ldrsb	r3, [fp, #-13]
   16748:	e3530000 	cmp	r3, #0
   1674c:	0a000004 	beq	16764 <HcdChannelSendWait+0x8c>
   16750:	e51b3018 	ldr	r3, [fp, #-24]	; 0xffffffe8
   16754:	e3a02080 	mov	r2, #128	; 0x80
   16758:	e5832008 	str	r2, [r3, #8]
   1675c:	e15b30dd 	ldrsb	r3, [fp, #-13]
   16760:	ea000086 	b	16980 <HcdChannelSendWait+0x2a8>
   16764:	e3a03000 	mov	r3, #0
   16768:	e50b3008 	str	r3, [fp, #-8]
   1676c:	e59f321c 	ldr	r3, [pc, #540]	; 16990 <HcdChannelSendWait+0x2b8>
   16770:	e5932000 	ldr	r2, [r3]
   16774:	e55b301d 	ldrb	r3, [fp, #-29]	; 0xffffffe3
   16778:	e1a03283 	lsl	r3, r3, #5
   1677c:	e0823003 	add	r3, r2, r3
   16780:	e5d32112 	ldrb	r2, [r3, #274]	; 0x112
   16784:	e20220ff 	and	r2, r2, #255	; 0xff
   16788:	e1a021a2 	lsr	r2, r2, #3
   1678c:	e20220ff 	and	r2, r2, #255	; 0xff
   16790:	e5d33113 	ldrb	r3, [r3, #275]	; 0x113
   16794:	e20330ff 	and	r3, r3, #255	; 0xff
   16798:	e203301f 	and	r3, r3, #31
   1679c:	e1a03283 	lsl	r3, r3, #5
   167a0:	e1833002 	orr	r3, r3, r2
   167a4:	e1a03803 	lsl	r3, r3, #16
   167a8:	e1a03823 	lsr	r3, r3, #16
   167ac:	e50b3014 	str	r3, [fp, #-20]	; 0xffffffec
   167b0:	e55b201d 	ldrb	r2, [fp, #-29]	; 0xffffffe3
   167b4:	e59b3008 	ldr	r3, [fp, #8]
   167b8:	e58d3008 	str	r3, [sp, #8]
   167bc:	e51b3008 	ldr	r3, [fp, #-8]
   167c0:	e58d3004 	str	r3, [sp, #4]
   167c4:	e59b3004 	ldr	r3, [fp, #4]
   167c8:	e58d3000 	str	r3, [sp]
   167cc:	e51b3024 	ldr	r3, [fp, #-36]	; 0xffffffdc
   167d0:	e51b101c 	ldr	r1, [fp, #-28]	; 0xffffffe4
   167d4:	e51b0018 	ldr	r0, [fp, #-24]	; 0xffffffe8
   167d8:	ebfffde8 	bl	15f80 <HcdChannelSendWaitOne>
   167dc:	e1a03000 	mov	r3, r0
   167e0:	e54b300d 	strb	r3, [fp, #-13]
   167e4:	e15b30dd 	ldrsb	r3, [fp, #-13]
   167e8:	e3530000 	cmp	r3, #0
   167ec:	0a000005 	beq	16808 <HcdChannelSendWait+0x130>
   167f0:	e15b30dd 	ldrsb	r3, [fp, #-13]
   167f4:	e3730003 	cmn	r3, #3
   167f8:	1a000000 	bne	16800 <HcdChannelSendWait+0x128>
   167fc:	eaffffbf 	b	16700 <HcdChannelSendWait+0x28>
   16800:	e15b30dd 	ldrsb	r3, [fp, #-13]
   16804:	ea00005d 	b	16980 <HcdChannelSendWait+0x2a8>
   16808:	e59f3180 	ldr	r3, [pc, #384]	; 16990 <HcdChannelSendWait+0x2b8>
   1680c:	e5932000 	ldr	r2, [r3]
   16810:	e55b301d 	ldrb	r3, [fp, #-29]	; 0xffffffe3
   16814:	e1a03283 	lsl	r3, r3, #5
   16818:	e2833e11 	add	r3, r3, #272	; 0x110
   1681c:	e0823003 	add	r3, r2, r3
   16820:	e1a00003 	mov	r0, r3
   16824:	ebfff938 	bl	14d0c <ReadBackReg>
   16828:	e59f3160 	ldr	r3, [pc, #352]	; 16990 <HcdChannelSendWait+0x2b8>
   1682c:	e5932000 	ldr	r2, [r3]
   16830:	e55b301d 	ldrb	r3, [fp, #-29]	; 0xffffffe3
   16834:	e1a03283 	lsl	r3, r3, #5
   16838:	e0823003 	add	r3, r2, r3
   1683c:	e5d32110 	ldrb	r2, [r3, #272]	; 0x110
   16840:	e20220ff 	and	r2, r2, #255	; 0xff
   16844:	e5d31111 	ldrb	r1, [r3, #273]	; 0x111
   16848:	e20110ff 	and	r1, r1, #255	; 0xff
   1684c:	e1a01401 	lsl	r1, r1, #8
   16850:	e1812002 	orr	r2, r1, r2
   16854:	e5d33112 	ldrb	r3, [r3, #274]	; 0x112
   16858:	e20330ff 	and	r3, r3, #255	; 0xff
   1685c:	e2033007 	and	r3, r3, #7
   16860:	e1a03803 	lsl	r3, r3, #16
   16864:	e1833002 	orr	r3, r3, r2
   16868:	e1a02003 	mov	r2, r3
   1686c:	e59b3004 	ldr	r3, [fp, #4]
   16870:	e0623003 	rsb	r3, r2, r3
   16874:	e50b3008 	str	r3, [fp, #-8]
   16878:	e59f3110 	ldr	r3, [pc, #272]	; 16990 <HcdChannelSendWait+0x2b8>
   1687c:	e5932000 	ldr	r2, [r3]
   16880:	e55b301d 	ldrb	r3, [fp, #-29]	; 0xffffffe3
   16884:	e1a03283 	lsl	r3, r3, #5
   16888:	e0823003 	add	r3, r2, r3
   1688c:	e5d32112 	ldrb	r2, [r3, #274]	; 0x112
   16890:	e20220ff 	and	r2, r2, #255	; 0xff
   16894:	e1a021a2 	lsr	r2, r2, #3
   16898:	e20220ff 	and	r2, r2, #255	; 0xff
   1689c:	e5d33113 	ldrb	r3, [r3, #275]	; 0x113
   168a0:	e20330ff 	and	r3, r3, #255	; 0xff
   168a4:	e203301f 	and	r3, r3, #31
   168a8:	e1a03283 	lsl	r3, r3, #5
   168ac:	e1833002 	orr	r3, r3, r2
   168b0:	e1a03803 	lsl	r3, r3, #16
   168b4:	e1a03823 	lsr	r3, r3, #16
   168b8:	e1a02003 	mov	r2, r3
   168bc:	e51b3014 	ldr	r3, [fp, #-20]	; 0xffffffec
   168c0:	e1520003 	cmp	r2, r3
   168c4:	0a000012 	beq	16914 <HcdChannelSendWait+0x23c>
   168c8:	e59f30c0 	ldr	r3, [pc, #192]	; 16990 <HcdChannelSendWait+0x2b8>
   168cc:	e5932000 	ldr	r2, [r3]
   168d0:	e55b301d 	ldrb	r3, [fp, #-29]	; 0xffffffe3
   168d4:	e1a03283 	lsl	r3, r3, #5
   168d8:	e0823003 	add	r3, r2, r3
   168dc:	e5d32112 	ldrb	r2, [r3, #274]	; 0x112
   168e0:	e20220ff 	and	r2, r2, #255	; 0xff
   168e4:	e1a021a2 	lsr	r2, r2, #3
   168e8:	e20220ff 	and	r2, r2, #255	; 0xff
   168ec:	e5d33113 	ldrb	r3, [r3, #275]	; 0x113
   168f0:	e20330ff 	and	r3, r3, #255	; 0xff
   168f4:	e203301f 	and	r3, r3, #31
   168f8:	e1a03283 	lsl	r3, r3, #5
   168fc:	e1833002 	orr	r3, r3, r2
   16900:	e1a03803 	lsl	r3, r3, #16
   16904:	e1a03823 	lsr	r3, r3, #16
   16908:	e3530000 	cmp	r3, #0
   1690c:	caffff96 	bgt	1676c <HcdChannelSendWait+0x94>
   16910:	ea000000 	b	16918 <HcdChannelSendWait+0x240>
   16914:	e1a00000 	nop			; (mov r0, r0)
   16918:	e59f3070 	ldr	r3, [pc, #112]	; 16990 <HcdChannelSendWait+0x2b8>
   1691c:	e5932000 	ldr	r2, [r3]
   16920:	e55b301d 	ldrb	r3, [fp, #-29]	; 0xffffffe3
   16924:	e1a03283 	lsl	r3, r3, #5
   16928:	e0823003 	add	r3, r2, r3
   1692c:	e5d32112 	ldrb	r2, [r3, #274]	; 0x112
   16930:	e20220ff 	and	r2, r2, #255	; 0xff
   16934:	e1a021a2 	lsr	r2, r2, #3
   16938:	e20220ff 	and	r2, r2, #255	; 0xff
   1693c:	e5d33113 	ldrb	r3, [r3, #275]	; 0x113
   16940:	e20330ff 	and	r3, r3, #255	; 0xff
   16944:	e203301f 	and	r3, r3, #31
   16948:	e1a03283 	lsl	r3, r3, #5
   1694c:	e1833002 	orr	r3, r3, r2
   16950:	e1a03803 	lsl	r3, r3, #16
   16954:	e1a03823 	lsr	r3, r3, #16
   16958:	e1a02003 	mov	r2, r3
   1695c:	e51b3014 	ldr	r3, [fp, #-20]	; 0xffffffec
   16960:	e1520003 	cmp	r2, r3
   16964:	1a000004 	bne	1697c <HcdChannelSendWait+0x2a4>
   16968:	e51b3018 	ldr	r3, [fp, #-24]	; 0xffffffe8
   1696c:	e3a02080 	mov	r2, #128	; 0x80
   16970:	e5832008 	str	r2, [r3, #8]
   16974:	e3e03003 	mvn	r3, #3
   16978:	ea000000 	b	16980 <HcdChannelSendWait+0x2a8>
   1697c:	e3a03000 	mov	r3, #0
   16980:	e1a00003 	mov	r0, r3
   16984:	e24bd004 	sub	sp, fp, #4
   16988:	e8bd4800 	pop	{fp, lr}
   1698c:	e12fff1e 	bx	lr
   16990:	000298a8 	.word	0x000298a8

00016994 <HcdSumbitControlMessage>:
   16994:	e92d4800 	push	{fp, lr}
   16998:	e28db004 	add	fp, sp, #4
   1699c:	e24dd028 	sub	sp, sp, #40	; 0x28
   169a0:	e50b0010 	str	r0, [fp, #-16]
   169a4:	e50b1014 	str	r1, [fp, #-20]	; 0xffffffec
   169a8:	e50b2018 	str	r2, [fp, #-24]	; 0xffffffe8
   169ac:	e50b301c 	str	r3, [fp, #-28]	; 0xffffffe4
   169b0:	e55b3013 	ldrb	r3, [fp, #-19]	; 0xffffffed
   169b4:	e1a02003 	mov	r2, r3
   169b8:	e59f34c0 	ldr	r3, [pc, #1216]	; 16e80 <HcdSumbitControlMessage+0x4ec>
   169bc:	e5933000 	ldr	r3, [r3]
   169c0:	e1520003 	cmp	r2, r3
   169c4:	1a000008 	bne	169ec <HcdSumbitControlMessage+0x58>
   169c8:	e59b3004 	ldr	r3, [fp, #4]
   169cc:	e58d3000 	str	r3, [sp]
   169d0:	e51b301c 	ldr	r3, [fp, #-28]	; 0xffffffe4
   169d4:	e51b2018 	ldr	r2, [fp, #-24]	; 0xffffffe8
   169d8:	e51b1014 	ldr	r1, [fp, #-20]	; 0xffffffec
   169dc:	e51b0010 	ldr	r0, [fp, #-16]
   169e0:	eb000490 	bl	17c28 <HcdProcessRootHubMessage>
   169e4:	e1a03000 	mov	r3, r0
   169e8:	ea000120 	b	16e70 <HcdSumbitControlMessage+0x4dc>
   169ec:	e51b3010 	ldr	r3, [fp, #-16]
   169f0:	e3a02102 	mov	r2, #-2147483648	; 0x80000000
   169f4:	e5832008 	str	r2, [r3, #8]
   169f8:	e51b3010 	ldr	r3, [fp, #-16]
   169fc:	e3a02000 	mov	r2, #0
   16a00:	e5832418 	str	r2, [r3, #1048]	; 0x418
   16a04:	e55b3014 	ldrb	r3, [fp, #-20]	; 0xffffffec
   16a08:	e1a03123 	lsr	r3, r3, #2
   16a0c:	e2033003 	and	r3, r3, #3
   16a10:	e20330ff 	and	r3, r3, #255	; 0xff
   16a14:	e55b200c 	ldrb	r2, [fp, #-12]
   16a18:	e2033003 	and	r3, r3, #3
   16a1c:	e3c2200c 	bic	r2, r2, #12
   16a20:	e1a03103 	lsl	r3, r3, #2
   16a24:	e1833002 	orr	r3, r3, r2
   16a28:	e1a02003 	mov	r2, r3
   16a2c:	e54b200c 	strb	r2, [fp, #-12]
   16a30:	e55b3013 	ldrb	r3, [fp, #-19]	; 0xffffffed
   16a34:	e54b300b 	strb	r3, [fp, #-11]
   16a38:	e55b3014 	ldrb	r3, [fp, #-20]	; 0xffffffec
   16a3c:	e1a03223 	lsr	r3, r3, #4
   16a40:	e20330ff 	and	r3, r3, #255	; 0xff
   16a44:	e55b200c 	ldrb	r2, [fp, #-12]
   16a48:	e203300f 	and	r3, r3, #15
   16a4c:	e3c220f0 	bic	r2, r2, #240	; 0xf0
   16a50:	e1a03203 	lsl	r3, r3, #4
   16a54:	e1833002 	orr	r3, r3, r2
   16a58:	e1a02003 	mov	r2, r3
   16a5c:	e54b200c 	strb	r2, [fp, #-12]
   16a60:	e55b3014 	ldrb	r3, [fp, #-20]	; 0xffffffec
   16a64:	e2033003 	and	r3, r3, #3
   16a68:	e20320ff 	and	r2, r3, #255	; 0xff
   16a6c:	e55b300c 	ldrb	r3, [fp, #-12]
   16a70:	e2022003 	and	r2, r2, #3
   16a74:	e3c33003 	bic	r3, r3, #3
   16a78:	e1823003 	orr	r3, r2, r3
   16a7c:	e54b300c 	strb	r3, [fp, #-12]
   16a80:	e55b300a 	ldrb	r3, [fp, #-10]
   16a84:	e3c33003 	bic	r3, r3, #3
   16a88:	e54b300a 	strb	r3, [fp, #-10]
   16a8c:	e55b300a 	ldrb	r3, [fp, #-10]
   16a90:	e3c33004 	bic	r3, r3, #4
   16a94:	e54b300a 	strb	r3, [fp, #-10]
   16a98:	e24b100c 	sub	r1, fp, #12
   16a9c:	e3a03003 	mov	r3, #3
   16aa0:	e58d3008 	str	r3, [sp, #8]
   16aa4:	e59b3004 	ldr	r3, [fp, #4]
   16aa8:	e58d3004 	str	r3, [sp, #4]
   16aac:	e3a03008 	mov	r3, #8
   16ab0:	e58d3000 	str	r3, [sp]
   16ab4:	e59b3004 	ldr	r3, [fp, #4]
   16ab8:	e3a02000 	mov	r2, #0
   16abc:	e51b0010 	ldr	r0, [fp, #-16]
   16ac0:	ebffff04 	bl	166d8 <HcdChannelSendWait>
   16ac4:	e1a03000 	mov	r3, r0
   16ac8:	e54b3005 	strb	r3, [fp, #-5]
   16acc:	e15b30d5 	ldrsb	r3, [fp, #-5]
   16ad0:	e3530000 	cmp	r3, #0
   16ad4:	0a000001 	beq	16ae0 <HcdSumbitControlMessage+0x14c>
   16ad8:	e3a03000 	mov	r3, #0
   16adc:	ea0000e3 	b	16e70 <HcdSumbitControlMessage+0x4dc>
   16ae0:	e51b3018 	ldr	r3, [fp, #-24]	; 0xffffffe8
   16ae4:	e3530000 	cmp	r3, #0
   16ae8:	0a000087 	beq	16d0c <HcdSumbitControlMessage+0x378>
   16aec:	e55b3012 	ldrb	r3, [fp, #-18]	; 0xffffffee
   16af0:	e2033004 	and	r3, r3, #4
   16af4:	e20330ff 	and	r3, r3, #255	; 0xff
   16af8:	e3530000 	cmp	r3, #0
   16afc:	1a000005 	bne	16b18 <HcdSumbitControlMessage+0x184>
   16b00:	e59f337c 	ldr	r3, [pc, #892]	; 16e84 <HcdSumbitControlMessage+0x4f0>
   16b04:	e5933000 	ldr	r3, [r3]
   16b08:	e51b201c 	ldr	r2, [fp, #-28]	; 0xffffffe4
   16b0c:	e51b1018 	ldr	r1, [fp, #-24]	; 0xffffffe8
   16b10:	e1a00003 	mov	r0, r3
   16b14:	ebffd40d 	bl	bb50 <MemoryCopy>
   16b18:	e55b3014 	ldrb	r3, [fp, #-20]	; 0xffffffec
   16b1c:	e1a03123 	lsr	r3, r3, #2
   16b20:	e2033003 	and	r3, r3, #3
   16b24:	e20330ff 	and	r3, r3, #255	; 0xff
   16b28:	e55b200c 	ldrb	r2, [fp, #-12]
   16b2c:	e2033003 	and	r3, r3, #3
   16b30:	e3c2200c 	bic	r2, r2, #12
   16b34:	e1a03103 	lsl	r3, r3, #2
   16b38:	e1833002 	orr	r3, r3, r2
   16b3c:	e1a02003 	mov	r2, r3
   16b40:	e54b200c 	strb	r2, [fp, #-12]
   16b44:	e55b3013 	ldrb	r3, [fp, #-19]	; 0xffffffed
   16b48:	e54b300b 	strb	r3, [fp, #-11]
   16b4c:	e55b3014 	ldrb	r3, [fp, #-20]	; 0xffffffec
   16b50:	e1a03223 	lsr	r3, r3, #4
   16b54:	e20330ff 	and	r3, r3, #255	; 0xff
   16b58:	e55b200c 	ldrb	r2, [fp, #-12]
   16b5c:	e203300f 	and	r3, r3, #15
   16b60:	e3c220f0 	bic	r2, r2, #240	; 0xf0
   16b64:	e1a03203 	lsl	r3, r3, #4
   16b68:	e1833002 	orr	r3, r3, r2
   16b6c:	e1a02003 	mov	r2, r3
   16b70:	e54b200c 	strb	r2, [fp, #-12]
   16b74:	e55b3014 	ldrb	r3, [fp, #-20]	; 0xffffffec
   16b78:	e2033003 	and	r3, r3, #3
   16b7c:	e20320ff 	and	r2, r3, #255	; 0xff
   16b80:	e55b300c 	ldrb	r3, [fp, #-12]
   16b84:	e2022003 	and	r2, r2, #3
   16b88:	e3c33003 	bic	r3, r3, #3
   16b8c:	e1823003 	orr	r3, r2, r3
   16b90:	e54b300c 	strb	r3, [fp, #-12]
   16b94:	e55b300a 	ldrb	r3, [fp, #-10]
   16b98:	e3c33003 	bic	r3, r3, #3
   16b9c:	e54b300a 	strb	r3, [fp, #-10]
   16ba0:	e55b3012 	ldrb	r3, [fp, #-18]	; 0xffffffee
   16ba4:	e1a03123 	lsr	r3, r3, #2
   16ba8:	e2033001 	and	r3, r3, #1
   16bac:	e20330ff 	and	r3, r3, #255	; 0xff
   16bb0:	e55b200a 	ldrb	r2, [fp, #-10]
   16bb4:	e2033001 	and	r3, r3, #1
   16bb8:	e3c22004 	bic	r2, r2, #4
   16bbc:	e1a03103 	lsl	r3, r3, #2
   16bc0:	e1833002 	orr	r3, r3, r2
   16bc4:	e1a02003 	mov	r2, r3
   16bc8:	e54b200a 	strb	r2, [fp, #-10]
   16bcc:	e59f32b0 	ldr	r3, [pc, #688]	; 16e84 <HcdSumbitControlMessage+0x4f0>
   16bd0:	e5932000 	ldr	r2, [r3]
   16bd4:	e24b100c 	sub	r1, fp, #12
   16bd8:	e3a03002 	mov	r3, #2
   16bdc:	e58d3008 	str	r3, [sp, #8]
   16be0:	e59b3004 	ldr	r3, [fp, #4]
   16be4:	e58d3004 	str	r3, [sp, #4]
   16be8:	e51b301c 	ldr	r3, [fp, #-28]	; 0xffffffe4
   16bec:	e58d3000 	str	r3, [sp]
   16bf0:	e1a03002 	mov	r3, r2
   16bf4:	e3a02000 	mov	r2, #0
   16bf8:	e51b0010 	ldr	r0, [fp, #-16]
   16bfc:	ebfffeb5 	bl	166d8 <HcdChannelSendWait>
   16c00:	e1a03000 	mov	r3, r0
   16c04:	e54b3005 	strb	r3, [fp, #-5]
   16c08:	e15b30d5 	ldrsb	r3, [fp, #-5]
   16c0c:	e3530000 	cmp	r3, #0
   16c10:	0a000001 	beq	16c1c <HcdSumbitControlMessage+0x288>
   16c14:	e3a03000 	mov	r3, #0
   16c18:	ea000094 	b	16e70 <HcdSumbitControlMessage+0x4dc>
   16c1c:	e59f3264 	ldr	r3, [pc, #612]	; 16e88 <HcdSumbitControlMessage+0x4f4>
   16c20:	e5933000 	ldr	r3, [r3]
   16c24:	e2833e11 	add	r3, r3, #272	; 0x110
   16c28:	e1a00003 	mov	r0, r3
   16c2c:	ebfff836 	bl	14d0c <ReadBackReg>
   16c30:	e55b3012 	ldrb	r3, [fp, #-18]	; 0xffffffee
   16c34:	e2033004 	and	r3, r3, #4
   16c38:	e20330ff 	and	r3, r3, #255	; 0xff
   16c3c:	e3530000 	cmp	r3, #0
   16c40:	0a00002e 	beq	16d00 <HcdSumbitControlMessage+0x36c>
   16c44:	e59f323c 	ldr	r3, [pc, #572]	; 16e88 <HcdSumbitControlMessage+0x4f4>
   16c48:	e5933000 	ldr	r3, [r3]
   16c4c:	e5d32110 	ldrb	r2, [r3, #272]	; 0x110
   16c50:	e20220ff 	and	r2, r2, #255	; 0xff
   16c54:	e5d31111 	ldrb	r1, [r3, #273]	; 0x111
   16c58:	e20110ff 	and	r1, r1, #255	; 0xff
   16c5c:	e1a01401 	lsl	r1, r1, #8
   16c60:	e1812002 	orr	r2, r1, r2
   16c64:	e5d33112 	ldrb	r3, [r3, #274]	; 0x112
   16c68:	e20330ff 	and	r3, r3, #255	; 0xff
   16c6c:	e2033007 	and	r3, r3, #7
   16c70:	e1a03803 	lsl	r3, r3, #16
   16c74:	e1833002 	orr	r3, r3, r2
   16c78:	e1a02003 	mov	r2, r3
   16c7c:	e51b301c 	ldr	r3, [fp, #-28]	; 0xffffffe4
   16c80:	e1520003 	cmp	r2, r3
   16c84:	8a000012 	bhi	16cd4 <HcdSumbitControlMessage+0x340>
   16c88:	e59f31f8 	ldr	r3, [pc, #504]	; 16e88 <HcdSumbitControlMessage+0x4f4>
   16c8c:	e5933000 	ldr	r3, [r3]
   16c90:	e5d32110 	ldrb	r2, [r3, #272]	; 0x110
   16c94:	e20220ff 	and	r2, r2, #255	; 0xff
   16c98:	e5d31111 	ldrb	r1, [r3, #273]	; 0x111
   16c9c:	e20110ff 	and	r1, r1, #255	; 0xff
   16ca0:	e1a01401 	lsl	r1, r1, #8
   16ca4:	e1812002 	orr	r2, r1, r2
   16ca8:	e5d33112 	ldrb	r3, [r3, #274]	; 0x112
   16cac:	e20330ff 	and	r3, r3, #255	; 0xff
   16cb0:	e2033007 	and	r3, r3, #7
   16cb4:	e1a03803 	lsl	r3, r3, #16
   16cb8:	e1833002 	orr	r3, r3, r2
   16cbc:	e1a02003 	mov	r2, r3
   16cc0:	e51b301c 	ldr	r3, [fp, #-28]	; 0xffffffe4
   16cc4:	e0622003 	rsb	r2, r2, r3
   16cc8:	e51b3010 	ldr	r3, [fp, #-16]
   16ccc:	e5832418 	str	r2, [r3, #1048]	; 0x418
   16cd0:	ea000002 	b	16ce0 <HcdSumbitControlMessage+0x34c>
   16cd4:	e51b3010 	ldr	r3, [fp, #-16]
   16cd8:	e51b201c 	ldr	r2, [fp, #-28]	; 0xffffffe4
   16cdc:	e5832418 	str	r2, [r3, #1048]	; 0x418
   16ce0:	e59f319c 	ldr	r3, [pc, #412]	; 16e84 <HcdSumbitControlMessage+0x4f0>
   16ce4:	e5931000 	ldr	r1, [r3]
   16ce8:	e51b3010 	ldr	r3, [fp, #-16]
   16cec:	e5933418 	ldr	r3, [r3, #1048]	; 0x418
   16cf0:	e1a02003 	mov	r2, r3
   16cf4:	e51b0018 	ldr	r0, [fp, #-24]	; 0xffffffe8
   16cf8:	ebffd394 	bl	bb50 <MemoryCopy>
   16cfc:	ea000002 	b	16d0c <HcdSumbitControlMessage+0x378>
   16d00:	e51b3010 	ldr	r3, [fp, #-16]
   16d04:	e51b201c 	ldr	r2, [fp, #-28]	; 0xffffffe4
   16d08:	e5832418 	str	r2, [r3, #1048]	; 0x418
   16d0c:	e55b3014 	ldrb	r3, [fp, #-20]	; 0xffffffec
   16d10:	e1a03123 	lsr	r3, r3, #2
   16d14:	e2033003 	and	r3, r3, #3
   16d18:	e20330ff 	and	r3, r3, #255	; 0xff
   16d1c:	e55b200c 	ldrb	r2, [fp, #-12]
   16d20:	e2033003 	and	r3, r3, #3
   16d24:	e3c2200c 	bic	r2, r2, #12
   16d28:	e1a03103 	lsl	r3, r3, #2
   16d2c:	e1833002 	orr	r3, r3, r2
   16d30:	e1a02003 	mov	r2, r3
   16d34:	e54b200c 	strb	r2, [fp, #-12]
   16d38:	e55b3013 	ldrb	r3, [fp, #-19]	; 0xffffffed
   16d3c:	e54b300b 	strb	r3, [fp, #-11]
   16d40:	e55b3014 	ldrb	r3, [fp, #-20]	; 0xffffffec
   16d44:	e1a03223 	lsr	r3, r3, #4
   16d48:	e20330ff 	and	r3, r3, #255	; 0xff
   16d4c:	e55b200c 	ldrb	r2, [fp, #-12]
   16d50:	e203300f 	and	r3, r3, #15
   16d54:	e3c220f0 	bic	r2, r2, #240	; 0xf0
   16d58:	e1a03203 	lsl	r3, r3, #4
   16d5c:	e1833002 	orr	r3, r3, r2
   16d60:	e1a02003 	mov	r2, r3
   16d64:	e54b200c 	strb	r2, [fp, #-12]
   16d68:	e55b3014 	ldrb	r3, [fp, #-20]	; 0xffffffec
   16d6c:	e2033003 	and	r3, r3, #3
   16d70:	e20320ff 	and	r2, r3, #255	; 0xff
   16d74:	e55b300c 	ldrb	r3, [fp, #-12]
   16d78:	e2022003 	and	r2, r2, #3
   16d7c:	e3c33003 	bic	r3, r3, #3
   16d80:	e1823003 	orr	r3, r2, r3
   16d84:	e54b300c 	strb	r3, [fp, #-12]
   16d88:	e55b300a 	ldrb	r3, [fp, #-10]
   16d8c:	e3c33003 	bic	r3, r3, #3
   16d90:	e54b300a 	strb	r3, [fp, #-10]
   16d94:	e51b301c 	ldr	r3, [fp, #-28]	; 0xffffffe4
   16d98:	e3530000 	cmp	r3, #0
   16d9c:	0a000004 	beq	16db4 <HcdSumbitControlMessage+0x420>
   16da0:	e55b3012 	ldrb	r3, [fp, #-18]	; 0xffffffee
   16da4:	e2033004 	and	r3, r3, #4
   16da8:	e20330ff 	and	r3, r3, #255	; 0xff
   16dac:	e3530000 	cmp	r3, #0
   16db0:	1a000001 	bne	16dbc <HcdSumbitControlMessage+0x428>
   16db4:	e3a03001 	mov	r3, #1
   16db8:	ea000000 	b	16dc0 <HcdSumbitControlMessage+0x42c>
   16dbc:	e3a03000 	mov	r3, #0
   16dc0:	e20330ff 	and	r3, r3, #255	; 0xff
   16dc4:	e2033001 	and	r3, r3, #1
   16dc8:	e20330ff 	and	r3, r3, #255	; 0xff
   16dcc:	e55b200a 	ldrb	r2, [fp, #-10]
   16dd0:	e2033001 	and	r3, r3, #1
   16dd4:	e3c22004 	bic	r2, r2, #4
   16dd8:	e1a03103 	lsl	r3, r3, #2
   16ddc:	e1833002 	orr	r3, r3, r2
   16de0:	e1a02003 	mov	r2, r3
   16de4:	e54b200a 	strb	r2, [fp, #-10]
   16de8:	e59f3094 	ldr	r3, [pc, #148]	; 16e84 <HcdSumbitControlMessage+0x4f0>
   16dec:	e5932000 	ldr	r2, [r3]
   16df0:	e24b100c 	sub	r1, fp, #12
   16df4:	e3a03002 	mov	r3, #2
   16df8:	e58d3008 	str	r3, [sp, #8]
   16dfc:	e59b3004 	ldr	r3, [fp, #4]
   16e00:	e58d3004 	str	r3, [sp, #4]
   16e04:	e3a03000 	mov	r3, #0
   16e08:	e58d3000 	str	r3, [sp]
   16e0c:	e1a03002 	mov	r3, r2
   16e10:	e3a02000 	mov	r2, #0
   16e14:	e51b0010 	ldr	r0, [fp, #-16]
   16e18:	ebfffe2e 	bl	166d8 <HcdChannelSendWait>
   16e1c:	e1a03000 	mov	r3, r0
   16e20:	e54b3005 	strb	r3, [fp, #-5]
   16e24:	e15b30d5 	ldrsb	r3, [fp, #-5]
   16e28:	e3530000 	cmp	r3, #0
   16e2c:	0a000001 	beq	16e38 <HcdSumbitControlMessage+0x4a4>
   16e30:	e3a03000 	mov	r3, #0
   16e34:	ea00000d 	b	16e70 <HcdSumbitControlMessage+0x4dc>
   16e38:	e59f3048 	ldr	r3, [pc, #72]	; 16e88 <HcdSumbitControlMessage+0x4f4>
   16e3c:	e5933000 	ldr	r3, [r3]
   16e40:	e2833e11 	add	r3, r3, #272	; 0x110
   16e44:	e1a00003 	mov	r0, r3
   16e48:	ebfff7af 	bl	14d0c <ReadBackReg>
   16e4c:	e59f3034 	ldr	r3, [pc, #52]	; 16e88 <HcdSumbitControlMessage+0x4f4>
   16e50:	e5933000 	ldr	r3, [r3]
   16e54:	e5d32110 	ldrb	r2, [r3, #272]	; 0x110
   16e58:	e5d32111 	ldrb	r2, [r3, #273]	; 0x111
   16e5c:	e5d33112 	ldrb	r3, [r3, #274]	; 0x112
   16e60:	e51b3010 	ldr	r3, [fp, #-16]
   16e64:	e3a02000 	mov	r2, #0
   16e68:	e5832008 	str	r2, [r3, #8]
   16e6c:	e3a03000 	mov	r3, #0
   16e70:	e1a00003 	mov	r0, r3
   16e74:	e24bd004 	sub	sp, fp, #4
   16e78:	e8bd4800 	pop	{fp, lr}
   16e7c:	e12fff1e 	bx	lr
   16e80:	000298c4 	.word	0x000298c4
   16e84:	000298b4 	.word	0x000298b4
   16e88:	000298a8 	.word	0x000298a8

00016e8c <HcdInitialise>:
   16e8c:	e92d4800 	push	{fp, lr}
   16e90:	e28db004 	add	fp, sp, #4
   16e94:	e24dd008 	sub	sp, sp, #8
   16e98:	e59f1290 	ldr	r1, [pc, #656]	; 17130 <HcdInitialise+0x2a4>
   16e9c:	e3a00b01 	mov	r0, #1024	; 0x400
   16ea0:	ebffd04d 	bl	afdc <MemoryReserve>
   16ea4:	e1a02000 	mov	r2, r0
   16ea8:	e59f3284 	ldr	r3, [pc, #644]	; 17134 <HcdInitialise+0x2a8>
   16eac:	e5832000 	str	r2, [r3]
   16eb0:	e3a00b01 	mov	r0, #1024	; 0x400
   16eb4:	ebffd052 	bl	b004 <MemoryAllocate>
   16eb8:	e1a02000 	mov	r2, r0
   16ebc:	e59f3274 	ldr	r3, [pc, #628]	; 17138 <HcdInitialise+0x2ac>
   16ec0:	e5832000 	str	r2, [r3]
   16ec4:	e59f1270 	ldr	r1, [pc, #624]	; 1713c <HcdInitialise+0x2b0>
   16ec8:	e3a00b01 	mov	r0, #1024	; 0x400
   16ecc:	ebffd042 	bl	afdc <MemoryReserve>
   16ed0:	e1a02000 	mov	r2, r0
   16ed4:	e59f3264 	ldr	r3, [pc, #612]	; 17140 <HcdInitialise+0x2b4>
   16ed8:	e5832000 	str	r2, [r3]
   16edc:	e3a00b01 	mov	r0, #1024	; 0x400
   16ee0:	ebffd047 	bl	b004 <MemoryAllocate>
   16ee4:	e1a02000 	mov	r2, r0
   16ee8:	e59f3254 	ldr	r3, [pc, #596]	; 17144 <HcdInitialise+0x2b8>
   16eec:	e5832000 	str	r2, [r3]
   16ef0:	e59f1250 	ldr	r1, [pc, #592]	; 17148 <HcdInitialise+0x2bc>
   16ef4:	e3a00004 	mov	r0, #4
   16ef8:	ebffd037 	bl	afdc <MemoryReserve>
   16efc:	e1a02000 	mov	r2, r0
   16f00:	e59f3244 	ldr	r3, [pc, #580]	; 1714c <HcdInitialise+0x2c0>
   16f04:	e5832000 	str	r2, [r3]
   16f08:	e3a00004 	mov	r0, #4
   16f0c:	ebffd03c 	bl	b004 <MemoryAllocate>
   16f10:	e1a02000 	mov	r2, r0
   16f14:	e59f3234 	ldr	r3, [pc, #564]	; 17150 <HcdInitialise+0x2c4>
   16f18:	e5832000 	str	r2, [r3]
   16f1c:	e59f3214 	ldr	r3, [pc, #532]	; 17138 <HcdInitialise+0x2ac>
   16f20:	e5933000 	ldr	r3, [r3]
   16f24:	e2833040 	add	r3, r3, #64	; 0x40
   16f28:	e1a00003 	mov	r0, r3
   16f2c:	ebfff776 	bl	14d0c <ReadBackReg>
   16f30:	e59f3200 	ldr	r3, [pc, #512]	; 17138 <HcdInitialise+0x2ac>
   16f34:	e5933000 	ldr	r3, [r3]
   16f38:	e283303c 	add	r3, r3, #60	; 0x3c
   16f3c:	e1a00003 	mov	r0, r3
   16f40:	ebfff771 	bl	14d0c <ReadBackReg>
   16f44:	e59f31ec 	ldr	r3, [pc, #492]	; 17138 <HcdInitialise+0x2ac>
   16f48:	e5933000 	ldr	r3, [r3]
   16f4c:	e5d32040 	ldrb	r2, [r3, #64]	; 0x40
   16f50:	e20220ff 	and	r2, r2, #255	; 0xff
   16f54:	e5d31041 	ldrb	r1, [r3, #65]	; 0x41
   16f58:	e20110ff 	and	r1, r1, #255	; 0xff
   16f5c:	e1a01401 	lsl	r1, r1, #8
   16f60:	e1812002 	orr	r2, r1, r2
   16f64:	e5d31042 	ldrb	r1, [r3, #66]	; 0x42
   16f68:	e20110ff 	and	r1, r1, #255	; 0xff
   16f6c:	e1a01801 	lsl	r1, r1, #16
   16f70:	e1812002 	orr	r2, r1, r2
   16f74:	e5d33043 	ldrb	r3, [r3, #67]	; 0x43
   16f78:	e20330ff 	and	r3, r3, #255	; 0xff
   16f7c:	e1a03c03 	lsl	r3, r3, #24
   16f80:	e1833002 	orr	r3, r3, r2
   16f84:	e3c33eff 	bic	r3, r3, #4080	; 0xff0
   16f88:	e3c3300f 	bic	r3, r3, #15
   16f8c:	e59f21c0 	ldr	r2, [pc, #448]	; 17154 <HcdInitialise+0x2c8>
   16f90:	e1530002 	cmp	r3, r2
   16f94:	0a000002 	beq	16fa4 <HcdInitialise+0x118>
   16f98:	e3e03004 	mvn	r3, #4
   16f9c:	e54b3005 	strb	r3, [fp, #-5]
   16fa0:	ea000043 	b	170b4 <HcdInitialise+0x228>
   16fa4:	e59f318c 	ldr	r3, [pc, #396]	; 17138 <HcdInitialise+0x2ac>
   16fa8:	e5933000 	ldr	r3, [r3]
   16fac:	e2833044 	add	r3, r3, #68	; 0x44
   16fb0:	e1a00003 	mov	r0, r3
   16fb4:	ebfff754 	bl	14d0c <ReadBackReg>
   16fb8:	e59f3178 	ldr	r3, [pc, #376]	; 17138 <HcdInitialise+0x2ac>
   16fbc:	e5933000 	ldr	r3, [r3]
   16fc0:	e5d33048 	ldrb	r3, [r3, #72]	; 0x48
   16fc4:	e20330ff 	and	r3, r3, #255	; 0xff
   16fc8:	e1a031a3 	lsr	r3, r3, #3
   16fcc:	e2033003 	and	r3, r3, #3
   16fd0:	e20330ff 	and	r3, r3, #255	; 0xff
   16fd4:	e3530002 	cmp	r3, #2
   16fd8:	0a000002 	beq	16fe8 <HcdInitialise+0x15c>
   16fdc:	e3e03004 	mvn	r3, #4
   16fe0:	e54b3005 	strb	r3, [fp, #-5]
   16fe4:	ea000032 	b	170b4 <HcdInitialise+0x228>
   16fe8:	e59f3148 	ldr	r3, [pc, #328]	; 17138 <HcdInitialise+0x2ac>
   16fec:	e5933000 	ldr	r3, [r3]
   16ff0:	e5d33048 	ldrb	r3, [r3, #72]	; 0x48
   16ff4:	e20330ff 	and	r3, r3, #255	; 0xff
   16ff8:	e1a03323 	lsr	r3, r3, #6
   16ffc:	e20330ff 	and	r3, r3, #255	; 0xff
   17000:	e3530000 	cmp	r3, #0
   17004:	1a000002 	bne	17014 <HcdInitialise+0x188>
   17008:	e3e03004 	mvn	r3, #4
   1700c:	e54b3005 	strb	r3, [fp, #-5]
   17010:	ea000027 	b	170b4 <HcdInitialise+0x228>
   17014:	e59f3128 	ldr	r3, [pc, #296]	; 17144 <HcdInitialise+0x2b8>
   17018:	e5933000 	ldr	r3, [r3]
   1701c:	e1a00003 	mov	r0, r3
   17020:	ebfff739 	bl	14d0c <ReadBackReg>
   17024:	e59f310c 	ldr	r3, [pc, #268]	; 17138 <HcdInitialise+0x2ac>
   17028:	e5933000 	ldr	r3, [r3]
   1702c:	e2833008 	add	r3, r3, #8
   17030:	e1a00003 	mov	r0, r3
   17034:	ebfff734 	bl	14d0c <ReadBackReg>
   17038:	e59f30f8 	ldr	r3, [pc, #248]	; 17138 <HcdInitialise+0x2ac>
   1703c:	e5932000 	ldr	r2, [r3]
   17040:	e5d23008 	ldrb	r3, [r2, #8]
   17044:	e3c33001 	bic	r3, r3, #1
   17048:	e5c23008 	strb	r3, [r2, #8]
   1704c:	e59f30e4 	ldr	r3, [pc, #228]	; 17138 <HcdInitialise+0x2ac>
   17050:	e5933000 	ldr	r3, [r3]
   17054:	e2833018 	add	r3, r3, #24
   17058:	e1a00003 	mov	r0, r3
   1705c:	ebfff79b 	bl	14ed0 <ClearReg>
   17060:	e59f30d0 	ldr	r3, [pc, #208]	; 17138 <HcdInitialise+0x2ac>
   17064:	e5933000 	ldr	r3, [r3]
   17068:	e2833018 	add	r3, r3, #24
   1706c:	e1a00003 	mov	r0, r3
   17070:	ebfff6c4 	bl	14b88 <WriteThroughReg>
   17074:	e59f30bc 	ldr	r3, [pc, #188]	; 17138 <HcdInitialise+0x2ac>
   17078:	e5933000 	ldr	r3, [r3]
   1707c:	e2833008 	add	r3, r3, #8
   17080:	e1a00003 	mov	r0, r3
   17084:	ebfff6bf 	bl	14b88 <WriteThroughReg>
   17088:	eb000605 	bl	188a4 <PowerOnUsb>
   1708c:	e1a03000 	mov	r3, r0
   17090:	e1a02003 	mov	r2, r3
   17094:	e54b2005 	strb	r2, [fp, #-5]
   17098:	e3530000 	cmp	r3, #0
   1709c:	0a000002 	beq	170ac <HcdInitialise+0x220>
   170a0:	e3e03004 	mvn	r3, #4
   170a4:	e54b3005 	strb	r3, [fp, #-5]
   170a8:	ea000001 	b	170b4 <HcdInitialise+0x228>
   170ac:	e3a03000 	mov	r3, #0
   170b0:	ea00001a 	b	17120 <HcdInitialise+0x294>
   170b4:	e59f307c 	ldr	r3, [pc, #124]	; 17138 <HcdInitialise+0x2ac>
   170b8:	e5933000 	ldr	r3, [r3]
   170bc:	e3530000 	cmp	r3, #0
   170c0:	0a000003 	beq	170d4 <HcdInitialise+0x248>
   170c4:	e59f306c 	ldr	r3, [pc, #108]	; 17138 <HcdInitialise+0x2ac>
   170c8:	e5933000 	ldr	r3, [r3]
   170cc:	e1a00003 	mov	r0, r3
   170d0:	ebffd235 	bl	b9ac <MemoryDeallocate>
   170d4:	e59f3068 	ldr	r3, [pc, #104]	; 17144 <HcdInitialise+0x2b8>
   170d8:	e5933000 	ldr	r3, [r3]
   170dc:	e3530000 	cmp	r3, #0
   170e0:	0a000003 	beq	170f4 <HcdInitialise+0x268>
   170e4:	e59f3058 	ldr	r3, [pc, #88]	; 17144 <HcdInitialise+0x2b8>
   170e8:	e5933000 	ldr	r3, [r3]
   170ec:	e1a00003 	mov	r0, r3
   170f0:	ebffd22d 	bl	b9ac <MemoryDeallocate>
   170f4:	e59f3054 	ldr	r3, [pc, #84]	; 17150 <HcdInitialise+0x2c4>
   170f8:	e5933000 	ldr	r3, [r3]
   170fc:	e3530000 	cmp	r3, #0
   17100:	0a000003 	beq	17114 <HcdInitialise+0x288>
   17104:	e59f3044 	ldr	r3, [pc, #68]	; 17150 <HcdInitialise+0x2c4>
   17108:	e5933000 	ldr	r3, [r3]
   1710c:	e1a00003 	mov	r0, r3
   17110:	ebffd225 	bl	b9ac <MemoryDeallocate>
   17114:	e55b3005 	ldrb	r3, [fp, #-5]
   17118:	e1a03c03 	lsl	r3, r3, #24
   1711c:	e1a03c43 	asr	r3, r3, #24
   17120:	e1a00003 	mov	r0, r3
   17124:	e24bd004 	sub	sp, fp, #4
   17128:	e8bd4800 	pop	{fp, lr}
   1712c:	e12fff1e 	bx	lr
   17130:	20980000 	.word	0x20980000
   17134:	000298b8 	.word	0x000298b8
   17138:	000298a4 	.word	0x000298a4
   1713c:	20980400 	.word	0x20980400
   17140:	000298bc 	.word	0x000298bc
   17144:	000298a8 	.word	0x000298a8
   17148:	20980e00 	.word	0x20980e00
   1714c:	000298c0 	.word	0x000298c0
   17150:	000298ac 	.word	0x000298ac
   17154:	4f542000 	.word	0x4f542000

00017158 <HcdStart>:
   17158:	e92d4800 	push	{fp, lr}
   1715c:	e28db004 	add	fp, sp, #4
   17160:	e24dd010 	sub	sp, sp, #16
   17164:	e59f39dc 	ldr	r3, [pc, #2524]	; 17b48 <HcdStart+0x9f0>
   17168:	e5933000 	ldr	r3, [r3]
   1716c:	e3530000 	cmp	r3, #0
   17170:	1a000001 	bne	1717c <HcdStart+0x24>
   17174:	e3e03003 	mvn	r3, #3
   17178:	ea00026e 	b	17b38 <HcdStart+0x9e0>
   1717c:	e3a00b01 	mov	r0, #1024	; 0x400
   17180:	ebffcf9f 	bl	b004 <MemoryAllocate>
   17184:	e1a02000 	mov	r2, r0
   17188:	e59f39bc 	ldr	r3, [pc, #2492]	; 17b4c <HcdStart+0x9f4>
   1718c:	e5832000 	str	r2, [r3]
   17190:	e59f39b4 	ldr	r3, [pc, #2484]	; 17b4c <HcdStart+0x9f4>
   17194:	e5933000 	ldr	r3, [r3]
   17198:	e3530000 	cmp	r3, #0
   1719c:	1a000001 	bne	171a8 <HcdStart+0x50>
   171a0:	e3e03006 	mvn	r3, #6
   171a4:	ea000263 	b	17b38 <HcdStart+0x9e0>
   171a8:	e59f3998 	ldr	r3, [pc, #2456]	; 17b48 <HcdStart+0x9f0>
   171ac:	e5933000 	ldr	r3, [r3]
   171b0:	e283300c 	add	r3, r3, #12
   171b4:	e1a00003 	mov	r0, r3
   171b8:	ebfff6d3 	bl	14d0c <ReadBackReg>
   171bc:	e59f3984 	ldr	r3, [pc, #2436]	; 17b48 <HcdStart+0x9f0>
   171c0:	e5932000 	ldr	r2, [r3]
   171c4:	e5d2300e 	ldrb	r3, [r2, #14]
   171c8:	e3c33010 	bic	r3, r3, #16
   171cc:	e5c2300e 	strb	r3, [r2, #14]
   171d0:	e59f3970 	ldr	r3, [pc, #2416]	; 17b48 <HcdStart+0x9f0>
   171d4:	e5932000 	ldr	r2, [r3]
   171d8:	e5d2300e 	ldrb	r3, [r2, #14]
   171dc:	e3c33040 	bic	r3, r3, #64	; 0x40
   171e0:	e5c2300e 	strb	r3, [r2, #14]
   171e4:	e59f395c 	ldr	r3, [pc, #2396]	; 17b48 <HcdStart+0x9f0>
   171e8:	e5933000 	ldr	r3, [r3]
   171ec:	e283300c 	add	r3, r3, #12
   171f0:	e1a00003 	mov	r0, r3
   171f4:	ebfff663 	bl	14b88 <WriteThroughReg>
   171f8:	ebfff7d3 	bl	1514c <HcdReset>
   171fc:	e1a03000 	mov	r3, r0
   17200:	e54b3005 	strb	r3, [fp, #-5]
   17204:	e15b30d5 	ldrsb	r3, [fp, #-5]
   17208:	e3530000 	cmp	r3, #0
   1720c:	1a00023f 	bne	17b10 <HcdStart+0x9b8>
   17210:	e59f3938 	ldr	r3, [pc, #2360]	; 17b50 <HcdStart+0x9f8>
   17214:	e5d33000 	ldrb	r3, [r3]
   17218:	e3530000 	cmp	r3, #0
   1721c:	1a000012 	bne	1726c <HcdStart+0x114>
   17220:	e59f3928 	ldr	r3, [pc, #2344]	; 17b50 <HcdStart+0x9f8>
   17224:	e3a02001 	mov	r2, #1
   17228:	e5c32000 	strb	r2, [r3]
   1722c:	e59f3914 	ldr	r3, [pc, #2324]	; 17b48 <HcdStart+0x9f0>
   17230:	e5932000 	ldr	r2, [r3]
   17234:	e5d2300c 	ldrb	r3, [r2, #12]
   17238:	e3833010 	orr	r3, r3, #16
   1723c:	e5c2300c 	strb	r3, [r2, #12]
   17240:	e59f3900 	ldr	r3, [pc, #2304]	; 17b48 <HcdStart+0x9f0>
   17244:	e5932000 	ldr	r2, [r3]
   17248:	e5d2300c 	ldrb	r3, [r2, #12]
   1724c:	e3c33008 	bic	r3, r3, #8
   17250:	e5c2300c 	strb	r3, [r2, #12]
   17254:	e59f38ec 	ldr	r3, [pc, #2284]	; 17b48 <HcdStart+0x9f0>
   17258:	e5933000 	ldr	r3, [r3]
   1725c:	e283300c 	add	r3, r3, #12
   17260:	e1a00003 	mov	r0, r3
   17264:	ebfff647 	bl	14b88 <WriteThroughReg>
   17268:	ebfff7b7 	bl	1514c <HcdReset>
   1726c:	e59f38d4 	ldr	r3, [pc, #2260]	; 17b48 <HcdStart+0x9f0>
   17270:	e5933000 	ldr	r3, [r3]
   17274:	e283300c 	add	r3, r3, #12
   17278:	e1a00003 	mov	r0, r3
   1727c:	ebfff6a2 	bl	14d0c <ReadBackReg>
   17280:	e59f38c0 	ldr	r3, [pc, #2240]	; 17b48 <HcdStart+0x9f0>
   17284:	e5933000 	ldr	r3, [r3]
   17288:	e5d33048 	ldrb	r3, [r3, #72]	; 0x48
   1728c:	e20330ff 	and	r3, r3, #255	; 0xff
   17290:	e1a03323 	lsr	r3, r3, #6
   17294:	e20330ff 	and	r3, r3, #255	; 0xff
   17298:	e3530002 	cmp	r3, #2
   1729c:	1a000011 	bne	172e8 <HcdStart+0x190>
   172a0:	e59f38a0 	ldr	r3, [pc, #2208]	; 17b48 <HcdStart+0x9f0>
   172a4:	e5933000 	ldr	r3, [r3]
   172a8:	e5d33049 	ldrb	r3, [r3, #73]	; 0x49
   172ac:	e2033003 	and	r3, r3, #3
   172b0:	e20330ff 	and	r3, r3, #255	; 0xff
   172b4:	e3530001 	cmp	r3, #1
   172b8:	1a00000a 	bne	172e8 <HcdStart+0x190>
   172bc:	e59f3884 	ldr	r3, [pc, #2180]	; 17b48 <HcdStart+0x9f0>
   172c0:	e5932000 	ldr	r2, [r3]
   172c4:	e5d2300e 	ldrb	r3, [r2, #14]
   172c8:	e3833002 	orr	r3, r3, #2
   172cc:	e5c2300e 	strb	r3, [r2, #14]
   172d0:	e59f3870 	ldr	r3, [pc, #2160]	; 17b48 <HcdStart+0x9f0>
   172d4:	e5932000 	ldr	r2, [r3]
   172d8:	e5d2300e 	ldrb	r3, [r2, #14]
   172dc:	e3833008 	orr	r3, r3, #8
   172e0:	e5c2300e 	strb	r3, [r2, #14]
   172e4:	ea000009 	b	17310 <HcdStart+0x1b8>
   172e8:	e59f3858 	ldr	r3, [pc, #2136]	; 17b48 <HcdStart+0x9f0>
   172ec:	e5932000 	ldr	r2, [r3]
   172f0:	e5d2300e 	ldrb	r3, [r2, #14]
   172f4:	e3c33002 	bic	r3, r3, #2
   172f8:	e5c2300e 	strb	r3, [r2, #14]
   172fc:	e59f3844 	ldr	r3, [pc, #2116]	; 17b48 <HcdStart+0x9f0>
   17300:	e5932000 	ldr	r2, [r3]
   17304:	e5d2300e 	ldrb	r3, [r2, #14]
   17308:	e3c33008 	bic	r3, r3, #8
   1730c:	e5c2300e 	strb	r3, [r2, #14]
   17310:	e59f3830 	ldr	r3, [pc, #2096]	; 17b48 <HcdStart+0x9f0>
   17314:	e5933000 	ldr	r3, [r3]
   17318:	e283300c 	add	r3, r3, #12
   1731c:	e1a00003 	mov	r0, r3
   17320:	ebfff618 	bl	14b88 <WriteThroughReg>
   17324:	e59f381c 	ldr	r3, [pc, #2076]	; 17b48 <HcdStart+0x9f0>
   17328:	e5933000 	ldr	r3, [r3]
   1732c:	e2833008 	add	r3, r3, #8
   17330:	e1a00003 	mov	r0, r3
   17334:	ebfff674 	bl	14d0c <ReadBackReg>
   17338:	e59f3808 	ldr	r3, [pc, #2056]	; 17b48 <HcdStart+0x9f0>
   1733c:	e5932000 	ldr	r2, [r3]
   17340:	e5d23008 	ldrb	r3, [r2, #8]
   17344:	e3833020 	orr	r3, r3, #32
   17348:	e5c23008 	strb	r3, [r2, #8]
   1734c:	e59f37f4 	ldr	r3, [pc, #2036]	; 17b48 <HcdStart+0x9f0>
   17350:	e5932000 	ldr	r2, [r3]
   17354:	e5d2300a 	ldrb	r3, [r2, #10]
   17358:	e3c33080 	bic	r3, r3, #128	; 0x80
   1735c:	e5c2300a 	strb	r3, [r2, #10]
   17360:	e59f37e0 	ldr	r3, [pc, #2016]	; 17b48 <HcdStart+0x9f0>
   17364:	e5933000 	ldr	r3, [r3]
   17368:	e2833008 	add	r3, r3, #8
   1736c:	e1a00003 	mov	r0, r3
   17370:	ebfff604 	bl	14b88 <WriteThroughReg>
   17374:	e59f37cc 	ldr	r3, [pc, #1996]	; 17b48 <HcdStart+0x9f0>
   17378:	e5933000 	ldr	r3, [r3]
   1737c:	e283300c 	add	r3, r3, #12
   17380:	e1a00003 	mov	r0, r3
   17384:	ebfff660 	bl	14d0c <ReadBackReg>
   17388:	e59f37b8 	ldr	r3, [pc, #1976]	; 17b48 <HcdStart+0x9f0>
   1738c:	e5933000 	ldr	r3, [r3]
   17390:	e5d33048 	ldrb	r3, [r3, #72]	; 0x48
   17394:	e2033007 	and	r3, r3, #7
   17398:	e20330ff 	and	r3, r3, #255	; 0xff
   1739c:	e3530006 	cmp	r3, #6
   173a0:	979ff103 	ldrls	pc, [pc, r3, lsl #2]
   173a4:	ea000027 	b	17448 <HcdStart+0x2f0>
   173a8:	000173c4 	.word	0x000173c4
   173ac:	000173f0 	.word	0x000173f0
   173b0:	0001741c 	.word	0x0001741c
   173b4:	000173f0 	.word	0x000173f0
   173b8:	0001741c 	.word	0x0001741c
   173bc:	000173f0 	.word	0x000173f0
   173c0:	0001741c 	.word	0x0001741c
   173c4:	e59f377c 	ldr	r3, [pc, #1916]	; 17b48 <HcdStart+0x9f0>
   173c8:	e5932000 	ldr	r2, [r3]
   173cc:	e5d2300d 	ldrb	r3, [r2, #13]
   173d0:	e3833002 	orr	r3, r3, #2
   173d4:	e5c2300d 	strb	r3, [r2, #13]
   173d8:	e59f3768 	ldr	r3, [pc, #1896]	; 17b48 <HcdStart+0x9f0>
   173dc:	e5932000 	ldr	r2, [r3]
   173e0:	e5d2300d 	ldrb	r3, [r2, #13]
   173e4:	e3833001 	orr	r3, r3, #1
   173e8:	e5c2300d 	strb	r3, [r2, #13]
   173ec:	ea000015 	b	17448 <HcdStart+0x2f0>
   173f0:	e59f3750 	ldr	r3, [pc, #1872]	; 17b48 <HcdStart+0x9f0>
   173f4:	e5932000 	ldr	r2, [r3]
   173f8:	e5d2300d 	ldrb	r3, [r2, #13]
   173fc:	e3c33002 	bic	r3, r3, #2
   17400:	e5c2300d 	strb	r3, [r2, #13]
   17404:	e59f373c 	ldr	r3, [pc, #1852]	; 17b48 <HcdStart+0x9f0>
   17408:	e5932000 	ldr	r2, [r3]
   1740c:	e5d2300d 	ldrb	r3, [r2, #13]
   17410:	e3833001 	orr	r3, r3, #1
   17414:	e5c2300d 	strb	r3, [r2, #13]
   17418:	ea00000a 	b	17448 <HcdStart+0x2f0>
   1741c:	e59f3724 	ldr	r3, [pc, #1828]	; 17b48 <HcdStart+0x9f0>
   17420:	e5932000 	ldr	r2, [r3]
   17424:	e5d2300d 	ldrb	r3, [r2, #13]
   17428:	e3c33002 	bic	r3, r3, #2
   1742c:	e5c2300d 	strb	r3, [r2, #13]
   17430:	e59f3710 	ldr	r3, [pc, #1808]	; 17b48 <HcdStart+0x9f0>
   17434:	e5932000 	ldr	r2, [r3]
   17438:	e5d2300d 	ldrb	r3, [r2, #13]
   1743c:	e3c33001 	bic	r3, r3, #1
   17440:	e5c2300d 	strb	r3, [r2, #13]
   17444:	e1a00000 	nop			; (mov r0, r0)
   17448:	e59f36f8 	ldr	r3, [pc, #1784]	; 17b48 <HcdStart+0x9f0>
   1744c:	e5933000 	ldr	r3, [r3]
   17450:	e283300c 	add	r3, r3, #12
   17454:	e1a00003 	mov	r0, r3
   17458:	ebfff5ca 	bl	14b88 <WriteThroughReg>
   1745c:	e59f36f0 	ldr	r3, [pc, #1776]	; 17b54 <HcdStart+0x9fc>
   17460:	e5933000 	ldr	r3, [r3]
   17464:	e1a00003 	mov	r0, r3
   17468:	ebfff698 	bl	14ed0 <ClearReg>
   1746c:	e59f36e0 	ldr	r3, [pc, #1760]	; 17b54 <HcdStart+0x9fc>
   17470:	e5933000 	ldr	r3, [r3]
   17474:	e1a00003 	mov	r0, r3
   17478:	ebfff5c2 	bl	14b88 <WriteThroughReg>
   1747c:	e59f36d4 	ldr	r3, [pc, #1748]	; 17b58 <HcdStart+0xa00>
   17480:	e5933000 	ldr	r3, [r3]
   17484:	e1a00003 	mov	r0, r3
   17488:	ebfff61f 	bl	14d0c <ReadBackReg>
   1748c:	e59f36b4 	ldr	r3, [pc, #1716]	; 17b48 <HcdStart+0x9f0>
   17490:	e5933000 	ldr	r3, [r3]
   17494:	e5d33048 	ldrb	r3, [r3, #72]	; 0x48
   17498:	e20330ff 	and	r3, r3, #255	; 0xff
   1749c:	e1a03323 	lsr	r3, r3, #6
   174a0:	e20330ff 	and	r3, r3, #255	; 0xff
   174a4:	e3530002 	cmp	r3, #2
   174a8:	1a000016 	bne	17508 <HcdStart+0x3b0>
   174ac:	e59f3694 	ldr	r3, [pc, #1684]	; 17b48 <HcdStart+0x9f0>
   174b0:	e5933000 	ldr	r3, [r3]
   174b4:	e5d33049 	ldrb	r3, [r3, #73]	; 0x49
   174b8:	e2033003 	and	r3, r3, #3
   174bc:	e20330ff 	and	r3, r3, #255	; 0xff
   174c0:	e3530001 	cmp	r3, #1
   174c4:	1a00000f 	bne	17508 <HcdStart+0x3b0>
   174c8:	e59f3678 	ldr	r3, [pc, #1656]	; 17b48 <HcdStart+0x9f0>
   174cc:	e5933000 	ldr	r3, [r3]
   174d0:	e5d3300e 	ldrb	r3, [r3, #14]
   174d4:	e20330ff 	and	r3, r3, #255	; 0xff
   174d8:	e1a030a3 	lsr	r3, r3, #1
   174dc:	e2033001 	and	r3, r3, #1
   174e0:	e20330ff 	and	r3, r3, #255	; 0xff
   174e4:	e3530000 	cmp	r3, #0
   174e8:	0a000006 	beq	17508 <HcdStart+0x3b0>
   174ec:	e59f3664 	ldr	r3, [pc, #1636]	; 17b58 <HcdStart+0xa00>
   174f0:	e5932000 	ldr	r2, [r3]
   174f4:	e5d23000 	ldrb	r3, [r2]
   174f8:	e3c33002 	bic	r3, r3, #2
   174fc:	e3833001 	orr	r3, r3, #1
   17500:	e5c23000 	strb	r3, [r2]
   17504:	ea000004 	b	1751c <HcdStart+0x3c4>
   17508:	e59f3648 	ldr	r3, [pc, #1608]	; 17b58 <HcdStart+0xa00>
   1750c:	e5932000 	ldr	r2, [r3]
   17510:	e5d23000 	ldrb	r3, [r2]
   17514:	e3c33003 	bic	r3, r3, #3
   17518:	e5c23000 	strb	r3, [r2]
   1751c:	e59f3634 	ldr	r3, [pc, #1588]	; 17b58 <HcdStart+0xa00>
   17520:	e5933000 	ldr	r3, [r3]
   17524:	e1a00003 	mov	r0, r3
   17528:	ebfff596 	bl	14b88 <WriteThroughReg>
   1752c:	e59f3624 	ldr	r3, [pc, #1572]	; 17b58 <HcdStart+0xa00>
   17530:	e5933000 	ldr	r3, [r3]
   17534:	e1a00003 	mov	r0, r3
   17538:	ebfff5f3 	bl	14d0c <ReadBackReg>
   1753c:	e59f3614 	ldr	r3, [pc, #1556]	; 17b58 <HcdStart+0xa00>
   17540:	e5932000 	ldr	r2, [r3]
   17544:	e5d23000 	ldrb	r3, [r2]
   17548:	e3833004 	orr	r3, r3, #4
   1754c:	e5c23000 	strb	r3, [r2]
   17550:	e59f3600 	ldr	r3, [pc, #1536]	; 17b58 <HcdStart+0xa00>
   17554:	e5933000 	ldr	r3, [r3]
   17558:	e1a00003 	mov	r0, r3
   1755c:	ebfff589 	bl	14b88 <WriteThroughReg>
   17560:	e59f35f0 	ldr	r3, [pc, #1520]	; 17b58 <HcdStart+0xa00>
   17564:	e5933000 	ldr	r3, [r3]
   17568:	e1a00003 	mov	r0, r3
   1756c:	ebfff5e6 	bl	14d0c <ReadBackReg>
   17570:	e59f35e0 	ldr	r3, [pc, #1504]	; 17b58 <HcdStart+0xa00>
   17574:	e5933000 	ldr	r3, [r3]
   17578:	e5d33002 	ldrb	r3, [r3, #2]
   1757c:	e20330ff 	and	r3, r3, #255	; 0xff
   17580:	e1a033a3 	lsr	r3, r3, #7
   17584:	e20320ff 	and	r2, r3, #255	; 0xff
   17588:	e59f35b8 	ldr	r3, [pc, #1464]	; 17b48 <HcdStart+0x9f0>
   1758c:	e5933000 	ldr	r3, [r3]
   17590:	e5d33053 	ldrb	r3, [r3, #83]	; 0x53
   17594:	e20330ff 	and	r3, r3, #255	; 0xff
   17598:	e1a03323 	lsr	r3, r3, #6
   1759c:	e2033001 	and	r3, r3, #1
   175a0:	e20330ff 	and	r3, r3, #255	; 0xff
   175a4:	e1520003 	cmp	r2, r3
   175a8:	1a000005 	bne	175c4 <HcdStart+0x46c>
   175ac:	e59f3594 	ldr	r3, [pc, #1428]	; 17b48 <HcdStart+0x9f0>
   175b0:	e5933000 	ldr	r3, [r3]
   175b4:	e5d32040 	ldrb	r2, [r3, #64]	; 0x40
   175b8:	e5d32041 	ldrb	r2, [r3, #65]	; 0x41
   175bc:	e5d32042 	ldrb	r2, [r3, #66]	; 0x42
   175c0:	e5d33043 	ldrb	r3, [r3, #67]	; 0x43
   175c4:	e59f358c 	ldr	r3, [pc, #1420]	; 17b58 <HcdStart+0xa00>
   175c8:	e5933000 	ldr	r3, [r3]
   175cc:	e1a00003 	mov	r0, r3
   175d0:	ebfff56c 	bl	14b88 <WriteThroughReg>
   175d4:	e59f356c 	ldr	r3, [pc, #1388]	; 17b48 <HcdStart+0x9f0>
   175d8:	e5933000 	ldr	r3, [r3]
   175dc:	e2833024 	add	r3, r3, #36	; 0x24
   175e0:	e1a00003 	mov	r0, r3
   175e4:	ebfff5c8 	bl	14d0c <ReadBackReg>
   175e8:	e59f3558 	ldr	r3, [pc, #1368]	; 17b48 <HcdStart+0x9f0>
   175ec:	e5933000 	ldr	r3, [r3]
   175f0:	e5d32024 	ldrb	r2, [r3, #36]	; 0x24
   175f4:	e3a02000 	mov	r2, #0
   175f8:	e5c32024 	strb	r2, [r3, #36]	; 0x24
   175fc:	e5d32025 	ldrb	r2, [r3, #37]	; 0x25
   17600:	e3a02000 	mov	r2, #0
   17604:	e3822050 	orr	r2, r2, #80	; 0x50
   17608:	e5c32025 	strb	r2, [r3, #37]	; 0x25
   1760c:	e5d32026 	ldrb	r2, [r3, #38]	; 0x26
   17610:	e3a02000 	mov	r2, #0
   17614:	e5c32026 	strb	r2, [r3, #38]	; 0x26
   17618:	e5d32027 	ldrb	r2, [r3, #39]	; 0x27
   1761c:	e3a02000 	mov	r2, #0
   17620:	e5c32027 	strb	r2, [r3, #39]	; 0x27
   17624:	e59f351c 	ldr	r3, [pc, #1308]	; 17b48 <HcdStart+0x9f0>
   17628:	e5933000 	ldr	r3, [r3]
   1762c:	e2833024 	add	r3, r3, #36	; 0x24
   17630:	e1a00003 	mov	r0, r3
   17634:	ebfff553 	bl	14b88 <WriteThroughReg>
   17638:	e59f3508 	ldr	r3, [pc, #1288]	; 17b48 <HcdStart+0x9f0>
   1763c:	e5933000 	ldr	r3, [r3]
   17640:	e2833028 	add	r3, r3, #40	; 0x28
   17644:	e1a00003 	mov	r0, r3
   17648:	ebfff5af 	bl	14d0c <ReadBackReg>
   1764c:	e59f34f4 	ldr	r3, [pc, #1268]	; 17b48 <HcdStart+0x9f0>
   17650:	e5933000 	ldr	r3, [r3]
   17654:	e5d3202a 	ldrb	r2, [r3, #42]	; 0x2a
   17658:	e3a02000 	mov	r2, #0
   1765c:	e5c3202a 	strb	r2, [r3, #42]	; 0x2a
   17660:	e5d3202b 	ldrb	r2, [r3, #43]	; 0x2b
   17664:	e3a02000 	mov	r2, #0
   17668:	e3822050 	orr	r2, r2, #80	; 0x50
   1766c:	e5c3202b 	strb	r2, [r3, #43]	; 0x2b
   17670:	e59f34d0 	ldr	r3, [pc, #1232]	; 17b48 <HcdStart+0x9f0>
   17674:	e5933000 	ldr	r3, [r3]
   17678:	e5d32028 	ldrb	r2, [r3, #40]	; 0x28
   1767c:	e3a02000 	mov	r2, #0
   17680:	e5c32028 	strb	r2, [r3, #40]	; 0x28
   17684:	e5d32029 	ldrb	r2, [r3, #41]	; 0x29
   17688:	e3a02000 	mov	r2, #0
   1768c:	e3822050 	orr	r2, r2, #80	; 0x50
   17690:	e5c32029 	strb	r2, [r3, #41]	; 0x29
   17694:	e59f34ac 	ldr	r3, [pc, #1196]	; 17b48 <HcdStart+0x9f0>
   17698:	e5933000 	ldr	r3, [r3]
   1769c:	e2833028 	add	r3, r3, #40	; 0x28
   176a0:	e1a00003 	mov	r0, r3
   176a4:	ebfff537 	bl	14b88 <WriteThroughReg>
   176a8:	e59f3498 	ldr	r3, [pc, #1176]	; 17b48 <HcdStart+0x9f0>
   176ac:	e5933000 	ldr	r3, [r3]
   176b0:	e2833c01 	add	r3, r3, #256	; 0x100
   176b4:	e1a00003 	mov	r0, r3
   176b8:	ebfff593 	bl	14d0c <ReadBackReg>
   176bc:	e59f3484 	ldr	r3, [pc, #1156]	; 17b48 <HcdStart+0x9f0>
   176c0:	e5933000 	ldr	r3, [r3]
   176c4:	e5d32102 	ldrb	r2, [r3, #258]	; 0x102
   176c8:	e3a02000 	mov	r2, #0
   176cc:	e5c32102 	strb	r2, [r3, #258]	; 0x102
   176d0:	e5d32103 	ldrb	r2, [r3, #259]	; 0x103
   176d4:	e3a02000 	mov	r2, #0
   176d8:	e3822050 	orr	r2, r2, #80	; 0x50
   176dc:	e5c32103 	strb	r2, [r3, #259]	; 0x103
   176e0:	e59f3460 	ldr	r3, [pc, #1120]	; 17b48 <HcdStart+0x9f0>
   176e4:	e5932000 	ldr	r2, [r3]
   176e8:	e5d23100 	ldrb	r3, [r2, #256]	; 0x100
   176ec:	e3a03000 	mov	r3, #0
   176f0:	e5c23100 	strb	r3, [r2, #256]	; 0x100
   176f4:	e5d23101 	ldrb	r3, [r2, #257]	; 0x101
   176f8:	e3a03000 	mov	r3, #0
   176fc:	e1e03003 	mvn	r3, r3
   17700:	e203305f 	and	r3, r3, #95	; 0x5f
   17704:	e1e03003 	mvn	r3, r3
   17708:	e5c23101 	strb	r3, [r2, #257]	; 0x101
   1770c:	e59f3434 	ldr	r3, [pc, #1076]	; 17b48 <HcdStart+0x9f0>
   17710:	e5933000 	ldr	r3, [r3]
   17714:	e2833c01 	add	r3, r3, #256	; 0x100
   17718:	e1a00003 	mov	r0, r3
   1771c:	ebfff519 	bl	14b88 <WriteThroughReg>
   17720:	e59f3420 	ldr	r3, [pc, #1056]	; 17b48 <HcdStart+0x9f0>
   17724:	e5933000 	ldr	r3, [r3]
   17728:	e1a00003 	mov	r0, r3
   1772c:	ebfff576 	bl	14d0c <ReadBackReg>
   17730:	e59f3410 	ldr	r3, [pc, #1040]	; 17b48 <HcdStart+0x9f0>
   17734:	e5932000 	ldr	r2, [r3]
   17738:	e5d23001 	ldrb	r3, [r2, #1]
   1773c:	e3833004 	orr	r3, r3, #4
   17740:	e5c23001 	strb	r3, [r2, #1]
   17744:	e59f33fc 	ldr	r3, [pc, #1020]	; 17b48 <HcdStart+0x9f0>
   17748:	e5933000 	ldr	r3, [r3]
   1774c:	e1a00003 	mov	r0, r3
   17750:	ebfff50c 	bl	14b88 <WriteThroughReg>
   17754:	e3a00010 	mov	r0, #16
   17758:	ebfff6c1 	bl	15264 <HcdTransmitFifoFlush>
   1775c:	e1a03000 	mov	r3, r0
   17760:	e54b3005 	strb	r3, [fp, #-5]
   17764:	e15b30d5 	ldrsb	r3, [fp, #-5]
   17768:	e3530000 	cmp	r3, #0
   1776c:	1a0000e9 	bne	17b18 <HcdStart+0x9c0>
   17770:	ebfff705 	bl	1538c <HcdReceiveFifoFlush>
   17774:	e1a03000 	mov	r3, r0
   17778:	e54b3005 	strb	r3, [fp, #-5]
   1777c:	e15b30d5 	ldrsb	r3, [fp, #-5]
   17780:	e3530000 	cmp	r3, #0
   17784:	1a0000e5 	bne	17b20 <HcdStart+0x9c8>
   17788:	e59f33c8 	ldr	r3, [pc, #968]	; 17b58 <HcdStart+0xa00>
   1778c:	e5933000 	ldr	r3, [r3]
   17790:	e5d33002 	ldrb	r3, [r3, #2]
   17794:	e20330ff 	and	r3, r3, #255	; 0xff
   17798:	e1a033a3 	lsr	r3, r3, #7
   1779c:	e20330ff 	and	r3, r3, #255	; 0xff
   177a0:	e3530000 	cmp	r3, #0
   177a4:	1a00009c 	bne	17a1c <HcdStart+0x8c4>
   177a8:	e3a03000 	mov	r3, #0
   177ac:	e50b3010 	str	r3, [fp, #-16]
   177b0:	ea00002f 	b	17874 <HcdStart+0x71c>
   177b4:	e59f339c 	ldr	r3, [pc, #924]	; 17b58 <HcdStart+0xa00>
   177b8:	e5932000 	ldr	r2, [r3]
   177bc:	e51b3010 	ldr	r3, [fp, #-16]
   177c0:	e2833008 	add	r3, r3, #8
   177c4:	e1a03283 	lsl	r3, r3, #5
   177c8:	e0823003 	add	r3, r2, r3
   177cc:	e1a00003 	mov	r0, r3
   177d0:	ebfff54d 	bl	14d0c <ReadBackReg>
   177d4:	e59f337c 	ldr	r3, [pc, #892]	; 17b58 <HcdStart+0xa00>
   177d8:	e5932000 	ldr	r2, [r3]
   177dc:	e51b3010 	ldr	r3, [fp, #-16]
   177e0:	e2833008 	add	r3, r3, #8
   177e4:	e1a03283 	lsl	r3, r3, #5
   177e8:	e0823003 	add	r3, r2, r3
   177ec:	e5d32003 	ldrb	r2, [r3, #3]
   177f0:	e3c22080 	bic	r2, r2, #128	; 0x80
   177f4:	e5c32003 	strb	r2, [r3, #3]
   177f8:	e59f3358 	ldr	r3, [pc, #856]	; 17b58 <HcdStart+0xa00>
   177fc:	e5932000 	ldr	r2, [r3]
   17800:	e51b3010 	ldr	r3, [fp, #-16]
   17804:	e2833008 	add	r3, r3, #8
   17808:	e1a03283 	lsl	r3, r3, #5
   1780c:	e0823003 	add	r3, r2, r3
   17810:	e5d32003 	ldrb	r2, [r3, #3]
   17814:	e3822040 	orr	r2, r2, #64	; 0x40
   17818:	e5c32003 	strb	r2, [r3, #3]
   1781c:	e59f3334 	ldr	r3, [pc, #820]	; 17b58 <HcdStart+0xa00>
   17820:	e5932000 	ldr	r2, [r3]
   17824:	e51b3010 	ldr	r3, [fp, #-16]
   17828:	e2833008 	add	r3, r3, #8
   1782c:	e1a03283 	lsl	r3, r3, #5
   17830:	e0823003 	add	r3, r2, r3
   17834:	e5d32001 	ldrb	r2, [r3, #1]
   17838:	e3822080 	orr	r2, r2, #128	; 0x80
   1783c:	e5c32001 	strb	r2, [r3, #1]
   17840:	e59f3310 	ldr	r3, [pc, #784]	; 17b58 <HcdStart+0xa00>
   17844:	e5932000 	ldr	r2, [r3]
   17848:	e51b3010 	ldr	r3, [fp, #-16]
   1784c:	e2833008 	add	r3, r3, #8
   17850:	e1a03283 	lsl	r3, r3, #5
   17854:	e0823003 	add	r3, r2, r3
   17858:	e1a00003 	mov	r0, r3
   1785c:	ebfff4c9 	bl	14b88 <WriteThroughReg>
   17860:	e3a03000 	mov	r3, #0
   17864:	e50b300c 	str	r3, [fp, #-12]
   17868:	e51b3010 	ldr	r3, [fp, #-16]
   1786c:	e2833001 	add	r3, r3, #1
   17870:	e50b3010 	str	r3, [fp, #-16]
   17874:	e59f32cc 	ldr	r3, [pc, #716]	; 17b48 <HcdStart+0x9f0>
   17878:	e5933000 	ldr	r3, [r3]
   1787c:	e5d32049 	ldrb	r2, [r3, #73]	; 0x49
   17880:	e20220ff 	and	r2, r2, #255	; 0xff
   17884:	e1a02322 	lsr	r2, r2, #6
   17888:	e20220ff 	and	r2, r2, #255	; 0xff
   1788c:	e5d3304a 	ldrb	r3, [r3, #74]	; 0x4a
   17890:	e20330ff 	and	r3, r3, #255	; 0xff
   17894:	e2033003 	and	r3, r3, #3
   17898:	e1a03103 	lsl	r3, r3, #2
   1789c:	e1833002 	orr	r3, r3, r2
   178a0:	e20330ff 	and	r3, r3, #255	; 0xff
   178a4:	e1a02003 	mov	r2, r3
   178a8:	e51b3010 	ldr	r3, [fp, #-16]
   178ac:	e1520003 	cmp	r2, r3
   178b0:	8affffbf 	bhi	177b4 <HcdStart+0x65c>
   178b4:	e3a03000 	mov	r3, #0
   178b8:	e50b3014 	str	r3, [fp, #-20]	; 0xffffffec
   178bc:	ea000046 	b	179dc <HcdStart+0x884>
   178c0:	e59f3290 	ldr	r3, [pc, #656]	; 17b58 <HcdStart+0xa00>
   178c4:	e5932000 	ldr	r2, [r3]
   178c8:	e51b3014 	ldr	r3, [fp, #-20]	; 0xffffffec
   178cc:	e2833008 	add	r3, r3, #8
   178d0:	e1a03283 	lsl	r3, r3, #5
   178d4:	e0823003 	add	r3, r2, r3
   178d8:	e1a00003 	mov	r0, r3
   178dc:	ebfff50a 	bl	14d0c <ReadBackReg>
   178e0:	e59f3270 	ldr	r3, [pc, #624]	; 17b58 <HcdStart+0xa00>
   178e4:	e5932000 	ldr	r2, [r3]
   178e8:	e51b3014 	ldr	r3, [fp, #-20]	; 0xffffffec
   178ec:	e2833008 	add	r3, r3, #8
   178f0:	e1a03283 	lsl	r3, r3, #5
   178f4:	e0823003 	add	r3, r2, r3
   178f8:	e5d32003 	ldrb	r2, [r3, #3]
   178fc:	e3822080 	orr	r2, r2, #128	; 0x80
   17900:	e5c32003 	strb	r2, [r3, #3]
   17904:	e59f324c 	ldr	r3, [pc, #588]	; 17b58 <HcdStart+0xa00>
   17908:	e5932000 	ldr	r2, [r3]
   1790c:	e51b3014 	ldr	r3, [fp, #-20]	; 0xffffffec
   17910:	e2833008 	add	r3, r3, #8
   17914:	e1a03283 	lsl	r3, r3, #5
   17918:	e0823003 	add	r3, r2, r3
   1791c:	e5d32003 	ldrb	r2, [r3, #3]
   17920:	e3822040 	orr	r2, r2, #64	; 0x40
   17924:	e5c32003 	strb	r2, [r3, #3]
   17928:	e59f3228 	ldr	r3, [pc, #552]	; 17b58 <HcdStart+0xa00>
   1792c:	e5932000 	ldr	r2, [r3]
   17930:	e51b3014 	ldr	r3, [fp, #-20]	; 0xffffffec
   17934:	e2833008 	add	r3, r3, #8
   17938:	e1a03283 	lsl	r3, r3, #5
   1793c:	e0823003 	add	r3, r2, r3
   17940:	e5d32001 	ldrb	r2, [r3, #1]
   17944:	e3822080 	orr	r2, r2, #128	; 0x80
   17948:	e5c32001 	strb	r2, [r3, #1]
   1794c:	e59f3204 	ldr	r3, [pc, #516]	; 17b58 <HcdStart+0xa00>
   17950:	e5932000 	ldr	r2, [r3]
   17954:	e51b3014 	ldr	r3, [fp, #-20]	; 0xffffffec
   17958:	e2833008 	add	r3, r3, #8
   1795c:	e1a03283 	lsl	r3, r3, #5
   17960:	e0823003 	add	r3, r2, r3
   17964:	e1a00003 	mov	r0, r3
   17968:	ebfff486 	bl	14b88 <WriteThroughReg>
   1796c:	e3a03000 	mov	r3, #0
   17970:	e50b300c 	str	r3, [fp, #-12]
   17974:	e59f31dc 	ldr	r3, [pc, #476]	; 17b58 <HcdStart+0xa00>
   17978:	e5932000 	ldr	r2, [r3]
   1797c:	e51b3014 	ldr	r3, [fp, #-20]	; 0xffffffec
   17980:	e2833008 	add	r3, r3, #8
   17984:	e1a03283 	lsl	r3, r3, #5
   17988:	e0823003 	add	r3, r2, r3
   1798c:	e1a00003 	mov	r0, r3
   17990:	ebfff4dd 	bl	14d0c <ReadBackReg>
   17994:	e51b300c 	ldr	r3, [fp, #-12]
   17998:	e2833001 	add	r3, r3, #1
   1799c:	e50b300c 	str	r3, [fp, #-12]
   179a0:	e59f31b0 	ldr	r3, [pc, #432]	; 17b58 <HcdStart+0xa00>
   179a4:	e5932000 	ldr	r2, [r3]
   179a8:	e51b3014 	ldr	r3, [fp, #-20]	; 0xffffffec
   179ac:	e2833008 	add	r3, r3, #8
   179b0:	e1a03283 	lsl	r3, r3, #5
   179b4:	e0823003 	add	r3, r2, r3
   179b8:	e5d33003 	ldrb	r3, [r3, #3]
   179bc:	e20330ff 	and	r3, r3, #255	; 0xff
   179c0:	e1a033a3 	lsr	r3, r3, #7
   179c4:	e20330ff 	and	r3, r3, #255	; 0xff
   179c8:	e3530000 	cmp	r3, #0
   179cc:	1affffe8 	bne	17974 <HcdStart+0x81c>
   179d0:	e51b3014 	ldr	r3, [fp, #-20]	; 0xffffffec
   179d4:	e2833001 	add	r3, r3, #1
   179d8:	e50b3014 	str	r3, [fp, #-20]	; 0xffffffec
   179dc:	e59f3164 	ldr	r3, [pc, #356]	; 17b48 <HcdStart+0x9f0>
   179e0:	e5933000 	ldr	r3, [r3]
   179e4:	e5d32049 	ldrb	r2, [r3, #73]	; 0x49
   179e8:	e20220ff 	and	r2, r2, #255	; 0xff
   179ec:	e1a02322 	lsr	r2, r2, #6
   179f0:	e20220ff 	and	r2, r2, #255	; 0xff
   179f4:	e5d3304a 	ldrb	r3, [r3, #74]	; 0x4a
   179f8:	e20330ff 	and	r3, r3, #255	; 0xff
   179fc:	e2033003 	and	r3, r3, #3
   17a00:	e1a03103 	lsl	r3, r3, #2
   17a04:	e1833002 	orr	r3, r3, r2
   17a08:	e20330ff 	and	r3, r3, #255	; 0xff
   17a0c:	e1a02003 	mov	r2, r3
   17a10:	e51b3014 	ldr	r3, [fp, #-20]	; 0xffffffec
   17a14:	e1520003 	cmp	r2, r3
   17a18:	8affffa8 	bhi	178c0 <HcdStart+0x768>
   17a1c:	e59f3134 	ldr	r3, [pc, #308]	; 17b58 <HcdStart+0xa00>
   17a20:	e5933000 	ldr	r3, [r3]
   17a24:	e2833040 	add	r3, r3, #64	; 0x40
   17a28:	e1a00003 	mov	r0, r3
   17a2c:	ebfff4b6 	bl	14d0c <ReadBackReg>
   17a30:	e59f3120 	ldr	r3, [pc, #288]	; 17b58 <HcdStart+0xa00>
   17a34:	e5933000 	ldr	r3, [r3]
   17a38:	e5d33041 	ldrb	r3, [r3, #65]	; 0x41
   17a3c:	e20330ff 	and	r3, r3, #255	; 0xff
   17a40:	e1a03223 	lsr	r3, r3, #4
   17a44:	e2033001 	and	r3, r3, #1
   17a48:	e20330ff 	and	r3, r3, #255	; 0xff
   17a4c:	e3530000 	cmp	r3, #0
   17a50:	1a00000a 	bne	17a80 <HcdStart+0x928>
   17a54:	e59f30fc 	ldr	r3, [pc, #252]	; 17b58 <HcdStart+0xa00>
   17a58:	e5932000 	ldr	r2, [r3]
   17a5c:	e5d23041 	ldrb	r3, [r2, #65]	; 0x41
   17a60:	e3833010 	orr	r3, r3, #16
   17a64:	e5c23041 	strb	r3, [r2, #65]	; 0x41
   17a68:	e59f30e8 	ldr	r3, [pc, #232]	; 17b58 <HcdStart+0xa00>
   17a6c:	e5933000 	ldr	r3, [r3]
   17a70:	e2833040 	add	r3, r3, #64	; 0x40
   17a74:	e3a01a01 	mov	r1, #4096	; 0x1000
   17a78:	e1a00003 	mov	r0, r3
   17a7c:	ebfff44c 	bl	14bb4 <WriteThroughRegMask>
   17a80:	e59f30d0 	ldr	r3, [pc, #208]	; 17b58 <HcdStart+0xa00>
   17a84:	e5933000 	ldr	r3, [r3]
   17a88:	e2833040 	add	r3, r3, #64	; 0x40
   17a8c:	e1a00003 	mov	r0, r3
   17a90:	ebfff49d 	bl	14d0c <ReadBackReg>
   17a94:	e59f30bc 	ldr	r3, [pc, #188]	; 17b58 <HcdStart+0xa00>
   17a98:	e5932000 	ldr	r2, [r3]
   17a9c:	e5d23041 	ldrb	r3, [r2, #65]	; 0x41
   17aa0:	e3833001 	orr	r3, r3, #1
   17aa4:	e5c23041 	strb	r3, [r2, #65]	; 0x41
   17aa8:	e59f30a8 	ldr	r3, [pc, #168]	; 17b58 <HcdStart+0xa00>
   17aac:	e5933000 	ldr	r3, [r3]
   17ab0:	e2833040 	add	r3, r3, #64	; 0x40
   17ab4:	e3a01c01 	mov	r1, #256	; 0x100
   17ab8:	e1a00003 	mov	r0, r3
   17abc:	ebfff43c 	bl	14bb4 <WriteThroughRegMask>
   17ac0:	e59f0094 	ldr	r0, [pc, #148]	; 17b5c <HcdStart+0xa04>
   17ac4:	eb00035a 	bl	18834 <MicroDelay>
   17ac8:	e59f3088 	ldr	r3, [pc, #136]	; 17b58 <HcdStart+0xa00>
   17acc:	e5932000 	ldr	r2, [r3]
   17ad0:	e5d23041 	ldrb	r3, [r2, #65]	; 0x41
   17ad4:	e3c33001 	bic	r3, r3, #1
   17ad8:	e5c23041 	strb	r3, [r2, #65]	; 0x41
   17adc:	e59f3074 	ldr	r3, [pc, #116]	; 17b58 <HcdStart+0xa00>
   17ae0:	e5933000 	ldr	r3, [r3]
   17ae4:	e2833040 	add	r3, r3, #64	; 0x40
   17ae8:	e3a01c01 	mov	r1, #256	; 0x100
   17aec:	e1a00003 	mov	r0, r3
   17af0:	ebfff42f 	bl	14bb4 <WriteThroughRegMask>
   17af4:	e59f305c 	ldr	r3, [pc, #92]	; 17b58 <HcdStart+0xa00>
   17af8:	e5933000 	ldr	r3, [r3]
   17afc:	e2833040 	add	r3, r3, #64	; 0x40
   17b00:	e1a00003 	mov	r0, r3
   17b04:	ebfff480 	bl	14d0c <ReadBackReg>
   17b08:	e3a03000 	mov	r3, #0
   17b0c:	ea000009 	b	17b38 <HcdStart+0x9e0>
   17b10:	e1a00000 	nop			; (mov r0, r0)
   17b14:	ea000002 	b	17b24 <HcdStart+0x9cc>
   17b18:	e1a00000 	nop			; (mov r0, r0)
   17b1c:	ea000000 	b	17b24 <HcdStart+0x9cc>
   17b20:	e1a00000 	nop			; (mov r0, r0)
   17b24:	e59f3020 	ldr	r3, [pc, #32]	; 17b4c <HcdStart+0x9f4>
   17b28:	e5933000 	ldr	r3, [r3]
   17b2c:	e1a00003 	mov	r0, r3
   17b30:	ebffcf9d 	bl	b9ac <MemoryDeallocate>
   17b34:	e15b30d5 	ldrsb	r3, [fp, #-5]
   17b38:	e1a00003 	mov	r0, r3
   17b3c:	e24bd004 	sub	sp, fp, #4
   17b40:	e8bd4800 	pop	{fp, lr}
   17b44:	e12fff1e 	bx	lr
   17b48:	000298a4 	.word	0x000298a4
   17b4c:	000298b4 	.word	0x000298b4
   17b50:	000298b0 	.word	0x000298b0
   17b54:	000298ac 	.word	0x000298ac
   17b58:	000298a8 	.word	0x000298a8
   17b5c:	0000c350 	.word	0x0000c350

00017b60 <HcdStop>:
   17b60:	e92d4800 	push	{fp, lr}
   17b64:	e28db004 	add	fp, sp, #4
   17b68:	e59f302c 	ldr	r3, [pc, #44]	; 17b9c <HcdStop+0x3c>
   17b6c:	e5933000 	ldr	r3, [r3]
   17b70:	e3530000 	cmp	r3, #0
   17b74:	0a000003 	beq	17b88 <HcdStop+0x28>
   17b78:	e59f301c 	ldr	r3, [pc, #28]	; 17b9c <HcdStop+0x3c>
   17b7c:	e5933000 	ldr	r3, [r3]
   17b80:	e1a00003 	mov	r0, r3
   17b84:	ebffcf88 	bl	b9ac <MemoryDeallocate>
   17b88:	e3a03000 	mov	r3, #0
   17b8c:	e1a00003 	mov	r0, r3
   17b90:	e24bd004 	sub	sp, fp, #4
   17b94:	e8bd4800 	pop	{fp, lr}
   17b98:	e12fff1e 	bx	lr
   17b9c:	000298b4 	.word	0x000298b4

00017ba0 <HcdDeinitialise>:
   17ba0:	e92d4800 	push	{fp, lr}
   17ba4:	e28db004 	add	fp, sp, #4
   17ba8:	e59f306c 	ldr	r3, [pc, #108]	; 17c1c <HcdDeinitialise+0x7c>
   17bac:	e5933000 	ldr	r3, [r3]
   17bb0:	e3530000 	cmp	r3, #0
   17bb4:	0a000003 	beq	17bc8 <HcdDeinitialise+0x28>
   17bb8:	e59f305c 	ldr	r3, [pc, #92]	; 17c1c <HcdDeinitialise+0x7c>
   17bbc:	e5933000 	ldr	r3, [r3]
   17bc0:	e1a00003 	mov	r0, r3
   17bc4:	ebffcf78 	bl	b9ac <MemoryDeallocate>
   17bc8:	e59f3050 	ldr	r3, [pc, #80]	; 17c20 <HcdDeinitialise+0x80>
   17bcc:	e5933000 	ldr	r3, [r3]
   17bd0:	e3530000 	cmp	r3, #0
   17bd4:	0a000003 	beq	17be8 <HcdDeinitialise+0x48>
   17bd8:	e59f3040 	ldr	r3, [pc, #64]	; 17c20 <HcdDeinitialise+0x80>
   17bdc:	e5933000 	ldr	r3, [r3]
   17be0:	e1a00003 	mov	r0, r3
   17be4:	ebffcf70 	bl	b9ac <MemoryDeallocate>
   17be8:	e59f3034 	ldr	r3, [pc, #52]	; 17c24 <HcdDeinitialise+0x84>
   17bec:	e5933000 	ldr	r3, [r3]
   17bf0:	e3530000 	cmp	r3, #0
   17bf4:	0a000003 	beq	17c08 <HcdDeinitialise+0x68>
   17bf8:	e59f3024 	ldr	r3, [pc, #36]	; 17c24 <HcdDeinitialise+0x84>
   17bfc:	e5933000 	ldr	r3, [r3]
   17c00:	e1a00003 	mov	r0, r3
   17c04:	ebffcf68 	bl	b9ac <MemoryDeallocate>
   17c08:	e3a03000 	mov	r3, #0
   17c0c:	e1a00003 	mov	r0, r3
   17c10:	e24bd004 	sub	sp, fp, #4
   17c14:	e8bd4800 	pop	{fp, lr}
   17c18:	e12fff1e 	bx	lr
   17c1c:	000298a4 	.word	0x000298a4
   17c20:	000298a8 	.word	0x000298a8
   17c24:	000298ac 	.word	0x000298ac

00017c28 <HcdProcessRootHubMessage>:
   17c28:	e92d4800 	push	{fp, lr}
   17c2c:	e28db004 	add	fp, sp, #4
   17c30:	e24dd040 	sub	sp, sp, #64	; 0x40
   17c34:	e50b0038 	str	r0, [fp, #-56]	; 0xffffffc8
   17c38:	e50b103c 	str	r1, [fp, #-60]	; 0xffffffc4
   17c3c:	e50b2040 	str	r2, [fp, #-64]	; 0xffffffc0
   17c40:	e50b3044 	str	r3, [fp, #-68]	; 0xffffffbc
   17c44:	e3a03000 	mov	r3, #0
   17c48:	e54b3009 	strb	r3, [fp, #-9]
   17c4c:	e51b3038 	ldr	r3, [fp, #-56]	; 0xffffffc8
   17c50:	e3a02102 	mov	r2, #-2147483648	; 0x80000000
   17c54:	e5832008 	str	r2, [r3, #8]
   17c58:	e55b303a 	ldrb	r3, [fp, #-58]	; 0xffffffc6
   17c5c:	e2033003 	and	r3, r3, #3
   17c60:	e20330ff 	and	r3, r3, #255	; 0xff
   17c64:	e3530003 	cmp	r3, #3
   17c68:	1a000004 	bne	17c80 <HcdProcessRootHubMessage+0x58>
   17c6c:	e51b3038 	ldr	r3, [fp, #-56]	; 0xffffffc8
   17c70:	e3a02002 	mov	r2, #2
   17c74:	e5832008 	str	r2, [r3, #8]
   17c78:	e3a03000 	mov	r3, #0
   17c7c:	ea0002d7 	b	187e0 <HcdProcessRootHubMessage+0xbb8>
   17c80:	e3a03000 	mov	r3, #0
   17c84:	e50b3008 	str	r3, [fp, #-8]
   17c88:	e59b3004 	ldr	r3, [fp, #4]
   17c8c:	e5d33001 	ldrb	r3, [r3, #1]
   17c90:	e3530009 	cmp	r3, #9
   17c94:	979ff103 	ldrls	pc, [pc, r3, lsl #2]
   17c98:	ea0002bc 	b	18790 <HcdProcessRootHubMessage+0xb68>
   17c9c:	00017cc4 	.word	0x00017cc4
   17ca0:	000180b8 	.word	0x000180b8
   17ca4:	00018790 	.word	0x00018790
   17ca8:	00018384 	.word	0x00018384
   17cac:	00018790 	.word	0x00018790
   17cb0:	0001853c 	.word	0x0001853c
   17cb4:	00018570 	.word	0x00018570
   17cb8:	00018790 	.word	0x00018790
   17cbc:	0001876c 	.word	0x0001876c
   17cc0:	00018784 	.word	0x00018784
   17cc4:	e59b3004 	ldr	r3, [fp, #4]
   17cc8:	e5d33000 	ldrb	r3, [r3]
   17ccc:	e2433080 	sub	r3, r3, #128	; 0x80
   17cd0:	e3530023 	cmp	r3, #35	; 0x23
   17cd4:	979ff103 	ldrls	pc, [pc, r3, lsl #2]
   17cd8:	ea0000f1 	b	180a4 <HcdProcessRootHubMessage+0x47c>
   17cdc:	00017d6c 	.word	0x00017d6c
   17ce0:	00017d84 	.word	0x00017d84
   17ce4:	00017d84 	.word	0x00017d84
   17ce8:	000180a4 	.word	0x000180a4
   17cec:	000180a4 	.word	0x000180a4
   17cf0:	000180a4 	.word	0x000180a4
   17cf4:	000180a4 	.word	0x000180a4
   17cf8:	000180a4 	.word	0x000180a4
   17cfc:	000180a4 	.word	0x000180a4
   17d00:	000180a4 	.word	0x000180a4
   17d04:	000180a4 	.word	0x000180a4
   17d08:	000180a4 	.word	0x000180a4
   17d0c:	000180a4 	.word	0x000180a4
   17d10:	000180a4 	.word	0x000180a4
   17d14:	000180a4 	.word	0x000180a4
   17d18:	000180a4 	.word	0x000180a4
   17d1c:	000180a4 	.word	0x000180a4
   17d20:	000180a4 	.word	0x000180a4
   17d24:	000180a4 	.word	0x000180a4
   17d28:	000180a4 	.word	0x000180a4
   17d2c:	000180a4 	.word	0x000180a4
   17d30:	000180a4 	.word	0x000180a4
   17d34:	000180a4 	.word	0x000180a4
   17d38:	000180a4 	.word	0x000180a4
   17d3c:	000180a4 	.word	0x000180a4
   17d40:	000180a4 	.word	0x000180a4
   17d44:	000180a4 	.word	0x000180a4
   17d48:	000180a4 	.word	0x000180a4
   17d4c:	000180a4 	.word	0x000180a4
   17d50:	000180a4 	.word	0x000180a4
   17d54:	000180a4 	.word	0x000180a4
   17d58:	000180a4 	.word	0x000180a4
   17d5c:	00017d9c 	.word	0x00017d9c
   17d60:	000180a4 	.word	0x000180a4
   17d64:	000180a4 	.word	0x000180a4
   17d68:	00017db4 	.word	0x00017db4
   17d6c:	e51b3040 	ldr	r3, [fp, #-64]	; 0xffffffc0
   17d70:	e3a02001 	mov	r2, #1
   17d74:	e1c320b0 	strh	r2, [r3]
   17d78:	e3a03002 	mov	r3, #2
   17d7c:	e50b3008 	str	r3, [fp, #-8]
   17d80:	ea0000cb 	b	180b4 <HcdProcessRootHubMessage+0x48c>
   17d84:	e51b3040 	ldr	r3, [fp, #-64]	; 0xffffffc0
   17d88:	e3a02000 	mov	r2, #0
   17d8c:	e1c320b0 	strh	r2, [r3]
   17d90:	e3a03002 	mov	r3, #2
   17d94:	e50b3008 	str	r3, [fp, #-8]
   17d98:	ea0000c5 	b	180b4 <HcdProcessRootHubMessage+0x48c>
   17d9c:	e51b3040 	ldr	r3, [fp, #-64]	; 0xffffffc0
   17da0:	e3a02000 	mov	r2, #0
   17da4:	e5832000 	str	r2, [r3]
   17da8:	e3a03004 	mov	r3, #4
   17dac:	e50b3008 	str	r3, [fp, #-8]
   17db0:	ea0000bf 	b	180b4 <HcdProcessRootHubMessage+0x48c>
   17db4:	e59f3a34 	ldr	r3, [pc, #2612]	; 187f0 <HcdProcessRootHubMessage+0xbc8>
   17db8:	e5933000 	ldr	r3, [r3]
   17dbc:	e2833040 	add	r3, r3, #64	; 0x40
   17dc0:	e1a00003 	mov	r0, r3
   17dc4:	ebfff3d0 	bl	14d0c <ReadBackReg>
   17dc8:	e51b3040 	ldr	r3, [fp, #-64]	; 0xffffffc0
   17dcc:	e3a02000 	mov	r2, #0
   17dd0:	e5832000 	str	r2, [r3]
   17dd4:	e59f3a14 	ldr	r3, [pc, #2580]	; 187f0 <HcdProcessRootHubMessage+0xbc8>
   17dd8:	e5933000 	ldr	r3, [r3]
   17ddc:	e5d33040 	ldrb	r3, [r3, #64]	; 0x40
   17de0:	e2033001 	and	r3, r3, #1
   17de4:	e20310ff 	and	r1, r3, #255	; 0xff
   17de8:	e51b2040 	ldr	r2, [fp, #-64]	; 0xffffffc0
   17dec:	e5d23000 	ldrb	r3, [r2]
   17df0:	e2011001 	and	r1, r1, #1
   17df4:	e3c33001 	bic	r3, r3, #1
   17df8:	e1813003 	orr	r3, r1, r3
   17dfc:	e5c23000 	strb	r3, [r2]
   17e00:	e59f39e8 	ldr	r3, [pc, #2536]	; 187f0 <HcdProcessRootHubMessage+0xbc8>
   17e04:	e5933000 	ldr	r3, [r3]
   17e08:	e5d33040 	ldrb	r3, [r3, #64]	; 0x40
   17e0c:	e20330ff 	and	r3, r3, #255	; 0xff
   17e10:	e1a03123 	lsr	r3, r3, #2
   17e14:	e2033001 	and	r3, r3, #1
   17e18:	e20330ff 	and	r3, r3, #255	; 0xff
   17e1c:	e51b1040 	ldr	r1, [fp, #-64]	; 0xffffffc0
   17e20:	e5d12000 	ldrb	r2, [r1]
   17e24:	e2033001 	and	r3, r3, #1
   17e28:	e3c22002 	bic	r2, r2, #2
   17e2c:	e1a03083 	lsl	r3, r3, #1
   17e30:	e1833002 	orr	r3, r3, r2
   17e34:	e1a02003 	mov	r2, r3
   17e38:	e5c12000 	strb	r2, [r1]
   17e3c:	e59f39ac 	ldr	r3, [pc, #2476]	; 187f0 <HcdProcessRootHubMessage+0xbc8>
   17e40:	e5933000 	ldr	r3, [r3]
   17e44:	e5d33040 	ldrb	r3, [r3, #64]	; 0x40
   17e48:	e20330ff 	and	r3, r3, #255	; 0xff
   17e4c:	e1a033a3 	lsr	r3, r3, #7
   17e50:	e20330ff 	and	r3, r3, #255	; 0xff
   17e54:	e51b1040 	ldr	r1, [fp, #-64]	; 0xffffffc0
   17e58:	e5d12000 	ldrb	r2, [r1]
   17e5c:	e2033001 	and	r3, r3, #1
   17e60:	e3c22004 	bic	r2, r2, #4
   17e64:	e1a03103 	lsl	r3, r3, #2
   17e68:	e1833002 	orr	r3, r3, r2
   17e6c:	e1a02003 	mov	r2, r3
   17e70:	e5c12000 	strb	r2, [r1]
   17e74:	e59f3974 	ldr	r3, [pc, #2420]	; 187f0 <HcdProcessRootHubMessage+0xbc8>
   17e78:	e5933000 	ldr	r3, [r3]
   17e7c:	e5d33040 	ldrb	r3, [r3, #64]	; 0x40
   17e80:	e20330ff 	and	r3, r3, #255	; 0xff
   17e84:	e1a03223 	lsr	r3, r3, #4
   17e88:	e2033001 	and	r3, r3, #1
   17e8c:	e20330ff 	and	r3, r3, #255	; 0xff
   17e90:	e51b1040 	ldr	r1, [fp, #-64]	; 0xffffffc0
   17e94:	e5d12000 	ldrb	r2, [r1]
   17e98:	e2033001 	and	r3, r3, #1
   17e9c:	e3c22008 	bic	r2, r2, #8
   17ea0:	e1a03183 	lsl	r3, r3, #3
   17ea4:	e1833002 	orr	r3, r3, r2
   17ea8:	e1a02003 	mov	r2, r3
   17eac:	e5c12000 	strb	r2, [r1]
   17eb0:	e59f3938 	ldr	r3, [pc, #2360]	; 187f0 <HcdProcessRootHubMessage+0xbc8>
   17eb4:	e5933000 	ldr	r3, [r3]
   17eb8:	e5d33041 	ldrb	r3, [r3, #65]	; 0x41
   17ebc:	e2033001 	and	r3, r3, #1
   17ec0:	e20330ff 	and	r3, r3, #255	; 0xff
   17ec4:	e51b1040 	ldr	r1, [fp, #-64]	; 0xffffffc0
   17ec8:	e5d12000 	ldrb	r2, [r1]
   17ecc:	e2033001 	and	r3, r3, #1
   17ed0:	e3c22010 	bic	r2, r2, #16
   17ed4:	e1a03203 	lsl	r3, r3, #4
   17ed8:	e1833002 	orr	r3, r3, r2
   17edc:	e1a02003 	mov	r2, r3
   17ee0:	e5c12000 	strb	r2, [r1]
   17ee4:	e59f3904 	ldr	r3, [pc, #2308]	; 187f0 <HcdProcessRootHubMessage+0xbc8>
   17ee8:	e5933000 	ldr	r3, [r3]
   17eec:	e5d33041 	ldrb	r3, [r3, #65]	; 0x41
   17ef0:	e20330ff 	and	r3, r3, #255	; 0xff
   17ef4:	e1a03223 	lsr	r3, r3, #4
   17ef8:	e2033001 	and	r3, r3, #1
   17efc:	e20310ff 	and	r1, r3, #255	; 0xff
   17f00:	e51b2040 	ldr	r2, [fp, #-64]	; 0xffffffc0
   17f04:	e5d23001 	ldrb	r3, [r2, #1]
   17f08:	e2011001 	and	r1, r1, #1
   17f0c:	e3c33001 	bic	r3, r3, #1
   17f10:	e1813003 	orr	r3, r1, r3
   17f14:	e5c23001 	strb	r3, [r2, #1]
   17f18:	e59f38d0 	ldr	r3, [pc, #2256]	; 187f0 <HcdProcessRootHubMessage+0xbc8>
   17f1c:	e5933000 	ldr	r3, [r3]
   17f20:	e5d33042 	ldrb	r3, [r3, #66]	; 0x42
   17f24:	e20330ff 	and	r3, r3, #255	; 0xff
   17f28:	e1a030a3 	lsr	r3, r3, #1
   17f2c:	e2033003 	and	r3, r3, #3
   17f30:	e20330ff 	and	r3, r3, #255	; 0xff
   17f34:	e3530000 	cmp	r3, #0
   17f38:	1a000004 	bne	17f50 <HcdProcessRootHubMessage+0x328>
   17f3c:	e51b2040 	ldr	r2, [fp, #-64]	; 0xffffffc0
   17f40:	e5d23001 	ldrb	r3, [r2, #1]
   17f44:	e3833004 	orr	r3, r3, #4
   17f48:	e5c23001 	strb	r3, [r2, #1]
   17f4c:	ea00000c 	b	17f84 <HcdProcessRootHubMessage+0x35c>
   17f50:	e59f3898 	ldr	r3, [pc, #2200]	; 187f0 <HcdProcessRootHubMessage+0xbc8>
   17f54:	e5933000 	ldr	r3, [r3]
   17f58:	e5d33042 	ldrb	r3, [r3, #66]	; 0x42
   17f5c:	e20330ff 	and	r3, r3, #255	; 0xff
   17f60:	e1a030a3 	lsr	r3, r3, #1
   17f64:	e2033003 	and	r3, r3, #3
   17f68:	e20330ff 	and	r3, r3, #255	; 0xff
   17f6c:	e3530002 	cmp	r3, #2
   17f70:	1a000003 	bne	17f84 <HcdProcessRootHubMessage+0x35c>
   17f74:	e51b2040 	ldr	r2, [fp, #-64]	; 0xffffffc0
   17f78:	e5d23001 	ldrb	r3, [r2, #1]
   17f7c:	e3833002 	orr	r3, r3, #2
   17f80:	e5c23001 	strb	r3, [r2, #1]
   17f84:	e59f3864 	ldr	r3, [pc, #2148]	; 187f0 <HcdProcessRootHubMessage+0xbc8>
   17f88:	e5933000 	ldr	r3, [r3]
   17f8c:	e5d32041 	ldrb	r2, [r3, #65]	; 0x41
   17f90:	e20220ff 	and	r2, r2, #255	; 0xff
   17f94:	e1a022a2 	lsr	r2, r2, #5
   17f98:	e20220ff 	and	r2, r2, #255	; 0xff
   17f9c:	e5d33042 	ldrb	r3, [r3, #66]	; 0x42
   17fa0:	e20330ff 	and	r3, r3, #255	; 0xff
   17fa4:	e2033001 	and	r3, r3, #1
   17fa8:	e1a03183 	lsl	r3, r3, #3
   17fac:	e1833002 	orr	r3, r3, r2
   17fb0:	e20330ff 	and	r3, r3, #255	; 0xff
   17fb4:	e2033001 	and	r3, r3, #1
   17fb8:	e20330ff 	and	r3, r3, #255	; 0xff
   17fbc:	e51b1040 	ldr	r1, [fp, #-64]	; 0xffffffc0
   17fc0:	e5d12001 	ldrb	r2, [r1, #1]
   17fc4:	e2033001 	and	r3, r3, #1
   17fc8:	e3c22008 	bic	r2, r2, #8
   17fcc:	e1a03183 	lsl	r3, r3, #3
   17fd0:	e1833002 	orr	r3, r3, r2
   17fd4:	e1a02003 	mov	r2, r3
   17fd8:	e5c12001 	strb	r2, [r1, #1]
   17fdc:	e59f380c 	ldr	r3, [pc, #2060]	; 187f0 <HcdProcessRootHubMessage+0xbc8>
   17fe0:	e5933000 	ldr	r3, [r3]
   17fe4:	e5d33040 	ldrb	r3, [r3, #64]	; 0x40
   17fe8:	e20330ff 	and	r3, r3, #255	; 0xff
   17fec:	e1a030a3 	lsr	r3, r3, #1
   17ff0:	e2033001 	and	r3, r3, #1
   17ff4:	e20310ff 	and	r1, r3, #255	; 0xff
   17ff8:	e51b2040 	ldr	r2, [fp, #-64]	; 0xffffffc0
   17ffc:	e5d23002 	ldrb	r3, [r2, #2]
   18000:	e2011001 	and	r1, r1, #1
   18004:	e3c33001 	bic	r3, r3, #1
   18008:	e1813003 	orr	r3, r1, r3
   1800c:	e5c23002 	strb	r3, [r2, #2]
   18010:	e59f37d8 	ldr	r3, [pc, #2008]	; 187f0 <HcdProcessRootHubMessage+0xbc8>
   18014:	e5933000 	ldr	r3, [r3]
   18018:	e5d33040 	ldrb	r3, [r3, #64]	; 0x40
   1801c:	e20330ff 	and	r3, r3, #255	; 0xff
   18020:	e1a031a3 	lsr	r3, r3, #3
   18024:	e2033001 	and	r3, r3, #1
   18028:	e20330ff 	and	r3, r3, #255	; 0xff
   1802c:	e51b1040 	ldr	r1, [fp, #-64]	; 0xffffffc0
   18030:	e5d12002 	ldrb	r2, [r1, #2]
   18034:	e2033001 	and	r3, r3, #1
   18038:	e3c22002 	bic	r2, r2, #2
   1803c:	e1a03083 	lsl	r3, r3, #1
   18040:	e1833002 	orr	r3, r3, r2
   18044:	e1a02003 	mov	r2, r3
   18048:	e5c12002 	strb	r2, [r1, #2]
   1804c:	e59f379c 	ldr	r3, [pc, #1948]	; 187f0 <HcdProcessRootHubMessage+0xbc8>
   18050:	e5933000 	ldr	r3, [r3]
   18054:	e5d33040 	ldrb	r3, [r3, #64]	; 0x40
   18058:	e20330ff 	and	r3, r3, #255	; 0xff
   1805c:	e1a032a3 	lsr	r3, r3, #5
   18060:	e2033001 	and	r3, r3, #1
   18064:	e20330ff 	and	r3, r3, #255	; 0xff
   18068:	e51b1040 	ldr	r1, [fp, #-64]	; 0xffffffc0
   1806c:	e5d12002 	ldrb	r2, [r1, #2]
   18070:	e2033001 	and	r3, r3, #1
   18074:	e3c22008 	bic	r2, r2, #8
   18078:	e1a03183 	lsl	r3, r3, #3
   1807c:	e1833002 	orr	r3, r3, r2
   18080:	e1a02003 	mov	r2, r3
   18084:	e5c12002 	strb	r2, [r1, #2]
   18088:	e51b2040 	ldr	r2, [fp, #-64]	; 0xffffffc0
   1808c:	e5d23002 	ldrb	r3, [r2, #2]
   18090:	e3833010 	orr	r3, r3, #16
   18094:	e5c23002 	strb	r3, [r2, #2]
   18098:	e3a03004 	mov	r3, #4
   1809c:	e50b3008 	str	r3, [fp, #-8]
   180a0:	ea000003 	b	180b4 <HcdProcessRootHubMessage+0x48c>
   180a4:	e51b3038 	ldr	r3, [fp, #-56]	; 0xffffffc8
   180a8:	e3a02002 	mov	r2, #2
   180ac:	e5832008 	str	r2, [r3, #8]
   180b0:	e1a00000 	nop			; (mov r0, r0)
   180b4:	ea0001b8 	b	1879c <HcdProcessRootHubMessage+0xb74>
   180b8:	e3a03000 	mov	r3, #0
   180bc:	e50b3008 	str	r3, [fp, #-8]
   180c0:	e59b3004 	ldr	r3, [fp, #4]
   180c4:	e5d33000 	ldrb	r3, [r3]
   180c8:	e3530020 	cmp	r3, #32
   180cc:	0a0000aa 	beq	1837c <HcdProcessRootHubMessage+0x754>
   180d0:	e3530023 	cmp	r3, #35	; 0x23
   180d4:	0a000002 	beq	180e4 <HcdProcessRootHubMessage+0x4bc>
   180d8:	e3530002 	cmp	r3, #2
   180dc:	0a0000a6 	beq	1837c <HcdProcessRootHubMessage+0x754>
   180e0:	ea0000a2 	b	18370 <HcdProcessRootHubMessage+0x748>
   180e4:	e59b3004 	ldr	r3, [fp, #4]
   180e8:	e5d32002 	ldrb	r2, [r3, #2]
   180ec:	e5d33003 	ldrb	r3, [r3, #3]
   180f0:	e1a03403 	lsl	r3, r3, #8
   180f4:	e1833002 	orr	r3, r3, r2
   180f8:	e1a03803 	lsl	r3, r3, #16
   180fc:	e1a03823 	lsr	r3, r3, #16
   18100:	e20330ff 	and	r3, r3, #255	; 0xff
   18104:	e2433001 	sub	r3, r3, #1
   18108:	e3530012 	cmp	r3, #18
   1810c:	979ff103 	ldrls	pc, [pc, r3, lsl #2]
   18110:	ea000094 	b	18368 <HcdProcessRootHubMessage+0x740>
   18114:	00018160 	.word	0x00018160
   18118:	000181a4 	.word	0x000181a4
   1811c:	00018368 	.word	0x00018368
   18120:	00018368 	.word	0x00018368
   18124:	00018368 	.word	0x00018368
   18128:	00018368 	.word	0x00018368
   1812c:	00018368 	.word	0x00018368
   18130:	00018258 	.word	0x00018258
   18134:	00018368 	.word	0x00018368
   18138:	00018368 	.word	0x00018368
   1813c:	00018368 	.word	0x00018368
   18140:	00018368 	.word	0x00018368
   18144:	00018368 	.word	0x00018368
   18148:	00018368 	.word	0x00018368
   1814c:	00018368 	.word	0x00018368
   18150:	0001829c 	.word	0x0001829c
   18154:	000182e0 	.word	0x000182e0
   18158:	00018368 	.word	0x00018368
   1815c:	00018324 	.word	0x00018324
   18160:	e59f3688 	ldr	r3, [pc, #1672]	; 187f0 <HcdProcessRootHubMessage+0xbc8>
   18164:	e5933000 	ldr	r3, [r3]
   18168:	e2833040 	add	r3, r3, #64	; 0x40
   1816c:	e1a00003 	mov	r0, r3
   18170:	ebfff2e5 	bl	14d0c <ReadBackReg>
   18174:	e59f3674 	ldr	r3, [pc, #1652]	; 187f0 <HcdProcessRootHubMessage+0xbc8>
   18178:	e5932000 	ldr	r2, [r3]
   1817c:	e5d23040 	ldrb	r3, [r2, #64]	; 0x40
   18180:	e3833004 	orr	r3, r3, #4
   18184:	e5c23040 	strb	r3, [r2, #64]	; 0x40
   18188:	e59f3660 	ldr	r3, [pc, #1632]	; 187f0 <HcdProcessRootHubMessage+0xbc8>
   1818c:	e5933000 	ldr	r3, [r3]
   18190:	e2833040 	add	r3, r3, #64	; 0x40
   18194:	e3a01004 	mov	r1, #4
   18198:	e1a00003 	mov	r0, r3
   1819c:	ebfff284 	bl	14bb4 <WriteThroughRegMask>
   181a0:	ea000071 	b	1836c <HcdProcessRootHubMessage+0x744>
   181a4:	e59f3648 	ldr	r3, [pc, #1608]	; 187f4 <HcdProcessRootHubMessage+0xbcc>
   181a8:	e5933000 	ldr	r3, [r3]
   181ac:	e1a00003 	mov	r0, r3
   181b0:	ebfff346 	bl	14ed0 <ClearReg>
   181b4:	e59f3638 	ldr	r3, [pc, #1592]	; 187f4 <HcdProcessRootHubMessage+0xbcc>
   181b8:	e5933000 	ldr	r3, [r3]
   181bc:	e1a00003 	mov	r0, r3
   181c0:	ebfff270 	bl	14b88 <WriteThroughReg>
   181c4:	e59f062c 	ldr	r0, [pc, #1580]	; 187f8 <HcdProcessRootHubMessage+0xbd0>
   181c8:	eb000199 	bl	18834 <MicroDelay>
   181cc:	e59f361c 	ldr	r3, [pc, #1564]	; 187f0 <HcdProcessRootHubMessage+0xbc8>
   181d0:	e5933000 	ldr	r3, [r3]
   181d4:	e2833040 	add	r3, r3, #64	; 0x40
   181d8:	e1a00003 	mov	r0, r3
   181dc:	ebfff2ca 	bl	14d0c <ReadBackReg>
   181e0:	e59f3608 	ldr	r3, [pc, #1544]	; 187f0 <HcdProcessRootHubMessage+0xbc8>
   181e4:	e5932000 	ldr	r2, [r3]
   181e8:	e5d23040 	ldrb	r3, [r2, #64]	; 0x40
   181ec:	e3833040 	orr	r3, r3, #64	; 0x40
   181f0:	e5c23040 	strb	r3, [r2, #64]	; 0x40
   181f4:	e59f35f4 	ldr	r3, [pc, #1524]	; 187f0 <HcdProcessRootHubMessage+0xbc8>
   181f8:	e5933000 	ldr	r3, [r3]
   181fc:	e2833040 	add	r3, r3, #64	; 0x40
   18200:	e3a01040 	mov	r1, #64	; 0x40
   18204:	e1a00003 	mov	r0, r3
   18208:	ebfff269 	bl	14bb4 <WriteThroughRegMask>
   1820c:	e59f05e8 	ldr	r0, [pc, #1512]	; 187fc <HcdProcessRootHubMessage+0xbd4>
   18210:	eb000187 	bl	18834 <MicroDelay>
   18214:	e59f35d4 	ldr	r3, [pc, #1492]	; 187f0 <HcdProcessRootHubMessage+0xbc8>
   18218:	e5932000 	ldr	r2, [r3]
   1821c:	e5d23040 	ldrb	r3, [r2, #64]	; 0x40
   18220:	e3c33040 	bic	r3, r3, #64	; 0x40
   18224:	e5c23040 	strb	r3, [r2, #64]	; 0x40
   18228:	e59f35c0 	ldr	r3, [pc, #1472]	; 187f0 <HcdProcessRootHubMessage+0xbc8>
   1822c:	e5932000 	ldr	r2, [r3]
   18230:	e5d23040 	ldrb	r3, [r2, #64]	; 0x40
   18234:	e3c33080 	bic	r3, r3, #128	; 0x80
   18238:	e5c23040 	strb	r3, [r2, #64]	; 0x40
   1823c:	e59f35ac 	ldr	r3, [pc, #1452]	; 187f0 <HcdProcessRootHubMessage+0xbc8>
   18240:	e5933000 	ldr	r3, [r3]
   18244:	e2833040 	add	r3, r3, #64	; 0x40
   18248:	e3a010c0 	mov	r1, #192	; 0xc0
   1824c:	e1a00003 	mov	r0, r3
   18250:	ebfff257 	bl	14bb4 <WriteThroughRegMask>
   18254:	ea000044 	b	1836c <HcdProcessRootHubMessage+0x744>
   18258:	e59f3590 	ldr	r3, [pc, #1424]	; 187f0 <HcdProcessRootHubMessage+0xbc8>
   1825c:	e5933000 	ldr	r3, [r3]
   18260:	e2833040 	add	r3, r3, #64	; 0x40
   18264:	e1a00003 	mov	r0, r3
   18268:	ebfff2a7 	bl	14d0c <ReadBackReg>
   1826c:	e59f357c 	ldr	r3, [pc, #1404]	; 187f0 <HcdProcessRootHubMessage+0xbc8>
   18270:	e5932000 	ldr	r2, [r3]
   18274:	e5d23041 	ldrb	r3, [r2, #65]	; 0x41
   18278:	e3c33010 	bic	r3, r3, #16
   1827c:	e5c23041 	strb	r3, [r2, #65]	; 0x41
   18280:	e59f3568 	ldr	r3, [pc, #1384]	; 187f0 <HcdProcessRootHubMessage+0xbc8>
   18284:	e5933000 	ldr	r3, [r3]
   18288:	e2833040 	add	r3, r3, #64	; 0x40
   1828c:	e3a01a01 	mov	r1, #4096	; 0x1000
   18290:	e1a00003 	mov	r0, r3
   18294:	ebfff246 	bl	14bb4 <WriteThroughRegMask>
   18298:	ea000033 	b	1836c <HcdProcessRootHubMessage+0x744>
   1829c:	e59f354c 	ldr	r3, [pc, #1356]	; 187f0 <HcdProcessRootHubMessage+0xbc8>
   182a0:	e5933000 	ldr	r3, [r3]
   182a4:	e2833040 	add	r3, r3, #64	; 0x40
   182a8:	e1a00003 	mov	r0, r3
   182ac:	ebfff296 	bl	14d0c <ReadBackReg>
   182b0:	e59f3538 	ldr	r3, [pc, #1336]	; 187f0 <HcdProcessRootHubMessage+0xbc8>
   182b4:	e5932000 	ldr	r2, [r3]
   182b8:	e5d23040 	ldrb	r3, [r2, #64]	; 0x40
   182bc:	e3833002 	orr	r3, r3, #2
   182c0:	e5c23040 	strb	r3, [r2, #64]	; 0x40
   182c4:	e59f3524 	ldr	r3, [pc, #1316]	; 187f0 <HcdProcessRootHubMessage+0xbc8>
   182c8:	e5933000 	ldr	r3, [r3]
   182cc:	e2833040 	add	r3, r3, #64	; 0x40
   182d0:	e3a01002 	mov	r1, #2
   182d4:	e1a00003 	mov	r0, r3
   182d8:	ebfff235 	bl	14bb4 <WriteThroughRegMask>
   182dc:	ea000022 	b	1836c <HcdProcessRootHubMessage+0x744>
   182e0:	e59f3508 	ldr	r3, [pc, #1288]	; 187f0 <HcdProcessRootHubMessage+0xbc8>
   182e4:	e5933000 	ldr	r3, [r3]
   182e8:	e2833040 	add	r3, r3, #64	; 0x40
   182ec:	e1a00003 	mov	r0, r3
   182f0:	ebfff285 	bl	14d0c <ReadBackReg>
   182f4:	e59f34f4 	ldr	r3, [pc, #1268]	; 187f0 <HcdProcessRootHubMessage+0xbc8>
   182f8:	e5932000 	ldr	r2, [r3]
   182fc:	e5d23040 	ldrb	r3, [r2, #64]	; 0x40
   18300:	e3833008 	orr	r3, r3, #8
   18304:	e5c23040 	strb	r3, [r2, #64]	; 0x40
   18308:	e59f34e0 	ldr	r3, [pc, #1248]	; 187f0 <HcdProcessRootHubMessage+0xbc8>
   1830c:	e5933000 	ldr	r3, [r3]
   18310:	e2833040 	add	r3, r3, #64	; 0x40
   18314:	e3a01008 	mov	r1, #8
   18318:	e1a00003 	mov	r0, r3
   1831c:	ebfff224 	bl	14bb4 <WriteThroughRegMask>
   18320:	ea000011 	b	1836c <HcdProcessRootHubMessage+0x744>
   18324:	e59f34c4 	ldr	r3, [pc, #1220]	; 187f0 <HcdProcessRootHubMessage+0xbc8>
   18328:	e5933000 	ldr	r3, [r3]
   1832c:	e2833040 	add	r3, r3, #64	; 0x40
   18330:	e1a00003 	mov	r0, r3
   18334:	ebfff274 	bl	14d0c <ReadBackReg>
   18338:	e59f34b0 	ldr	r3, [pc, #1200]	; 187f0 <HcdProcessRootHubMessage+0xbc8>
   1833c:	e5932000 	ldr	r2, [r3]
   18340:	e5d23040 	ldrb	r3, [r2, #64]	; 0x40
   18344:	e3833020 	orr	r3, r3, #32
   18348:	e5c23040 	strb	r3, [r2, #64]	; 0x40
   1834c:	e59f349c 	ldr	r3, [pc, #1180]	; 187f0 <HcdProcessRootHubMessage+0xbc8>
   18350:	e5933000 	ldr	r3, [r3]
   18354:	e2833040 	add	r3, r3, #64	; 0x40
   18358:	e3a01020 	mov	r1, #32
   1835c:	e1a00003 	mov	r0, r3
   18360:	ebfff213 	bl	14bb4 <WriteThroughRegMask>
   18364:	ea000000 	b	1836c <HcdProcessRootHubMessage+0x744>
   18368:	e1a00000 	nop			; (mov r0, r0)
   1836c:	ea000003 	b	18380 <HcdProcessRootHubMessage+0x758>
   18370:	e3e03001 	mvn	r3, #1
   18374:	e54b3009 	strb	r3, [fp, #-9]
   18378:	ea000000 	b	18380 <HcdProcessRootHubMessage+0x758>
   1837c:	e1a00000 	nop			; (mov r0, r0)
   18380:	ea000105 	b	1879c <HcdProcessRootHubMessage+0xb74>
   18384:	e3a03000 	mov	r3, #0
   18388:	e50b3008 	str	r3, [fp, #-8]
   1838c:	e59b3004 	ldr	r3, [fp, #4]
   18390:	e5d33000 	ldrb	r3, [r3]
   18394:	e3530020 	cmp	r3, #32
   18398:	0a000065 	beq	18534 <HcdProcessRootHubMessage+0x90c>
   1839c:	e3530023 	cmp	r3, #35	; 0x23
   183a0:	1a000060 	bne	18528 <HcdProcessRootHubMessage+0x900>
   183a4:	e59b3004 	ldr	r3, [fp, #4]
   183a8:	e5d32002 	ldrb	r2, [r3, #2]
   183ac:	e5d33003 	ldrb	r3, [r3, #3]
   183b0:	e1a03403 	lsl	r3, r3, #8
   183b4:	e1833002 	orr	r3, r3, r2
   183b8:	e1a03803 	lsl	r3, r3, #16
   183bc:	e1a03823 	lsr	r3, r3, #16
   183c0:	e20330ff 	and	r3, r3, #255	; 0xff
   183c4:	e3530004 	cmp	r3, #4
   183c8:	0a000002 	beq	183d8 <HcdProcessRootHubMessage+0x7b0>
   183cc:	e3530008 	cmp	r3, #8
   183d0:	0a000042 	beq	184e0 <HcdProcessRootHubMessage+0x8b8>
   183d4:	ea000052 	b	18524 <HcdProcessRootHubMessage+0x8fc>
   183d8:	e59f3414 	ldr	r3, [pc, #1044]	; 187f4 <HcdProcessRootHubMessage+0xbcc>
   183dc:	e5933000 	ldr	r3, [r3]
   183e0:	e1a00003 	mov	r0, r3
   183e4:	ebfff248 	bl	14d0c <ReadBackReg>
   183e8:	e59f3404 	ldr	r3, [pc, #1028]	; 187f4 <HcdProcessRootHubMessage+0xbcc>
   183ec:	e5932000 	ldr	r2, [r3]
   183f0:	e5d23000 	ldrb	r3, [r2]
   183f4:	e3c33020 	bic	r3, r3, #32
   183f8:	e5c23000 	strb	r3, [r2]
   183fc:	e59f33f0 	ldr	r3, [pc, #1008]	; 187f4 <HcdProcessRootHubMessage+0xbcc>
   18400:	e5932000 	ldr	r2, [r3]
   18404:	e5d23000 	ldrb	r3, [r2]
   18408:	e3c33001 	bic	r3, r3, #1
   1840c:	e5c23000 	strb	r3, [r2]
   18410:	e59f33dc 	ldr	r3, [pc, #988]	; 187f4 <HcdProcessRootHubMessage+0xbcc>
   18414:	e5933000 	ldr	r3, [r3]
   18418:	e1a00003 	mov	r0, r3
   1841c:	ebfff1d9 	bl	14b88 <WriteThroughReg>
   18420:	e59f33cc 	ldr	r3, [pc, #972]	; 187f4 <HcdProcessRootHubMessage+0xbcc>
   18424:	e5933000 	ldr	r3, [r3]
   18428:	e1a00003 	mov	r0, r3
   1842c:	ebfff2a7 	bl	14ed0 <ClearReg>
   18430:	e59f33bc 	ldr	r3, [pc, #956]	; 187f4 <HcdProcessRootHubMessage+0xbcc>
   18434:	e5933000 	ldr	r3, [r3]
   18438:	e1a00003 	mov	r0, r3
   1843c:	ebfff1d1 	bl	14b88 <WriteThroughReg>
   18440:	e59f33a8 	ldr	r3, [pc, #936]	; 187f0 <HcdProcessRootHubMessage+0xbc8>
   18444:	e5933000 	ldr	r3, [r3]
   18448:	e2833040 	add	r3, r3, #64	; 0x40
   1844c:	e1a00003 	mov	r0, r3
   18450:	ebfff22d 	bl	14d0c <ReadBackReg>
   18454:	e59f3394 	ldr	r3, [pc, #916]	; 187f0 <HcdProcessRootHubMessage+0xbc8>
   18458:	e5932000 	ldr	r2, [r3]
   1845c:	e5d23040 	ldrb	r3, [r2, #64]	; 0x40
   18460:	e3c33080 	bic	r3, r3, #128	; 0x80
   18464:	e5c23040 	strb	r3, [r2, #64]	; 0x40
   18468:	e59f3380 	ldr	r3, [pc, #896]	; 187f0 <HcdProcessRootHubMessage+0xbc8>
   1846c:	e5932000 	ldr	r2, [r3]
   18470:	e5d23041 	ldrb	r3, [r2, #65]	; 0x41
   18474:	e3833001 	orr	r3, r3, #1
   18478:	e5c23041 	strb	r3, [r2, #65]	; 0x41
   1847c:	e59f336c 	ldr	r3, [pc, #876]	; 187f0 <HcdProcessRootHubMessage+0xbc8>
   18480:	e5932000 	ldr	r2, [r3]
   18484:	e5d23041 	ldrb	r3, [r2, #65]	; 0x41
   18488:	e3833010 	orr	r3, r3, #16
   1848c:	e5c23041 	strb	r3, [r2, #65]	; 0x41
   18490:	e59f3358 	ldr	r3, [pc, #856]	; 187f0 <HcdProcessRootHubMessage+0xbc8>
   18494:	e5933000 	ldr	r3, [r3]
   18498:	e2833040 	add	r3, r3, #64	; 0x40
   1849c:	e3a01d46 	mov	r1, #4480	; 0x1180
   184a0:	e1a00003 	mov	r0, r3
   184a4:	ebfff1c2 	bl	14bb4 <WriteThroughRegMask>
   184a8:	e59f0350 	ldr	r0, [pc, #848]	; 18800 <HcdProcessRootHubMessage+0xbd8>
   184ac:	eb0000e0 	bl	18834 <MicroDelay>
   184b0:	e59f3338 	ldr	r3, [pc, #824]	; 187f0 <HcdProcessRootHubMessage+0xbc8>
   184b4:	e5932000 	ldr	r2, [r3]
   184b8:	e5d23041 	ldrb	r3, [r2, #65]	; 0x41
   184bc:	e3c33001 	bic	r3, r3, #1
   184c0:	e5c23041 	strb	r3, [r2, #65]	; 0x41
   184c4:	e59f3324 	ldr	r3, [pc, #804]	; 187f0 <HcdProcessRootHubMessage+0xbc8>
   184c8:	e5933000 	ldr	r3, [r3]
   184cc:	e2833040 	add	r3, r3, #64	; 0x40
   184d0:	e3a01a01 	mov	r1, #4096	; 0x1000
   184d4:	e1a00003 	mov	r0, r3
   184d8:	ebfff1b5 	bl	14bb4 <WriteThroughRegMask>
   184dc:	ea000010 	b	18524 <HcdProcessRootHubMessage+0x8fc>
   184e0:	e59f3308 	ldr	r3, [pc, #776]	; 187f0 <HcdProcessRootHubMessage+0xbc8>
   184e4:	e5933000 	ldr	r3, [r3]
   184e8:	e2833040 	add	r3, r3, #64	; 0x40
   184ec:	e1a00003 	mov	r0, r3
   184f0:	ebfff205 	bl	14d0c <ReadBackReg>
   184f4:	e59f32f4 	ldr	r3, [pc, #756]	; 187f0 <HcdProcessRootHubMessage+0xbc8>
   184f8:	e5932000 	ldr	r2, [r3]
   184fc:	e5d23041 	ldrb	r3, [r2, #65]	; 0x41
   18500:	e3833010 	orr	r3, r3, #16
   18504:	e5c23041 	strb	r3, [r2, #65]	; 0x41
   18508:	e59f32e0 	ldr	r3, [pc, #736]	; 187f0 <HcdProcessRootHubMessage+0xbc8>
   1850c:	e5933000 	ldr	r3, [r3]
   18510:	e2833040 	add	r3, r3, #64	; 0x40
   18514:	e3a01a01 	mov	r1, #4096	; 0x1000
   18518:	e1a00003 	mov	r0, r3
   1851c:	ebfff1a4 	bl	14bb4 <WriteThroughRegMask>
   18520:	e1a00000 	nop			; (mov r0, r0)
   18524:	ea000003 	b	18538 <HcdProcessRootHubMessage+0x910>
   18528:	e3e03001 	mvn	r3, #1
   1852c:	e54b3009 	strb	r3, [fp, #-9]
   18530:	ea000000 	b	18538 <HcdProcessRootHubMessage+0x910>
   18534:	e1a00000 	nop			; (mov r0, r0)
   18538:	ea000097 	b	1879c <HcdProcessRootHubMessage+0xb74>
   1853c:	e3a03000 	mov	r3, #0
   18540:	e50b3008 	str	r3, [fp, #-8]
   18544:	e59b3004 	ldr	r3, [fp, #4]
   18548:	e5d32002 	ldrb	r2, [r3, #2]
   1854c:	e5d33003 	ldrb	r3, [r3, #3]
   18550:	e1a03403 	lsl	r3, r3, #8
   18554:	e1833002 	orr	r3, r3, r2
   18558:	e1a03803 	lsl	r3, r3, #16
   1855c:	e1a03823 	lsr	r3, r3, #16
   18560:	e1a02003 	mov	r2, r3
   18564:	e59f3298 	ldr	r3, [pc, #664]	; 18804 <HcdProcessRootHubMessage+0xbdc>
   18568:	e5832000 	str	r2, [r3]
   1856c:	ea00008a 	b	1879c <HcdProcessRootHubMessage+0xb74>
   18570:	e59b3004 	ldr	r3, [fp, #4]
   18574:	e5d33000 	ldrb	r3, [r3]
   18578:	e3530080 	cmp	r3, #128	; 0x80
   1857c:	0a000002 	beq	1858c <HcdProcessRootHubMessage+0x964>
   18580:	e35300a0 	cmp	r3, #160	; 0xa0
   18584:	0a000064 	beq	1871c <HcdProcessRootHubMessage+0xaf4>
   18588:	ea000073 	b	1875c <HcdProcessRootHubMessage+0xb34>
   1858c:	e59b3004 	ldr	r3, [fp, #4]
   18590:	e5d32002 	ldrb	r2, [r3, #2]
   18594:	e5d33003 	ldrb	r3, [r3, #3]
   18598:	e1a03403 	lsl	r3, r3, #8
   1859c:	e1833002 	orr	r3, r3, r2
   185a0:	e1a03803 	lsl	r3, r3, #16
   185a4:	e1a03823 	lsr	r3, r3, #16
   185a8:	e1a03423 	lsr	r3, r3, #8
   185ac:	e1a03803 	lsl	r3, r3, #16
   185b0:	e1a03823 	lsr	r3, r3, #16
   185b4:	e20330ff 	and	r3, r3, #255	; 0xff
   185b8:	e3530002 	cmp	r3, #2
   185bc:	0a000012 	beq	1860c <HcdProcessRootHubMessage+0x9e4>
   185c0:	e3530003 	cmp	r3, #3
   185c4:	0a00001f 	beq	18648 <HcdProcessRootHubMessage+0xa20>
   185c8:	e3530001 	cmp	r3, #1
   185cc:	1a00004e 	bne	1870c <HcdProcessRootHubMessage+0xae4>
   185d0:	e3a03012 	mov	r3, #18
   185d4:	e50b3010 	str	r3, [fp, #-16]
   185d8:	e51b3044 	ldr	r3, [fp, #-68]	; 0xffffffbc
   185dc:	e50b3014 	str	r3, [fp, #-20]	; 0xffffffec
   185e0:	e51b2014 	ldr	r2, [fp, #-20]	; 0xffffffec
   185e4:	e51b3010 	ldr	r3, [fp, #-16]
   185e8:	e1520003 	cmp	r2, r3
   185ec:	31a03002 	movcc	r3, r2
   185f0:	21a03003 	movcs	r3, r3
   185f4:	e50b3008 	str	r3, [fp, #-8]
   185f8:	e51b2008 	ldr	r2, [fp, #-8]
   185fc:	e59f1204 	ldr	r1, [pc, #516]	; 18808 <HcdProcessRootHubMessage+0xbe0>
   18600:	e51b0040 	ldr	r0, [fp, #-64]	; 0xffffffc0
   18604:	ebffcd51 	bl	bb50 <MemoryCopy>
   18608:	ea000042 	b	18718 <HcdProcessRootHubMessage+0xaf0>
   1860c:	e3a03019 	mov	r3, #25
   18610:	e50b3018 	str	r3, [fp, #-24]	; 0xffffffe8
   18614:	e51b3044 	ldr	r3, [fp, #-68]	; 0xffffffbc
   18618:	e50b301c 	str	r3, [fp, #-28]	; 0xffffffe4
   1861c:	e51b201c 	ldr	r2, [fp, #-28]	; 0xffffffe4
   18620:	e51b3018 	ldr	r3, [fp, #-24]	; 0xffffffe8
   18624:	e1520003 	cmp	r2, r3
   18628:	31a03002 	movcc	r3, r2
   1862c:	21a03003 	movcs	r3, r3
   18630:	e50b3008 	str	r3, [fp, #-8]
   18634:	e51b2008 	ldr	r2, [fp, #-8]
   18638:	e59f11cc 	ldr	r1, [pc, #460]	; 1880c <HcdProcessRootHubMessage+0xbe4>
   1863c:	e51b0040 	ldr	r0, [fp, #-64]	; 0xffffffc0
   18640:	ebffcd42 	bl	bb50 <MemoryCopy>
   18644:	ea000033 	b	18718 <HcdProcessRootHubMessage+0xaf0>
   18648:	e59b3004 	ldr	r3, [fp, #4]
   1864c:	e5d32002 	ldrb	r2, [r3, #2]
   18650:	e5d33003 	ldrb	r3, [r3, #3]
   18654:	e1a03403 	lsl	r3, r3, #8
   18658:	e1833002 	orr	r3, r3, r2
   1865c:	e1a03803 	lsl	r3, r3, #16
   18660:	e1a03823 	lsr	r3, r3, #16
   18664:	e20330ff 	and	r3, r3, #255	; 0xff
   18668:	e3530000 	cmp	r3, #0
   1866c:	0a000002 	beq	1867c <HcdProcessRootHubMessage+0xa54>
   18670:	e3530001 	cmp	r3, #1
   18674:	0a000010 	beq	186bc <HcdProcessRootHubMessage+0xa94>
   18678:	ea00001f 	b	186fc <HcdProcessRootHubMessage+0xad4>
   1867c:	e59f318c 	ldr	r3, [pc, #396]	; 18810 <HcdProcessRootHubMessage+0xbe8>
   18680:	e5d33000 	ldrb	r3, [r3]
   18684:	e50b3020 	str	r3, [fp, #-32]	; 0xffffffe0
   18688:	e51b3044 	ldr	r3, [fp, #-68]	; 0xffffffbc
   1868c:	e50b3024 	str	r3, [fp, #-36]	; 0xffffffdc
   18690:	e51b2024 	ldr	r2, [fp, #-36]	; 0xffffffdc
   18694:	e51b3020 	ldr	r3, [fp, #-32]	; 0xffffffe0
   18698:	e1520003 	cmp	r2, r3
   1869c:	31a03002 	movcc	r3, r2
   186a0:	21a03003 	movcs	r3, r3
   186a4:	e50b3008 	str	r3, [fp, #-8]
   186a8:	e51b2008 	ldr	r2, [fp, #-8]
   186ac:	e59f115c 	ldr	r1, [pc, #348]	; 18810 <HcdProcessRootHubMessage+0xbe8>
   186b0:	e51b0040 	ldr	r0, [fp, #-64]	; 0xffffffc0
   186b4:	ebffcd25 	bl	bb50 <MemoryCopy>
   186b8:	ea000012 	b	18708 <HcdProcessRootHubMessage+0xae0>
   186bc:	e59f3150 	ldr	r3, [pc, #336]	; 18814 <HcdProcessRootHubMessage+0xbec>
   186c0:	e5d33000 	ldrb	r3, [r3]
   186c4:	e50b3028 	str	r3, [fp, #-40]	; 0xffffffd8
   186c8:	e51b3044 	ldr	r3, [fp, #-68]	; 0xffffffbc
   186cc:	e50b302c 	str	r3, [fp, #-44]	; 0xffffffd4
   186d0:	e51b202c 	ldr	r2, [fp, #-44]	; 0xffffffd4
   186d4:	e51b3028 	ldr	r3, [fp, #-40]	; 0xffffffd8
   186d8:	e1520003 	cmp	r2, r3
   186dc:	31a03002 	movcc	r3, r2
   186e0:	21a03003 	movcs	r3, r3
   186e4:	e50b3008 	str	r3, [fp, #-8]
   186e8:	e51b2008 	ldr	r2, [fp, #-8]
   186ec:	e59f1120 	ldr	r1, [pc, #288]	; 18814 <HcdProcessRootHubMessage+0xbec>
   186f0:	e51b0040 	ldr	r0, [fp, #-64]	; 0xffffffc0
   186f4:	ebffcd15 	bl	bb50 <MemoryCopy>
   186f8:	ea000002 	b	18708 <HcdProcessRootHubMessage+0xae0>
   186fc:	e3a03000 	mov	r3, #0
   18700:	e50b3008 	str	r3, [fp, #-8]
   18704:	e1a00000 	nop			; (mov r0, r0)
   18708:	ea000002 	b	18718 <HcdProcessRootHubMessage+0xaf0>
   1870c:	e3e03001 	mvn	r3, #1
   18710:	e54b3009 	strb	r3, [fp, #-9]
   18714:	ea000013 	b	18768 <HcdProcessRootHubMessage+0xb40>
   18718:	ea000012 	b	18768 <HcdProcessRootHubMessage+0xb40>
   1871c:	e59f30f4 	ldr	r3, [pc, #244]	; 18818 <HcdProcessRootHubMessage+0xbf0>
   18720:	e5d33000 	ldrb	r3, [r3]
   18724:	e50b3030 	str	r3, [fp, #-48]	; 0xffffffd0
   18728:	e51b3044 	ldr	r3, [fp, #-68]	; 0xffffffbc
   1872c:	e50b3034 	str	r3, [fp, #-52]	; 0xffffffcc
   18730:	e51b2034 	ldr	r2, [fp, #-52]	; 0xffffffcc
   18734:	e51b3030 	ldr	r3, [fp, #-48]	; 0xffffffd0
   18738:	e1520003 	cmp	r2, r3
   1873c:	31a03002 	movcc	r3, r2
   18740:	21a03003 	movcs	r3, r3
   18744:	e50b3008 	str	r3, [fp, #-8]
   18748:	e51b2008 	ldr	r2, [fp, #-8]
   1874c:	e59f10c4 	ldr	r1, [pc, #196]	; 18818 <HcdProcessRootHubMessage+0xbf0>
   18750:	e51b0040 	ldr	r0, [fp, #-64]	; 0xffffffc0
   18754:	ebffccfd 	bl	bb50 <MemoryCopy>
   18758:	ea000002 	b	18768 <HcdProcessRootHubMessage+0xb40>
   1875c:	e3e03001 	mvn	r3, #1
   18760:	e54b3009 	strb	r3, [fp, #-9]
   18764:	e1a00000 	nop			; (mov r0, r0)
   18768:	ea00000b 	b	1879c <HcdProcessRootHubMessage+0xb74>
   1876c:	e51b3040 	ldr	r3, [fp, #-64]	; 0xffffffc0
   18770:	e3a02001 	mov	r2, #1
   18774:	e5c32000 	strb	r2, [r3]
   18778:	e3a03001 	mov	r3, #1
   1877c:	e50b3008 	str	r3, [fp, #-8]
   18780:	ea000005 	b	1879c <HcdProcessRootHubMessage+0xb74>
   18784:	e3a03000 	mov	r3, #0
   18788:	e50b3008 	str	r3, [fp, #-8]
   1878c:	ea000002 	b	1879c <HcdProcessRootHubMessage+0xb74>
   18790:	e3e03001 	mvn	r3, #1
   18794:	e54b3009 	strb	r3, [fp, #-9]
   18798:	e1a00000 	nop			; (mov r0, r0)
   1879c:	e15b30d9 	ldrsb	r3, [fp, #-9]
   187a0:	e3730002 	cmn	r3, #2
   187a4:	1a000004 	bne	187bc <HcdProcessRootHubMessage+0xb94>
   187a8:	e51b3038 	ldr	r3, [fp, #-56]	; 0xffffffc8
   187ac:	e5933008 	ldr	r3, [r3, #8]
   187b0:	e3832002 	orr	r2, r3, #2
   187b4:	e51b3038 	ldr	r3, [fp, #-56]	; 0xffffffc8
   187b8:	e5832008 	str	r2, [r3, #8]
   187bc:	e51b3038 	ldr	r3, [fp, #-56]	; 0xffffffc8
   187c0:	e5933008 	ldr	r3, [r3, #8]
   187c4:	e3c32102 	bic	r2, r3, #-2147483648	; 0x80000000
   187c8:	e51b3038 	ldr	r3, [fp, #-56]	; 0xffffffc8
   187cc:	e5832008 	str	r2, [r3, #8]
   187d0:	e51b3038 	ldr	r3, [fp, #-56]	; 0xffffffc8
   187d4:	e51b2008 	ldr	r2, [fp, #-8]
   187d8:	e5832418 	str	r2, [r3, #1048]	; 0x418
   187dc:	e3a03000 	mov	r3, #0
   187e0:	e1a00003 	mov	r0, r3
   187e4:	e24bd004 	sub	sp, fp, #4
   187e8:	e8bd4800 	pop	{fp, lr}
   187ec:	e12fff1e 	bx	lr
   187f0:	000298a8 	.word	0x000298a8
   187f4:	000298ac 	.word	0x000298ac
   187f8:	00001388 	.word	0x00001388
   187fc:	000186a0 	.word	0x000186a0
   18800:	0000ea60 	.word	0x0000ea60
   18804:	000298c4 	.word	0x000298c4
   18808:	00024b04 	.word	0x00024b04
   1880c:	00024b18 	.word	0x00024b18
   18810:	00024b34 	.word	0x00024b34
   18814:	00024b38 	.word	0x00024b38
   18818:	00024b5c 	.word	0x00024b5c

0001881c <Bcm2835Load>:
   1881c:	e52db004 	push	{fp}		; (str fp, [sp, #-4]!)
   18820:	e28db000 	add	fp, sp, #0
   18824:	e1a00000 	nop			; (mov r0, r0)
   18828:	e24bd000 	sub	sp, fp, #0
   1882c:	e49db004 	pop	{fp}		; (ldr fp, [sp], #4)
   18830:	e12fff1e 	bx	lr

00018834 <MicroDelay>:
   18834:	e92d0810 	push	{r4, fp}
   18838:	e28db004 	add	fp, sp, #4
   1883c:	e24dd018 	sub	sp, sp, #24
   18840:	e50b0018 	str	r0, [fp, #-24]	; 0xffffffe8
   18844:	e59f3054 	ldr	r3, [pc, #84]	; 188a0 <MicroDelay+0x6c>
   18848:	e50b3008 	str	r3, [fp, #-8]
   1884c:	e51b3008 	ldr	r3, [fp, #-8]
   18850:	e8930006 	ldm	r3, {r1, r2}
   18854:	e51b3018 	ldr	r3, [fp, #-24]	; 0xffffffe8
   18858:	e3a04000 	mov	r4, #0
   1885c:	e0933001 	adds	r3, r3, r1
   18860:	e0a44002 	adc	r4, r4, r2
   18864:	e50b3014 	str	r3, [fp, #-20]	; 0xffffffec
   18868:	e50b4010 	str	r4, [fp, #-16]
   1886c:	ea000000 	b	18874 <MicroDelay+0x40>
   18870:	e1a00000 	nop			; (mov r0, r0)
   18874:	e51b3008 	ldr	r3, [fp, #-8]
   18878:	e8930006 	ldm	r3, {r1, r2}
   1887c:	e24b4014 	sub	r4, fp, #20
   18880:	e8940018 	ldm	r4, {r3, r4}
   18884:	e1520004 	cmp	r2, r4
   18888:	01510003 	cmpeq	r1, r3
   1888c:	3afffff7 	bcc	18870 <MicroDelay+0x3c>
   18890:	e1a00000 	nop			; (mov r0, r0)
   18894:	e24bd004 	sub	sp, fp, #4
   18898:	e8bd0810 	pop	{r4, fp}
   1889c:	e12fff1e 	bx	lr
   188a0:	20003004 	.word	0x20003004

000188a4 <PowerOnUsb>:
   188a4:	e52db004 	push	{fp}		; (str fp, [sp, #-4]!)
   188a8:	e28db000 	add	fp, sp, #0
   188ac:	e24dd00c 	sub	sp, sp, #12
   188b0:	e59f3088 	ldr	r3, [pc, #136]	; 18940 <PowerOnUsb+0x9c>
   188b4:	e50b3008 	str	r3, [fp, #-8]
   188b8:	e1a00000 	nop			; (mov r0, r0)
   188bc:	e51b3008 	ldr	r3, [fp, #-8]
   188c0:	e2833018 	add	r3, r3, #24
   188c4:	e5933000 	ldr	r3, [r3]
   188c8:	e3530000 	cmp	r3, #0
   188cc:	bafffffa 	blt	188bc <PowerOnUsb+0x18>
   188d0:	e51b3008 	ldr	r3, [fp, #-8]
   188d4:	e2833020 	add	r3, r3, #32
   188d8:	e3a02080 	mov	r2, #128	; 0x80
   188dc:	e5832000 	str	r2, [r3]
   188e0:	e1a00000 	nop			; (mov r0, r0)
   188e4:	e51b3008 	ldr	r3, [fp, #-8]
   188e8:	e2833018 	add	r3, r3, #24
   188ec:	e5933000 	ldr	r3, [r3]
   188f0:	e2033101 	and	r3, r3, #1073741824	; 0x40000000
   188f4:	e3530000 	cmp	r3, #0
   188f8:	1afffff9 	bne	188e4 <PowerOnUsb+0x40>
   188fc:	e51b3008 	ldr	r3, [fp, #-8]
   18900:	e5933000 	ldr	r3, [r3]
   18904:	e50b300c 	str	r3, [fp, #-12]
   18908:	e51b300c 	ldr	r3, [fp, #-12]
   1890c:	e203300f 	and	r3, r3, #15
   18910:	e3530000 	cmp	r3, #0
   18914:	1afffff1 	bne	188e0 <PowerOnUsb+0x3c>
   18918:	e51b300c 	ldr	r3, [fp, #-12]
   1891c:	e3530080 	cmp	r3, #128	; 0x80
   18920:	1a000001 	bne	1892c <PowerOnUsb+0x88>
   18924:	e3a03000 	mov	r3, #0
   18928:	ea000000 	b	18930 <PowerOnUsb+0x8c>
   1892c:	e3e03003 	mvn	r3, #3
   18930:	e1a00003 	mov	r0, r3
   18934:	e24bd000 	sub	sp, fp, #0
   18938:	e49db004 	pop	{fp}		; (ldr fp, [sp], #4)
   1893c:	e12fff1e 	bx	lr
   18940:	2000b880 	.word	0x2000b880

00018944 <Arm6Load>:
   18944:	e52db004 	push	{fp}		; (str fp, [sp, #-4]!)
   18948:	e28db000 	add	fp, sp, #0
   1894c:	e1a00000 	nop			; (mov r0, r0)
   18950:	e24bd000 	sub	sp, fp, #0
   18954:	e49db004 	pop	{fp}		; (ldr fp, [sp], #4)
   18958:	e12fff1e 	bx	lr

0001895c <__aeabi_uidivmod>:
   1895c:	e92d0870 	push	{r4, r5, r6, fp}
   18960:	e28db00c 	add	fp, sp, #12
   18964:	e24dd018 	sub	sp, sp, #24
   18968:	e50b0020 	str	r0, [fp, #-32]	; 0xffffffe0
   1896c:	e50b1024 	str	r1, [fp, #-36]	; 0xffffffdc
   18970:	e3a01000 	mov	r1, #0
   18974:	e3a02000 	mov	r2, #0
   18978:	e50b1014 	str	r1, [fp, #-20]	; 0xffffffec
   1897c:	e50b2010 	str	r2, [fp, #-16]
   18980:	e3a02000 	mov	r2, #0
   18984:	e50b2018 	str	r2, [fp, #-24]	; 0xffffffe8
   18988:	ea000029 	b	18a34 <__aeabi_uidivmod+0xd8>
   1898c:	e51b2018 	ldr	r2, [fp, #-24]	; 0xffffffe8
   18990:	e262201f 	rsb	r2, r2, #31
   18994:	e51b1024 	ldr	r1, [fp, #-36]	; 0xffffffdc
   18998:	e1a01211 	lsl	r1, r1, r2
   1899c:	e51b2018 	ldr	r2, [fp, #-24]	; 0xffffffe8
   189a0:	e262201f 	rsb	r2, r2, #31
   189a4:	e1a01231 	lsr	r1, r1, r2
   189a8:	e51b2024 	ldr	r2, [fp, #-36]	; 0xffffffdc
   189ac:	e1510002 	cmp	r1, r2
   189b0:	1a00001c 	bne	18a28 <__aeabi_uidivmod+0xcc>
   189b4:	e51b2018 	ldr	r2, [fp, #-24]	; 0xffffffe8
   189b8:	e262201f 	rsb	r2, r2, #31
   189bc:	e51b1024 	ldr	r1, [fp, #-36]	; 0xffffffdc
   189c0:	e1a01211 	lsl	r1, r1, r2
   189c4:	e51b2020 	ldr	r2, [fp, #-32]	; 0xffffffe0
   189c8:	e1510002 	cmp	r1, r2
   189cc:	8a000015 	bhi	18a28 <__aeabi_uidivmod+0xcc>
   189d0:	e51b2018 	ldr	r2, [fp, #-24]	; 0xffffffe8
   189d4:	e262201f 	rsb	r2, r2, #31
   189d8:	e51b1024 	ldr	r1, [fp, #-36]	; 0xffffffdc
   189dc:	e1a02211 	lsl	r2, r1, r2
   189e0:	e51b1020 	ldr	r1, [fp, #-32]	; 0xffffffe0
   189e4:	e0622001 	rsb	r2, r2, r1
   189e8:	e50b2020 	str	r2, [fp, #-32]	; 0xffffffe0
   189ec:	e51b2018 	ldr	r2, [fp, #-24]	; 0xffffffe8
   189f0:	e262201f 	rsb	r2, r2, #31
   189f4:	e3a01001 	mov	r1, #1
   189f8:	e1a02211 	lsl	r2, r1, r2
   189fc:	e1a01002 	mov	r1, r2
   18a00:	e1a02fc1 	asr	r2, r1, #31
   18a04:	e24b6014 	sub	r6, fp, #20
   18a08:	e8960060 	ldm	r6, {r5, r6}
   18a0c:	e1811005 	orr	r1, r1, r5
   18a10:	e1822006 	orr	r2, r2, r6
   18a14:	e50b1014 	str	r1, [fp, #-20]	; 0xffffffec
   18a18:	e50b2010 	str	r2, [fp, #-16]
   18a1c:	e51b2020 	ldr	r2, [fp, #-32]	; 0xffffffe0
   18a20:	e3520000 	cmp	r2, #0
   18a24:	0a000006 	beq	18a44 <__aeabi_uidivmod+0xe8>
   18a28:	e51b2018 	ldr	r2, [fp, #-24]	; 0xffffffe8
   18a2c:	e2822001 	add	r2, r2, #1
   18a30:	e50b2018 	str	r2, [fp, #-24]	; 0xffffffe8
   18a34:	e51b2018 	ldr	r2, [fp, #-24]	; 0xffffffe8
   18a38:	e352001f 	cmp	r2, #31
   18a3c:	9affffd2 	bls	1898c <__aeabi_uidivmod+0x30>
   18a40:	ea000000 	b	18a48 <__aeabi_uidivmod+0xec>
   18a44:	e1a00000 	nop			; (mov r0, r0)
   18a48:	e51b2020 	ldr	r2, [fp, #-32]	; 0xffffffe0
   18a4c:	e1a01002 	mov	r1, r2
   18a50:	e3a02000 	mov	r2, #0
   18a54:	e1a04001 	mov	r4, r1
   18a58:	e3a03000 	mov	r3, #0
   18a5c:	e24b2014 	sub	r2, fp, #20
   18a60:	e8920006 	ldm	r2, {r1, r2}
   18a64:	e1833001 	orr	r3, r3, r1
   18a68:	e1844002 	orr	r4, r4, r2
   18a6c:	e50b3014 	str	r3, [fp, #-20]	; 0xffffffec
   18a70:	e50b4010 	str	r4, [fp, #-16]
   18a74:	e24b4014 	sub	r4, fp, #20
   18a78:	e8940018 	ldm	r4, {r3, r4}
   18a7c:	e1a00003 	mov	r0, r3
   18a80:	e1a01004 	mov	r1, r4
   18a84:	e24bd00c 	sub	sp, fp, #12
   18a88:	e8bd0870 	pop	{r4, r5, r6, fp}
   18a8c:	e12fff1e 	bx	lr

00018a90 <__aeabi_uidiv>:
   18a90:	e92d4810 	push	{r4, fp, lr}
   18a94:	e28db008 	add	fp, sp, #8
   18a98:	e24dd00c 	sub	sp, sp, #12
   18a9c:	e50b0010 	str	r0, [fp, #-16]
   18aa0:	e50b1014 	str	r1, [fp, #-20]	; 0xffffffec
   18aa4:	e51b1014 	ldr	r1, [fp, #-20]	; 0xffffffec
   18aa8:	e51b0010 	ldr	r0, [fp, #-16]
   18aac:	ebffffaa 	bl	1895c <__aeabi_uidivmod>
   18ab0:	e1a03000 	mov	r3, r0
   18ab4:	e1a04001 	mov	r4, r1
   18ab8:	e1a00003 	mov	r0, r3
   18abc:	e24bd008 	sub	sp, fp, #8
   18ac0:	e8bd4810 	pop	{r4, fp, lr}
   18ac4:	e12fff1e 	bx	lr
